 cgamex86

 Timestamp is 5ee7a10a (Mon Jun 15 19:25:46 2020)

 Preferred load address is 0000000030000000

 Start         Length     Name                   Class
 0001:00000000 001c7200H .text$mn                CODE
 0001:001c7200 00001040H .text$mn$00             CODE
 0001:001c8240 00002286H .text$x                 CODE
 0002:00000000 00000110H .CRT$XCA                DATA
 0002:00000110 00000110H .CRT$XCZ                DATA
 0002:00000220 00000110H .CRT$XIA                DATA
 0002:00000330 00000130H .CRT$XIC                DATA
 0002:00000460 00000110H .CRT$XIZ                DATA
 0002:00000570 00000110H .CRT$XPA                DATA
 0002:00000680 00000120H .CRT$XPX                DATA
 0002:000007a0 00000110H .CRT$XPXA               DATA
 0002:000008b0 00000110H .CRT$XPZ                DATA
 0002:000009c0 00000110H .CRT$XTA                DATA
 0002:00000ad0 00000110H .CRT$XTZ                DATA
 0002:00000be0 000421b0H .rdata                  DATA
 0002:00042d90 0000060cH .rdata$r                DATA
 0002:0004339c 0000018cH .rdata$zzzdbg           DATA
 0002:00043528 00000110H .rtc$IAA                DATA
 0002:00043638 00000110H .rtc$IZZ                DATA
 0002:00043748 00000110H .rtc$TAA                DATA
 0002:00043858 00000118H .rtc$TZZ                DATA
 0002:00043970 0000a770H .xdata                  DATA
 0002:0004e0e0 000001a0H .xdata$x                DATA
 0002:0004e280 0000016aH .edata                  DATA
 0003:00000000 0000b7e0H .data                   DATA
 0003:0000b7e0 000002c0H .data$r                 DATA
 0003:0000baa0 00c27c29H .bss                    DATA
 0004:00000000 0000c5d0H .pdata                  DATA
 0005:00000000 00000398H .idata$5                DATA
 0005:00000398 00000014H .idata$2                DATA
 0005:000003ac 00000014H .idata$3                DATA
 0005:000003c0 00000398H .idata$4                DATA
 0005:00000758 00000817H .idata$6                DATA
 0006:00000000 00000151H .00cfg                  DATA
 0007:00000000 000001b5H _RDATA                  DATA
 0008:00000000 00000170H .rsrc$01                DATA
 0008:00000170 000002ccH .rsrc$02                DATA

  Address         Publics by Value              Rva+Base               Lib:Object

 0000:00000000       __guard_longjmp_table      0000000000000000     <absolute>
 0000:00000000       __hybrid_auxiliary_iat     0000000000000000     <absolute>
 0000:00000000       __guard_iat_count          0000000000000000     <absolute>
 0000:00000000       ___safe_se_handler_count   0000000000000000     <absolute>
 0000:00000000       ___safe_se_handler_table   0000000000000000     <absolute>
 0000:00000000       __guard_fids_table         0000000000000000     <absolute>
 0000:00000000       __guard_eh_cont_table      0000000000000000     <absolute>
 0000:00000000       __hybrid_code_map_count    0000000000000000     <absolute>
 0000:00000000       __guard_eh_cont_count      0000000000000000     <absolute>
 0000:00000000       __dynamic_value_reloc_table 0000000000000000     <absolute>
 0000:00000000       __volatile_metadata        0000000000000000     <absolute>
 0000:00000000       __guard_iat_table          0000000000000000     <absolute>
 0000:00000000       __AbsoluteZero             0000000000000000     <absolute>
 0000:00000000       __hybrid_code_map          0000000000000000     <absolute>
 0000:00000000       __guard_fids_count         0000000000000000     <absolute>
 0000:00000000       __enclave_config           0000000000000000     <absolute>
 0000:00000000       __guard_longjmp_count      0000000000000000     <absolute>
 0000:00000000       __arm64x_native_entrypoint 0000000000000000     <absolute>
 0000:00000000       __arm64x_redirection_metadata 0000000000000000     <absolute>
 0000:00000000       __x64_code_ranges_to_entry_points 0000000000000000     <absolute>
 0000:00000100       __guard_flags              0000000000000100     <absolute>
 0000:00000000       __ImageBase                0000000030000000     <linker-defined>
 0001:00008610       ?BG_ModelInfoForModelname@@YAPEAUanimModelInfo_t@@PEAD@Z 0000000030009610 f   bg_animation.obj
 0001:000086c0       ?BG_AnimParseAnimConfig@@YA_NPEAUanimModelInfo_t@@PEBD1@Z 00000000300096c0 f   bg_animation.obj
 0001:00009330       ?BG_AnimParseAnimScript@@YAXPEAUanimModelInfo_t@@PEAUanimScriptData_t@@HPEAD2@Z 000000003000a330 f   bg_animation.obj
 0001:0000a120       ?BG_AnimScriptAnimation@@YAHPEAUplayerState_s@@W4aistateEnum_t@@W4scriptAnimMoveTypes_t@@_N@Z 000000003000b120 f   bg_animation.obj
 0001:0000a2d0       ?BG_AnimScriptCannedAnimation@@YAHPEAUplayerState_s@@W4aistateEnum_t@@@Z 000000003000b2d0 f   bg_animation.obj
 0001:0000a420       ?BG_AnimScriptStateChange@@YAHPEAUplayerState_s@@W4aistateEnum_t@@1@Z 000000003000b420 f   bg_animation.obj
 0001:0000a520       ?BG_AnimScriptEvent@@YAHPEAUplayerState_s@@W4scriptAnimEventTypes_t@@_N2@Z 000000003000b520 f   bg_animation.obj
 0001:0000a640       ?BG_IndexForString@@YAHPEADPEAUanimStringItem_t@@_N@Z 000000003000b640 f   bg_animation.obj
 0001:0000a710       ?BG_PlayAnimName@@YAHPEAUplayerState_s@@PEADW4animBodyPart_t@@_N33@Z 000000003000b710 f   bg_animation.obj
 0001:0000a780       ?BG_ValidAnimScript@@YA_NH@Z 000000003000b780 f   bg_animation.obj
 0001:0000a7d0       ?BG_GetAnimString@@YAPEADHH@Z 000000003000b7d0 f   bg_animation.obj
 0001:0000a830       ?BG_UpdateConditionValue@@YAXHHH_N@Z 000000003000b830 f   bg_animation.obj
 0001:0000a950       ?BG_GetConditionValue@@YAHHH_N@Z 000000003000b950 f   bg_animation.obj
 0001:0000aa30       ?BG_GetAnimScriptAnimation@@YAHHW4aistateEnum_t@@W4scriptAnimMoveTypes_t@@@Z 000000003000ba30 f   bg_animation.obj
 0001:0000ab50       ?BG_AnimUpdatePlayerStateConditions@@YAXPEAUpmove_t@@@Z 000000003000bb50 f   bg_animation.obj
 0001:0000ad40       ?BG_AnimationIndexForString@@YAHPEADH@Z 000000003000bd40 f   bg_animation.obj
 0001:0000ae00       ?BG_AnimationForString@@YAPEAUanimation_s@@PEADPEAUanimModelInfo_t@@@Z 000000003000be00 f   bg_animation.obj
 0001:0000aec0       ?BG_GetAnimationForIndex@@YAPEAUanimation_s@@HH@Z 000000003000bec0 f   bg_animation.obj
 0001:0000af30       ?BG_GetAnimScriptEvent@@YAHPEAUplayerState_s@@W4scriptAnimEventTypes_t@@@Z 000000003000bf30 f   bg_animation.obj
 0001:0000b020       ?BG_UpdateConditionValueStrings@@YAXHPEAD0@Z 000000003000c020 f   bg_animation.obj
 0001:0000b0b0       ?BG_AnimGetFootstepGap@@YAMPEAUplayerState_s@@M@Z 000000003000c0b0 f   bg_animation.obj
 0001:0000b250       ?BG_AnimParseError@@YAXPEBDZZ 000000003000c250 f   bg_animation.obj
 0001:0000b320       ?BG_ModelInfoForClient@@YAPEAUanimModelInfo_t@@H@Z 000000003000c320 f   bg_animation.obj
 0001:0000b390       ?BG_CopyStringIntoBuffer@@YAPEADPEAD0HPEAH@Z 000000003000c390 f   bg_animation.obj
 0001:0000b440       ?BG_InitWeaponStrings@@YAXXZ 000000003000c440 f   bg_animation.obj
 0001:0000b580       ?BG_ParseConditionBits@@YAXPEAPEADPEAUanimStringItem_t@@HQEAH@Z 000000003000c580 f   bg_animation.obj
 0001:0000baa0       ?BG_ParseConditions@@YA_NPEAPEADPEAUanimScriptItem_t@@@Z 000000003000caa0 f   bg_animation.obj
 0001:0000bd20       ?BG_ParseCommands@@YAXPEAPEADPEAUanimScriptItem_t@@PEAUanimModelInfo_t@@PEAUanimScriptData_t@@@Z 000000003000cd20 f   bg_animation.obj
 0001:0000c350       ?BG_EvaluateConditions@@YA_NHPEAUanimScriptItem_t@@@Z 000000003000d350 f   bg_animation.obj
 0001:0000c4d0       ?BG_FirstValidItem@@YAPEAUanimScriptItem_t@@HPEAUanimScript_t@@@Z 000000003000d4d0 f   bg_animation.obj
 0001:0000c550       ?BG_PlayAnim@@YAHPEAUplayerState_s@@HW4animBodyPart_t@@H_N22@Z 000000003000d550 f   bg_animation.obj
 0001:0000c800       ?BG_ExecuteCommand@@YAHPEAUplayerState_s@@PEAUanimScriptCommand_t@@_N22@Z 000000003000d800 f   bg_animation.obj
 0001:0000dc50       ?strstr@@YAPEADQEADQEBD@Z  000000003000ec50 f i bg_animation.obj
 0001:0000dc80       __local_stdio_printf_options 000000003000ec80 f i bg_animation.obj
 0001:0000dc90       _vsnprintf_l               000000003000ec90 f i bg_animation.obj
 0001:0000dd30       vsprintf                   000000003000ed30 f i bg_animation.obj
 0001:0000dd80       tan                        000000003000ed80 f   bg_lib.obj
 0001:0000ddc0       atof                       000000003000edc0 f   bg_lib.obj
 0001:0000df80       strchr                     000000003000ef80 f   bg_lib.obj
 0001:0000dfd0       strstr                     000000003000efd0 f   bg_lib.obj
 0001:0000e070       strcat                     000000003000f070 f   bg_lib.obj
 0001:0000e0f0       strcmp                     000000003000f0f0 f   bg_lib.obj
 0001:0000e160       strcpy                     000000003000f160 f   bg_lib.obj
 0001:0000e1d0       strlen                     000000003000f1d0 f   bg_lib.obj
 0001:0000e220       srand                      000000003000f220 f   bg_lib.obj
 0001:0000e240       rand                       000000003000f240 f   bg_lib.obj
 0001:0000e470       ?qsort@@YAXPEAD_K1P6AHPEBX2@Z@Z 000000003000f470 f   bg_lib.obj
 0001:0000ee00       ?bg_memmove@@YAPEAXPEAXPEBX_K@Z 000000003000fe00 f   bg_lib.obj
 0001:0000eea0       ?_atof@@YANPEAPEBD@Z       000000003000fea0 f   bg_lib.obj
 0001:0000f530       ?BG_FindItem@@YAPEAUgitem_s@@PEBD@Z 0000000030010530 f   bg_misc.obj
 0001:0000f5a0       ?BG_FindItem2@@YAPEAUgitem_s@@PEBD@Z 00000000300105a0 f   bg_misc.obj
 0001:0000f640       ?BG_FindItemForWeapon@@YAPEAUgitem_s@@W4weapon_t@@@Z 0000000030010640 f   bg_misc.obj
 0001:0000f770       ?BG_FindItemForPowerup@@YAPEAUgitem_s@@H@Z 0000000030010770 f   bg_misc.obj
 0001:0000f810       ?BG_FindItemForHoldable@@YAPEAUgitem_s@@W4holdable_t@@@Z 0000000030010810 f   bg_misc.obj
 0001:0000f8a0       ?BG_FindItemForHoldable@@YAPEAUgitem_s@@H@Z 00000000300108a0 f   bg_misc.obj
 0001:0000f930       ?BG_FindItemForAmmo@@YAPEAUgitem_s@@H@Z 0000000030010930 f   bg_misc.obj
 0001:0000f9d0       ?BG_FindItemForKey@@YAPEAUgitem_s@@W4wkey_t@@PEAH@Z 00000000300109d0 f   bg_misc.obj
 0001:0000fa90       ?BG_FindAmmoForWeapon@@YA?AW4weapon_t@@H@Z 0000000030010a90 f   bg_misc.obj
 0001:0000fb90       ?BG_FindClipForWeapon@@YA?AW4weapon_t@@H@Z 0000000030010b90 f   bg_misc.obj
 0001:0000fc90       ?BG_AkimboFireSequence@@YA_NHHH@Z 0000000030010c90 f   bg_misc.obj
 0001:0000fce0       ?BG_CanItemBeGrabbed@@YA_NPEBUentityState_s@@PEBUplayerState_s@@@Z 0000000030010ce0 f   bg_misc.obj
 0001:00010110       ?BG_EvaluateTrajectory@@YAXPEBUtrajectory_t@@HQEAM@Z 0000000030011110 f   bg_misc.obj
 0001:00011030       ?BG_EvaluateTrajectoryDelta@@YAXPEBUtrajectory_t@@HQEAM@Z 0000000030012030 f   bg_misc.obj
 0001:00011890       ?BG_GetMarkDir@@YAXQEBM0QEAM@Z 0000000030012890 f   bg_misc.obj
 0001:00011c10       ?BG_AddPredictableEventToPlayerstate@@YAXHHPEAUplayerState_s@@@Z 0000000030012c10 f   bg_misc.obj
 0001:00011d30       ?BG_PlayerStateToEntityState@@YAXPEAUplayerState_s@@PEAUentityState_s@@_N@Z 0000000030012d30 f   bg_misc.obj
 0001:000123b0       ?BG_PlayerStateToEntityStateExtraPolate@@YAXPEAUplayerState_s@@PEAUentityState_s@@H_N@Z 00000000300133b0 f   bg_misc.obj
 0001:00012a70       ?BG_PlayerTouchesItem@@YA_NPEAUplayerState_s@@PEAUentityState_s@@H@Z 0000000030013a70 f   bg_misc.obj
 0001:00012bf0       ?isClipOnly@@YA_NH@Z       0000000030013bf0 f   bg_misc.obj
 0001:000139f0       ?Com_GetFlamethrowerRange@@YAMXZ 00000000300149f0 f   bg_pmove.obj
 0001:00013a20       ?PM_UpdateViewAngles@@YAXPEAUplayerState_s@@PEAUusercmd_s@@P6AXPEAUtrace_t@@QEBM333HH@Z@Z 0000000030014a20 f   bg_pmove.obj
 0001:00013bf0       ?Pmove@@YAHPEAUpmove_t@@@Z 0000000030014bf0 f   bg_pmove.obj
 0001:00013e60       ?PM_ClipVelocity@@YAXQEAM00M@Z 0000000030014e60 f   bg_pmove.obj
 0001:00013f90       ?PM_AddTouchEnt@@YAXH@Z    0000000030014f90 f   bg_pmove.obj
 0001:00014030       ?PM_AddEvent@@YAXH@Z       0000000030015030 f   bg_pmove.obj
 0001:00016cd0       ?PM_AddFallEvent@@YAXHH@Z  0000000030017cd0 f   bg_pmove.obj
 0001:000199b0       ?PM_CheckForReload@@YAXH@Z 000000003001a9b0 f   bg_pmove.obj
 0001:00019d60       ?PM_WeaponUseAmmo@@YAXHH@Z 000000003001ad60 f   bg_pmove.obj
 0001:00019e70       ?PM_WeaponAmmoAvailable@@YAHH@Z 000000003001ae70 f   bg_pmove.obj
 0001:00019f60       ?PM_WeaponClipEmpty@@YAHH@Z 000000003001af60 f   bg_pmove.obj
 0001:00019ff0       ?PM_CoolWeapons@@YAXXZ     000000003001aff0 f   bg_pmove.obj
 0001:0001a170       ?PM_AdjustAimSpreadScale@@YAXXZ 000000003001b170 f   bg_pmove.obj
 0001:0001c1d0       ?PM_UpdateLean@@YAXPEAUplayerState_s@@PEAUusercmd_s@@PEAUpmove_t@@@Z 000000003001d1d0 f   bg_pmove.obj
 0001:0001c890       ?PM_CheckLadderMove@@YAXXZ 000000003001d890 f   bg_pmove.obj
 0001:0001d070       ?PM_LadderMove@@YAXXZ      000000003001e070 f   bg_pmove.obj
 0001:0001d730       ?PM_Sprint@@YAXXZ          000000003001e730 f   bg_pmove.obj
 0001:0001da60       ?PmoveSingle@@YAXPEAUpmove_t@@@Z 000000003001ea60 f   bg_pmove.obj
 0001:00020d10       ?PM_SlideMove@@YA_N_N@Z    0000000030021d10 f   bg_slidemove.obj
 0001:00021f70       ?PM_StepSlideMove@@YAX_N@Z 0000000030022f70 f   bg_slidemove.obj
 0001:00022fc0       ?Q_fabs@@YAMM@Z            0000000030023fc0 f   q_math.obj
 0001:00022ff0       ?Q_rsqrt@@YAMM@Z           0000000030023ff0 f   q_math.obj
 0001:00023090       ?ClampChar@@YACH@Z         0000000030024090 f   q_math.obj
 0001:000230c0       ?ClampShort@@YAFH@Z        00000000300240c0 f   q_math.obj
 0001:00023100       ?DirToByte@@YAHQEAM@Z      0000000030024100 f   q_math.obj
 0001:00023230       ?ByteToDir@@YAXHQEAM@Z     0000000030024230 f   q_math.obj
 0001:00023380       ?_DotProduct@@YAMQEBM0@Z   0000000030024380 f   q_math.obj
 0001:00023410       ?_VectorSubtract@@YAXQEBM0QEAM@Z 0000000030024410 f   q_math.obj
 0001:000234e0       ?_VectorAdd@@YAXQEBM0QEAM@Z 00000000300244e0 f   q_math.obj
 0001:000235b0       ?_VectorCopy@@YAXQEBMQEAM@Z 00000000300245b0 f   q_math.obj
 0001:00023640       ?_VectorScale@@YAXQEBMMQEAM@Z 0000000030024640 f   q_math.obj
 0001:000236e0       ?_VectorMA@@YAXQEBMM0QEAM@Z 00000000300246e0 f   q_math.obj
 0001:000237d0       ?ColorBytes3@@YAIMMM@Z     00000000300247d0 f   q_math.obj
 0001:00023850       ?ColorBytes4@@YAIMMMM@Z    0000000030024850 f   q_math.obj
 0001:00023900       ?NormalizeColor@@YAMQEBMQEAM@Z 0000000030024900 f   q_math.obj
 0001:00023a70       ?RadiusFromBounds@@YAMQEBM0@Z 0000000030024a70 f   q_math.obj
 0001:00023b50       ?ClearBounds@@YAXQEAM0@Z   0000000030024b50 f   q_math.obj
 0001:00023c10       ?AddPointToBounds@@YAXQEBMQEAM1@Z 0000000030024c10 f   q_math.obj
 0001:00023e00       ?VectorCompare@@YAHQEBM0@Z 0000000030024e00 f   q_math.obj
 0001:00023ea0       ?VectorLength@@YAMQEBM@Z   0000000030024ea0 f   q_math.obj
 0001:00023f40       ?VectorLengthSquared@@YAMQEBM@Z 0000000030024f40 f   q_math.obj
 0001:00023fd0       ?Distance@@YAMQEBM0@Z      0000000030024fd0 f   q_math.obj
 0001:000240c0       ?DistanceSquared@@YAMQEBM0@Z 00000000300250c0 f   q_math.obj
 0001:00024210       ?CrossProduct@@YAXQEBM0QEAM@Z 0000000030025210 f   q_math.obj
 0001:00024360       ?VectorNormalize@@YAMQEAM@Z 0000000030025360 f   q_math.obj
 0001:000244c0       ?VectorNormalizeFast@@YAXQEAM@Z 00000000300254c0 f   q_math.obj
 0001:000245e0       ?VectorNormalize2@@YAMQEBMQEAM@Z 00000000300255e0 f   q_math.obj
 0001:00024790       ?VectorInverse@@YAXQEAM@Z  0000000030025790 f   q_math.obj
 0001:00024830       ?Vector4Scale@@YAXQEBMMQEAM@Z 0000000030025830 f   q_math.obj
 0001:00024900       ?VectorRotate@@YAXQEAMQEAY02M0@Z 0000000030025900 f   q_math.obj
 0001:00024b50       ?Q_log2@@YAHH@Z            0000000030025b50 f   q_math.obj
 0001:00024b90       ?Q_rand@@YAHPEAH@Z         0000000030025b90 f   q_math.obj
 0001:00024bc0       ?Q_random@@YAMPEAH@Z       0000000030025bc0 f   q_math.obj
 0001:00024bf0       ?Q_crandom@@YAMPEAH@Z      0000000030025bf0 f   q_math.obj
 0001:00024c30       ?vectoangles@@YAXQEBMQEAM@Z 0000000030025c30 f   q_math.obj
 0001:00024ec0       ?vectoyaw@@YAMQEBM@Z       0000000030025ec0 f   q_math.obj
 0001:00024ff0       ?AnglesToAxis@@YAXQEBMQEAY02M@Z 0000000030025ff0 f   q_math.obj
 0001:00025140       ?AxisToAngles@@YAXQEAY02MQEAM@Z 0000000030026140 f   q_math.obj
 0001:00025440       ?VectorDistance@@YAMQEAM0@Z 0000000030026440 f   q_math.obj
 0001:00025530       ?AxisClear@@YAXQEAY02M@Z   0000000030026530 f   q_math.obj
 0001:000256a0       ?AxisCopy@@YAXQEAY02M0@Z   00000000300266a0 f   q_math.obj
 0001:00025930       ?SetPlaneSignbits@@YAXPEAUcplane_s@@@Z 0000000030026930 f   q_math.obj
 0001:000259b0       ?BoxOnPlaneSide@@YAHQEAM0PEAUcplane_s@@@Z 00000000300269b0 f   q_math.obj
 0001:00026330       ?AngleMod@@YAMM@Z          0000000030027330 f   q_math.obj
 0001:00026380       ?LerpAngle@@YAMMMM@Z       0000000030027380 f   q_math.obj
 0001:00026430       ?AngleSubtract@@YAMMM@Z    0000000030027430 f   q_math.obj
 0001:000264b0       ?AnglesSubtract@@YAXQEAM00@Z 00000000300274b0 f   q_math.obj
 0001:00026590       ?AngleNormalize360@@YAMM@Z 0000000030027590 f   q_math.obj
 0001:000265d0       ?AngleNormalize180@@YAMM@Z 00000000300275d0 f   q_math.obj
 0001:00026630       ?AngleDelta@@YAMMM@Z       0000000030027630 f   q_math.obj
 0001:00026660       ?PlaneFromPoints@@YA_NQEAMQEBM11@Z 0000000030027660 f   q_math.obj
 0001:000268c0       ?ProjectPointOnPlane@@YAXQEAMQEBM1@Z 00000000300278c0 f   q_math.obj
 0001:00026b50       ?RotatePointAroundVector@@YAXQEAMQEBM1M@Z 0000000030027b50 f   q_math.obj
 0001:000271c0       ?RotateAroundDirection@@YAXQEAY02MM@Z 00000000300281c0 f   q_math.obj
 0001:00027360       ?MakeNormalVectors@@YAXQEBMQEAM1@Z 0000000030028360 f   q_math.obj
 0001:000275b0       ?MatrixMultiply@@YAXQEAY02M00@Z 00000000300285b0 f   q_math.obj
 0001:00027eb0       ?AngleVectors@@YAXQEBMQEAM11@Z 0000000030028eb0 f   q_math.obj
 0001:000281e0       ?PerpendicularVector@@YAXQEAMQEBM@Z 00000000300291e0 f   q_math.obj
 0001:00028300       ?GetPerpendicularViewVector@@YAXQEBM00QEAM@Z 0000000030029300 f   q_math.obj
 0001:000284d0       ?ProjectPointOntoVector@@YAXQEAM000@Z 00000000300294d0 f   q_math.obj
 0001:00029ed0       ?Com_Clamp@@YAMMMM@Z       000000003002aed0 f   q_shared.obj
 0001:00029f20       ?COM_SkipPath@@YAPEADPEAD@Z 000000003002af20 f   q_shared.obj
 0001:00029f80       ?COM_StripExtension@@YAXPEBDPEAD@Z 000000003002af80 f   q_shared.obj
 0001:00029fe0       ?COM_StripFilename@@YAXPEAD0@Z 000000003002afe0 f   q_shared.obj
 0001:0002a030       ?COM_DefaultExtension@@YAXPEADHPEBD@Z 000000003002b030 f   q_shared.obj
 0001:0002a120       ?COM_BeginParseSession@@YAXPEBD@Z 000000003002b120 f   q_shared.obj
 0001:0002a160       ?COM_RestoreParseSession@@YAXPEAPEAD@Z 000000003002b160 f   q_shared.obj
 0001:0002a190       ?COM_SetCurrentParseLine@@YAXH@Z 000000003002b190 f   q_shared.obj
 0001:0002a1b0       ?COM_GetCurrentParseLine@@YAHXZ 000000003002b1b0 f   q_shared.obj
 0001:0002a1c0       ?COM_Parse@@YAPEADPEAPEAD@Z 000000003002b1c0 f   q_shared.obj
 0001:0002a1e0       ?COM_ParseExt@@YAPEADPEAPEAD_N@Z 000000003002b1e0 f   q_shared.obj
 0001:0002a560       ?COM_Compress@@YAHPEAD@Z   000000003002b560 f   q_shared.obj
 0001:0002a750       ?COM_ParseError@@YAXPEADZZ 000000003002b750 f   q_shared.obj
 0001:0002a7c0       ?COM_ParseWarning@@YAXPEADZZ 000000003002b7c0 f   q_shared.obj
 0001:0002a830       ?COM_BitCheck@@YA_NQEBHH@Z 000000003002b830 f   q_shared.obj
 0001:0002a8b0       ?COM_BitSet@@YAXQEAHH@Z    000000003002b8b0 f   q_shared.obj
 0001:0002a920       ?COM_BitClear@@YAXQEAHH@Z  000000003002b920 f   q_shared.obj
 0001:0002a990       ?COM_MatchToken@@YAXPEAPEADPEAD@Z 000000003002b990 f   q_shared.obj
 0001:0002a9f0       ?SkipBracedSection@@YAXPEAPEAD@Z 000000003002b9f0 f   q_shared.obj
 0001:0002aa90       ?SkipRestOfLine@@YAXPEAPEAD@Z 000000003002ba90 f   q_shared.obj
 0001:0002ab00       ?Parse1DMatrix@@YAXPEAPEADHPEAM@Z 000000003002bb00 f   q_shared.obj
 0001:0002ab90       ?Parse2DMatrix@@YAXPEAPEADHHPEAM@Z 000000003002bb90 f   q_shared.obj
 0001:0002ac20       ?Parse3DMatrix@@YAXPEAPEADHHHPEAM@Z 000000003002bc20 f   q_shared.obj
 0001:0002acc0       ?Com_sprintf@@YAXPEADHPEBDZZ 000000003002bcc0 f   q_shared.obj
 0001:0002ada0       ?Q_isprint@@YAHH@Z         000000003002bda0 f   q_shared.obj
 0001:0002add0       ?Q_islower@@YAHH@Z         000000003002bdd0 f   q_shared.obj
 0001:0002ae00       ?Q_isupper@@YAHH@Z         000000003002be00 f   q_shared.obj
 0001:0002ae30       ?Q_isalpha@@YAHH@Z         000000003002be30 f   q_shared.obj
 0001:0002ae60       ?Q_isnumeric@@YAHH@Z       000000003002be60 f   q_shared.obj
 0001:0002ae90       ?Q_isalphanumeric@@YAHH@Z  000000003002be90 f   q_shared.obj
 0001:0002aed0       ?Q_isforfilename@@YAHH@Z   000000003002bed0 f   q_shared.obj
 0001:0002af10       ?Q_stricmp@@YAHPEBD0@Z     000000003002bf10 f   q_shared.obj
 0001:0002af60       ?Q_strncmp@@YAHPEBD0H@Z    000000003002bf60 f   q_shared.obj
 0001:0002b000       ?Q_stricmpn@@YAHPEBD0H@Z   000000003002c000 f   q_shared.obj
 0001:0002b0e0       ?Q_strlwr@@YAPEADPEAD@Z    000000003002c0e0 f   q_shared.obj
 0001:0002b140       ?Q_strupr@@YAPEADPEAD@Z    000000003002c140 f   q_shared.obj
 0001:0002b1a0       ?Q_strrchr@@YAPEADPEBDH@Z  000000003002c1a0 f   q_shared.obj
 0001:0002b220       ?Q_strncpyz@@YAXPEADPEBDH@Z 000000003002c220 f   q_shared.obj
 0001:0002b2a0       ?Q_strcat@@YAXPEADHPEBD@Z  000000003002c2a0 f   q_shared.obj
 0001:0002b310       ?Q_PrintStrlen@@YAHPEBD@Z  000000003002c310 f   q_shared.obj
 0001:0002b3b0       ?Q_CleanStr@@YAPEADPEAD@Z  000000003002c3b0 f   q_shared.obj
 0001:0002b470       ?Q_strncasecmp@@YAHPEAD0H@Z 000000003002c470 f   q_shared.obj
 0001:0002b540       ?Q_strcasecmp@@YAHPEAD0@Z  000000003002c540 f   q_shared.obj
 0001:0002b570       ?BigShort@@YAFF@Z          000000003002c570 f   q_shared.obj
 0001:0002b590       ?LittleShort@@YAFF@Z       000000003002c590 f   q_shared.obj
 0001:0002b5b0       ?BigLong@@YAHH@Z           000000003002c5b0 f   q_shared.obj
 0001:0002b5d0       ?LittleLong@@YAHH@Z        000000003002c5d0 f   q_shared.obj
 0001:0002b5f0       ?BigLong64@@YA?AUqint64@@U1@@Z 000000003002c5f0 f   q_shared.obj
 0001:0002b620       ?LittleLong64@@YA?AUqint64@@U1@@Z 000000003002c620 f   q_shared.obj
 0001:0002b650       ?BigFloat@@YAMM@Z          000000003002c650 f   q_shared.obj
 0001:0002b680       ?LittleFloat@@YAMM@Z       000000003002c680 f   q_shared.obj
 0001:0002b6b0       ?Swap_Init@@YAXXZ          000000003002c6b0 f   q_shared.obj
 0001:0002b7c0       ?va@@YAPEADPEADZZ          000000003002c7c0 f   q_shared.obj
 0001:0002b8b0       ?tv@@YAPEAMMMM@Z           000000003002c8b0 f   q_shared.obj
 0001:0002b950       ?Info_ValueForKey@@YAPEADPEBD0@Z 000000003002c950 f   q_shared.obj
 0001:0002bb80       ?Info_RemoveKey@@YAXPEADPEBD@Z 000000003002cb80 f   q_shared.obj
 0001:0002bd80       ?Info_SetValueForKey@@YAXPEADPEBD1@Z 000000003002cd80 f   q_shared.obj
 0001:0002bf60       ?Info_SetValueForKey_Big@@YAXPEADPEBD1@Z 000000003002cf60 f   q_shared.obj
 0001:0002c140       ?Info_Validate@@YA_NPEBD@Z 000000003002d140 f   q_shared.obj
 0001:0002c190       ?Info_NextPair@@YAXPEAPEBDPEAD1@Z 000000003002d190 f   q_shared.obj
 0001:0002c2d0       ?ShortSwap@@YAFF@Z         000000003002d2d0 f   q_shared.obj
 0001:0002c310       ?ShortNoSwap@@YAFF@Z       000000003002d310 f   q_shared.obj
 0001:0002c330       ?LongSwap@@YAHH@Z          000000003002d330 f   q_shared.obj
 0001:0002c3b0       ?LongNoSwap@@YAHH@Z        000000003002d3b0 f   q_shared.obj
 0001:0002c3c0       ?Long64Swap@@YA?AUqint64@@U1@@Z 000000003002d3c0 f   q_shared.obj
 0001:0002c420       ?Long64NoSwap@@YA?AUqint64@@U1@@Z 000000003002d420 f   q_shared.obj
 0001:0002c440       ?FloatSwap@@YAMM@Z         000000003002d440 f   q_shared.obj
 0001:0002c4d0       ?FloatNoSwap@@YAMM@Z       000000003002d4d0 f   q_shared.obj
 0001:0002c4f0       ?SkipWhitespace@@YAPEADPEADPEA_N@Z 000000003002d4f0 f   q_shared.obj
 0001:0002c560       ?Info_RemoveKey_Big@@YAXPEADPEBD@Z 000000003002d560 f   q_shared.obj
 0001:0002d180       ?String_Alloc@@YAPEBDPEBD@Z 000000003002e180 f   ui_shared.obj
 0001:0002d350       ?String_Init@@YAXXZ        000000003002e350 f   ui_shared.obj
 0001:0002d3f0       ?String_Report@@YAXXZ      000000003002e3f0 f   ui_shared.obj
 0001:0002d4e0       ?Init_Display@@YAXPEAUdisplayContextDef_t@@@Z 000000003002e4e0 f   ui_shared.obj
 0001:0002d500       ?Menu_Init@@YAXPEAUmenuDef_t@@@Z 000000003002e500 f   ui_shared.obj
 0001:0002d5a0       ?Item_Init@@YAXPEAUitemDef_s@@@Z 000000003002e5a0 f   ui_shared.obj
 0001:0002d5f0       ?Menu_PostParse@@YAXPEAUmenuDef_t@@@Z 000000003002e5f0 f   ui_shared.obj
 0001:0002d670       ?Menu_GetFocused@@YAPEAUmenuDef_t@@XZ 000000003002e670 f   ui_shared.obj
 0001:0002d700       ?Menu_HandleKey@@YAXPEAUmenuDef_t@@H_N@Z 000000003002e700 f   ui_shared.obj
 0001:0002de20       ?Menu_HandleMouseMove@@YAXPEAUmenuDef_t@@MM@Z 000000003002ee20 f   ui_shared.obj
 0001:0002e0d0       ?Menu_ScrollFeeder@@YAXPEAUmenuDef_t@@H_N@Z 000000003002f0d0 f   ui_shared.obj
 0001:0002e190       ?Float_Parse@@YA_NPEAPEADPEAM@Z 000000003002f190 f   ui_shared.obj
 0001:0002e200       ?Color_Parse@@YA_NPEAPEADPEAY03M@Z 000000003002f200 f   ui_shared.obj
 0001:0002e270       ?Int_Parse@@YA_NPEAPEADPEAH@Z 000000003002f270 f   ui_shared.obj
 0001:0002e2e0       ?Rect_Parse@@YA_NPEAPEADPEAUrectDef_t@@@Z 000000003002f2e0 f   ui_shared.obj
 0001:0002e370       ?String_Parse@@YA_NPEAPEADPEAPEBD@Z 000000003002f370 f   ui_shared.obj
 0001:0002e3d0       ?PC_Float_Parse@@YA_NHPEAM@Z 000000003002f3d0 f   ui_shared.obj
 0001:0002e4d0       ?PC_Color_Parse@@YA_NHPEAY03M@Z 000000003002f4d0 f   ui_shared.obj
 0001:0002e540       ?PC_Int_Parse@@YA_NHPEAH@Z 000000003002f540 f   ui_shared.obj
 0001:0002e630       ?PC_Rect_Parse@@YA_NHPEAUrectDef_t@@@Z 000000003002f630 f   ui_shared.obj
 0001:0002e6c0       ?PC_String_Parse@@YA_NHPEAPEBD@Z 000000003002f6c0 f   ui_shared.obj
 0001:0002e730       ?PC_Script_Parse@@YA_NHPEAPEBD@Z 000000003002f730 f   ui_shared.obj
 0001:0002e890       ?PC_Char_Parse@@YA_NHPEAD@Z 000000003002f890 f   ui_shared.obj
 0001:0002e910       ?Menu_Count@@YAHXZ         000000003002f910 f   ui_shared.obj
 0001:0002e920       ?Menu_New@@YAXH@Z          000000003002f920 f   ui_shared.obj
 0001:0002e9a0       ?Menu_PaintAll@@YAXXZ      000000003002f9a0 f   ui_shared.obj
 0001:0002eae0       ?Menus_ActivateByName@@YAPEAUmenuDef_t@@PEBD@Z 000000003002fae0 f   ui_shared.obj
 0001:0002ec00       ?Menu_Reset@@YAXXZ         000000003002fc00 f   ui_shared.obj
 0001:0002ec20       ?Menus_AnyFullScreenVisible@@YA_NXZ 000000003002fc20 f   ui_shared.obj
 0001:0002ec90       ?Menus_Activate@@YAXPEAUmenuDef_t@@@Z 000000003002fc90 f   ui_shared.obj
 0001:0002ed80       ?Display_GetContext@@YAPEAUdisplayContextDef_t@@XZ 000000003002fd80 f   ui_shared.obj
 0001:0002ed90       ?Display_CaptureItem@@YAPEAXHH@Z 000000003002fd90 f   ui_shared.obj
 0001:0002ee20       ?Display_MouseMove@@YA_NPEAXHH@Z 000000003002fe20 f   ui_shared.obj
 0001:0002ef40       ?Display_CursorType@@YAHHH@Z 000000003002ff40 f   ui_shared.obj
 0001:0002f030       ?Display_KeyBindPending@@YA_NXZ 0000000030030030 f   ui_shared.obj
 0001:0002f040       ?Menus_OpenByName@@YAXPEBD@Z 0000000030030040 f   ui_shared.obj
 0001:0002f060       ?Menus_FindByName@@YAPEAUmenuDef_t@@PEBD@Z 0000000030030060 f   ui_shared.obj
 0001:0002f0e0       ?Menus_ShowByName@@YAXPEBD@Z 00000000300300e0 f   ui_shared.obj
 0001:0002f120       ?Menus_CloseByName@@YAXPEBD@Z 0000000030030120 f   ui_shared.obj
 0001:0002f170       ?Display_HandleKey@@YAXH_NHH@Z 0000000030030170 f   ui_shared.obj
 0001:0002f1e0       ?LerpColor@@YAXQEAM00M@Z   00000000300301e0 f   ui_shared.obj
 0001:0002f2d0       ?Menus_CloseAll@@YAXXZ     00000000300302d0 f   ui_shared.obj
 0001:0002f360       ?Menu_Paint@@YAXPEAUmenuDef_t@@_N@Z 0000000030030360 f   ui_shared.obj
 0001:0002f590       ?Menu_SetFeederSelection@@YAXPEAUmenuDef_t@@HHPEBD@Z 0000000030030590 f   ui_shared.obj
 0001:0002f6e0       ?Display_CacheAll@@YAXXZ   00000000300306e0 f   ui_shared.obj
 0001:0002f740       ?UI_Alloc@@YAPEAXH@Z       0000000030030740 f   ui_shared.obj
 0001:0002f7e0       ?UI_InitMemory@@YAXXZ      00000000300307e0 f   ui_shared.obj
 0001:0002f800       ?UI_OutOfMemory@@YA_NXZ    0000000030030800 f   ui_shared.obj
 0001:0002f830       ?UI_RoQDone@@YAXXZ         0000000030030830 f   ui_shared.obj
 0001:0002f8b0       ?Controls_GetConfig@@YAXXZ 00000000300308b0 f   ui_shared.obj
 0001:0002f940       ?Controls_SetConfig@@YAX_N@Z 0000000030030940 f   ui_shared.obj
 0001:0002fa50       ?Controls_SetDefaults@@YAXXZ 0000000030030a50 f   ui_shared.obj
 0001:0002fad0       ?Item_RunScript@@YAXPEAUitemDef_s@@PEBD@Z 0000000030030ad0 f   ui_shared.obj
 0001:0002fc70       ?Item_SetupKeywordHash@@YAXXZ 0000000030030c70 f   ui_shared.obj
 0001:0002fcf0       ?Menu_SetupKeywordHash@@YAXXZ 0000000030030cf0 f   ui_shared.obj
 0001:0002fd70       ?BindingIDFromName@@YAHPEBD@Z 0000000030030d70 f   ui_shared.obj
 0001:0002fdd0       ?Item_Bind_HandleKey@@YA_NPEAUitemDef_s@@H_N@Z 0000000030030dd0 f   ui_shared.obj
 0001:000301a0       ?Menu_SetPrevCursorItem@@YAPEAUitemDef_s@@PEAUmenuDef_t@@@Z 00000000300311a0 f   ui_shared.obj
 0001:00030320       ?Menu_SetNextCursorItem@@YAPEAUitemDef_s@@PEAUmenuDef_t@@@Z 0000000030031320 f   ui_shared.obj
 0001:000306c0       ?PC_SourceWarning@@YAXHPEADZZ 00000000300316c0 f   ui_shared.obj
 0001:000307a0       ?PC_SourceError@@YAXHPEADZZ 00000000300317a0 f   ui_shared.obj
 0001:00030880       ?GradientBar_Paint@@YAXPEAUrectDef_t@@QEAM@Z 0000000030031880 f   ui_shared.obj
 0001:00030900       ?Window_Init@@YAXPEAUwindowDef_t@@@Z 0000000030031900 f   ui_shared.obj
 0001:000309c0       ?Fade@@YAXPEAHPEAMM0H_NM@Z 00000000300319c0 f   ui_shared.obj
 0001:00030ad0       ?Window_Paint@@YAXPEAUwindowDef_t@@MMM@Z 0000000030031ad0 f   ui_shared.obj
 0001:00031320       ?Item_SetScreenCoords@@YAXPEAUitemDef_s@@MM@Z 0000000030032320 f   ui_shared.obj
 0001:00031400       ?Item_UpdatePosition@@YAXPEAUitemDef_s@@@Z 0000000030032400 f   ui_shared.obj
 0001:000314b0       ?Menu_UpdatePosition@@YAXPEAUmenuDef_t@@@Z 00000000300324b0 f   ui_shared.obj
 0001:00031580       ?Menu_ClearFocus@@YAPEAUitemDef_s@@PEAUmenuDef_t@@@Z 0000000030032580 f   ui_shared.obj
 0001:00031690       ?IsVisible@@YA_NH@Z        0000000030032690 f   ui_shared.obj
 0001:000316d0       ?Rect_ContainsPoint@@YA_NPEAUrectDef_t@@MM@Z 00000000300326d0 f   ui_shared.obj
 0001:00031750       ?Menu_ItemsMatchingGroup@@YAHPEAUmenuDef_t@@PEBD@Z 0000000030032750 f   ui_shared.obj
 0001:000318d0       ?Menu_GetMatchingItemByNumber@@YAPEAUitemDef_s@@PEAUmenuDef_t@@HPEBD@Z 00000000300328d0 f   ui_shared.obj
 0001:00031a90       ?Script_SetColor@@YAXPEAUitemDef_s@@PEAPEAD@Z 0000000030032a90 f   ui_shared.obj
 0001:00031bc0       ?Script_SetAsset@@YAXPEAUitemDef_s@@PEAPEAD@Z 0000000030032bc0 f   ui_shared.obj
 0001:00031c00       ?Script_SetBackground@@YAXPEAUitemDef_s@@PEAPEAD@Z 0000000030032c00 f   ui_shared.obj
 0001:00031c50       ?Menu_FindItemByName@@YAPEAUitemDef_s@@PEAUmenuDef_t@@PEBD@Z 0000000030032c50 f   ui_shared.obj
 0001:00031ce0       ?Script_SetTeamColor@@YAXPEAUitemDef_s@@PEAPEAD@Z 0000000030032ce0 f   ui_shared.obj
 0001:00031d80       ?Script_SetItemColor@@YAXPEAUitemDef_s@@PEAPEAD@Z 0000000030032d80 f   ui_shared.obj
 0001:00031f50       ?Menu_ShowItemByName@@YAXPEAUmenuDef_t@@PEBD_N@Z 0000000030032f50 f   ui_shared.obj
 0001:00032030       ?Menu_FadeItemByName@@YAXPEAUmenuDef_t@@PEBD_N@Z 0000000030033030 f   ui_shared.obj
 0001:000321a0       ?Script_Show@@YAXPEAUitemDef_s@@PEAPEAD@Z 00000000300331a0 f   ui_shared.obj
 0001:000321f0       ?Script_Hide@@YAXPEAUitemDef_s@@PEAPEAD@Z 00000000300331f0 f   ui_shared.obj
 0001:00032240       ?Script_FadeIn@@YAXPEAUitemDef_s@@PEAPEAD@Z 0000000030033240 f   ui_shared.obj
 0001:00032290       ?Script_FadeOut@@YAXPEAUitemDef_s@@PEAPEAD@Z 0000000030033290 f   ui_shared.obj
 0001:000322e0       ?Script_Open@@YAXPEAUitemDef_s@@PEAPEAD@Z 00000000300332e0 f   ui_shared.obj
 0001:00032320       ?Script_Close@@YAXPEAUitemDef_s@@PEAPEAD@Z 0000000030033320 f   ui_shared.obj
 0001:00032360       ?Script_Clipboard@@YAXPEAUitemDef_s@@PEAPEAD@Z 0000000030033360 f   ui_shared.obj
 0001:000323d0       ?Script_NotebookShowpage@@YAXPEAUitemDef_s@@PEAPEAD@Z 00000000300333d0 f   ui_shared.obj
 0001:000326b0       ?Menu_TransitionItemByName@@YAXPEAUmenuDef_t@@PEBDUrectDef_t@@2HM@Z 00000000300336b0 f   ui_shared.obj
 0001:00032840       ?Script_Transition@@YAXPEAUitemDef_s@@PEAPEAD@Z 0000000030033840 f   ui_shared.obj
 0001:00032980       ?Menu_OrbitItemByName@@YAXPEAUmenuDef_t@@PEBDMMMMH@Z 0000000030033980 f   ui_shared.obj
 0001:00032a70       ?Script_Orbit@@YAXPEAUitemDef_s@@PEAPEAD@Z 0000000030033a70 f   ui_shared.obj
 0001:00032b60       ?Script_SetFocus@@YAXPEAUitemDef_s@@PEAPEAD@Z 0000000030033b60 f   ui_shared.obj
 0001:00032c60       ?Script_SetPlayerModel@@YAXPEAUitemDef_s@@PEAPEAD@Z 0000000030033c60 f   ui_shared.obj
 0001:00032cb0       ?Script_SetPlayerHead@@YAXPEAUitemDef_s@@PEAPEAD@Z 0000000030033cb0 f   ui_shared.obj
 0001:00032d00       ?Script_SetCvar@@YAXPEAUitemDef_s@@PEAPEAD@Z 0000000030033d00 f   ui_shared.obj
 0001:00032d60       ?Script_Exec@@YAXPEAUitemDef_s@@PEAPEAD@Z 0000000030033d60 f   ui_shared.obj
 0001:00032dc0       ?Script_Play@@YAXPEAUitemDef_s@@PEAPEAD@Z 0000000030033dc0 f   ui_shared.obj
 0001:00032e20       ?Script_playLooped@@YAXPEAUitemDef_s@@PEAPEAD@Z 0000000030033e20 f   ui_shared.obj
 0001:00032e70       ?Script_AddListItem@@YAXPEAUitemDef_s@@PEAPEAD@Z 0000000030033e70 f   ui_shared.obj
 0001:00032f40       ?Item_EnableShowViaCvar@@YA_NPEAUitemDef_s@@H@Z 0000000030033f40 f   ui_shared.obj
 0001:00033170       ?Item_SetFocus@@YA_NPEAUitemDef_s@@MM@Z 0000000030034170 f   ui_shared.obj
 0001:00033490       ?Item_ListBox_MaxScroll@@YAHPEAUitemDef_s@@@Z 0000000030034490 f   ui_shared.obj
 0001:00033560       ?Item_ListBox_ThumbPosition@@YAHPEAUitemDef_s@@@Z 0000000030034560 f   ui_shared.obj
 0001:00033710       ?Item_ListBox_ThumbDrawPosition@@YAHPEAUitemDef_s@@@Z 0000000030034710 f   ui_shared.obj
 0001:000338f0       ?Item_Slider_ThumbPosition@@YAMPEAUitemDef_s@@@Z 00000000300348f0 f   ui_shared.obj
 0001:00033a50       ?Item_Slider_OverSlider@@YAHPEAUitemDef_s@@MM@Z 0000000030034a50 f   ui_shared.obj
 0001:00033b10       ?Item_ListBox_OverLB@@YAHPEAUitemDef_s@@MM@Z 0000000030034b10 f   ui_shared.obj
 0001:00033f30       ?Item_ListBox_MouseEnter@@YAXPEAUitemDef_s@@MM@Z 0000000030034f30 f   ui_shared.obj
 0001:000341a0       ?Item_MouseEnter@@YAXPEAUitemDef_s@@MM@Z 00000000300351a0 f   ui_shared.obj
 0001:000343a0       ?Item_MouseLeave@@YAXPEAUitemDef_s@@@Z 00000000300353a0 f   ui_shared.obj
 0001:00034430       ?Menu_HitTest@@YAPEAUitemDef_s@@PEAUmenuDef_t@@MM@Z 0000000030035430 f   ui_shared.obj
 0001:000344c0       ?Item_SetMouseOver@@YAXPEAUitemDef_s@@_N@Z 00000000300354c0 f   ui_shared.obj
 0001:00034510       ?Item_OwnerDraw_HandleKey@@YA_NPEAUitemDef_s@@H@Z 0000000030035510 f   ui_shared.obj
 0001:00034580       ?Item_ListBox_HandleKey@@YA_NPEAUitemDef_s@@H_N1@Z 0000000030035580 f   ui_shared.obj
 0001:00034f20       ?Item_YesNo_HandleKey@@YA_NPEAUitemDef_s@@H@Z 0000000030035f20 f   ui_shared.obj
 0001:00035030       ?Item_Multi_CountSettings@@YAHPEAUitemDef_s@@@Z 0000000030036030 f   ui_shared.obj
 0001:00035070       ?Item_Multi_FindCvarByValue@@YAHPEAUitemDef_s@@@Z 0000000030036070 f   ui_shared.obj
 0001:000351c0       ?Item_Multi_Setting@@YAPEBDPEAUitemDef_s@@@Z 00000000300361c0 f   ui_shared.obj
 0001:00035320       ?Item_Multi_HandleKey@@YA_NPEAUitemDef_s@@H@Z 0000000030036320 f   ui_shared.obj
 0001:000354f0       ?Item_TextField_HandleKey@@YA_NPEAUitemDef_s@@H@Z 00000000300364f0 f   ui_shared.obj
 0001:00036320       ?Item_StartCapture@@YAXPEAUitemDef_s@@H@Z 0000000030037320 f   ui_shared.obj
 0001:00036580       ?Item_StopCapture@@YAXPEAUitemDef_s@@@Z 0000000030037580 f   ui_shared.obj
 0001:00036590       ?Item_Slider_HandleKey@@YA_NPEAUitemDef_s@@H_N@Z 0000000030037590 f   ui_shared.obj
 0001:000367f0       ?Item_HandleKey@@YA_NPEAUitemDef_s@@H_N@Z 00000000300377f0 f   ui_shared.obj
 0001:000369d0       ?Item_Action@@YAXPEAUitemDef_s@@@Z 00000000300379d0 f   ui_shared.obj
 0001:00036b80       ?Display_VisibleMenuCount@@YAHXZ 0000000030037b80 f   ui_shared.obj
 0001:00036bf0       ?Menus_HandleOOBClick@@YAXPEAUmenuDef_t@@H_N@Z 0000000030037bf0 f   ui_shared.obj
 0001:00036e30       ?ToWindowCoords@@YAXPEAM0PEAUwindowDef_t@@@Z 0000000030037e30 f   ui_shared.obj
 0001:00036ec0       ?Rect_ToWindowCoords@@YAXPEAUrectDef_t@@PEAUwindowDef_t@@@Z 0000000030037ec0 f   ui_shared.obj
 0001:00036f00       ?Item_SetTextExtents@@YAXPEAUitemDef_s@@PEAH1PEBD@Z 0000000030037f00 f   ui_shared.obj
 0001:00037310       ?Item_TextColor@@YAXPEAUitemDef_s@@PEAY03M@Z 0000000030038310 f   ui_shared.obj
 0001:00037790       ?Item_Text_AutoWrapped_Paint@@YAXPEAUitemDef_s@@@Z 0000000030038790 f   ui_shared.obj
 0001:00037ca0       ?Item_Text_Wrapped_Paint@@YAXPEAUitemDef_s@@@Z 0000000030038ca0 f   ui_shared.obj
 0001:00037fb0       ?Item_Text_Paint@@YAXPEAUitemDef_s@@@Z 0000000030038fb0 f   ui_shared.obj
 0001:000381f0       ?Item_TextField_Paint@@YAXPEAUitemDef_s@@@Z 00000000300391f0 f   ui_shared.obj
 0001:00038670       ?Item_YesNo_Paint@@YAXPEAUitemDef_s@@@Z 0000000030039670 f   ui_shared.obj
 0001:00038a80       ?Item_Multi_Paint@@YAXPEAUitemDef_s@@@Z 0000000030039a80 f   ui_shared.obj
 0001:00038ec0       ?BindingFromName@@YAXPEBD@Z 0000000030039ec0 f   ui_shared.obj
 0001:00039010       ?Item_Slider_Paint@@YAXPEAUitemDef_s@@@Z 000000003003a010 f   ui_shared.obj
 0001:00039350       ?Item_Bind_Paint@@YAXPEAUitemDef_s@@@Z 000000003003a350 f   ui_shared.obj
 0001:00039760       ?AdjustFrom640@@YAXPEAM000@Z 000000003003a760 f   ui_shared.obj
 0001:00039800       ?Item_Model_Paint@@YAXPEAUitemDef_s@@@Z 000000003003a800 f   ui_shared.obj
 0001:00039f30       ?Item_Image_Paint@@YAXPEAUitemDef_s@@@Z 000000003003af30 f   ui_shared.obj
 0001:00039fe0       ?Item_ListBox_Paint@@YAXPEAUitemDef_s@@@Z 000000003003afe0 f   ui_shared.obj
 0001:0003ad20       ?Item_OwnerDraw_Paint@@YAXPEAUitemDef_s@@@Z 000000003003bd20 f   ui_shared.obj
 0001:0003b6d0       ?Item_Paint@@YAXPEAUitemDef_s@@@Z 000000003003c6d0 f   ui_shared.obj
 0001:0003c0e0       ?Menu_GetFocusedItem@@YAPEAUitemDef_s@@PEAUmenuDef_t@@@Z 000000003003d0e0 f   ui_shared.obj
 0001:0003c150       ?Item_ValidateTypeData@@YAXPEAUitemDef_s@@@Z 000000003003d150 f   ui_shared.obj
 0001:0003c300       ?KeywordHash_Key@@YAHPEAD@Z 000000003003d300 f   ui_shared.obj
 0001:0003c3e0       ?KeywordHash_Add@@YAXQEAPEAUkeywordHash_s@@PEAU1@@Z 000000003003d3e0 f   ui_shared.obj
 0001:0003c440       ?KeywordHash_Find@@YAPEAUkeywordHash_s@@QEAPEAU1@PEAD@Z 000000003003d440 f   ui_shared.obj
 0001:0003c4c0       ?ItemParse_name@@YA_NPEAUitemDef_s@@H@Z 000000003003d4c0 f   ui_shared.obj
 0001:0003c500       ?ItemParse_focusSound@@YA_NPEAUitemDef_s@@H@Z 000000003003d500 f   ui_shared.obj
 0001:0003c550       ?ItemParse_text@@YA_NPEAUitemDef_s@@H@Z 000000003003d550 f   ui_shared.obj
 0001:0003c590       ?ItemParse_textfile@@YA_NPEAUitemDef_s@@H@Z 000000003003d590 f   ui_shared.obj
 0001:0003c620       ?ItemParse_textsavegame@@YA_NPEAUitemDef_s@@H@Z 000000003003d620 f   ui_shared.obj
 0001:0003c660       ?ItemParse_group@@YA_NPEAUitemDef_s@@H@Z 000000003003d660 f   ui_shared.obj
 0001:0003c6a0       ?ItemParse_asset_model@@YA_NPEAUitemDef_s@@H@Z 000000003003d6a0 f   ui_shared.obj
 0001:0003c720       ?ItemParse_asset_shader@@YA_NPEAUitemDef_s@@H@Z 000000003003d720 f   ui_shared.obj
 0001:0003c770       ?ItemParse_model_origin@@YA_NPEAUitemDef_s@@H@Z 000000003003d770 f   ui_shared.obj
 0001:0003c820       ?ItemParse_model_fovx@@YA_NPEAUitemDef_s@@H@Z 000000003003d820 f   ui_shared.obj
 0001:0003c880       ?ItemParse_model_fovy@@YA_NPEAUitemDef_s@@H@Z 000000003003d880 f   ui_shared.obj
 0001:0003c8e0       ?ItemParse_model_rotation@@YA_NPEAUitemDef_s@@H@Z 000000003003d8e0 f   ui_shared.obj
 0001:0003c940       ?ItemParse_model_angle@@YA_NPEAUitemDef_s@@H@Z 000000003003d940 f   ui_shared.obj
 0001:0003c9a0       ?ItemParse_model_animplay@@YA_NPEAUitemDef_s@@H@Z 000000003003d9a0 f   ui_shared.obj
 0001:0003cab0       ?ItemParse_rect@@YA_NPEAUitemDef_s@@H@Z 000000003003dab0 f   ui_shared.obj
 0001:0003caf0       ?ItemParse_style@@YA_NPEAUitemDef_s@@H@Z 000000003003daf0 f   ui_shared.obj
 0001:0003cb30       ?ItemParse_decoration@@YA_NPEAUitemDef_s@@H@Z 000000003003db30 f   ui_shared.obj
 0001:0003cb60       ?ItemParse_notselectable@@YA_NPEAUitemDef_s@@H@Z 000000003003db60 f   ui_shared.obj
 0001:0003cbc0       ?ItemParse_wrapped@@YA_NPEAUitemDef_s@@H@Z 000000003003dbc0 f   ui_shared.obj
 0001:0003cbf0       ?ItemParse_autowrapped@@YA_NPEAUitemDef_s@@H@Z 000000003003dbf0 f   ui_shared.obj
 0001:0003cc20       ?ItemParse_horizontalscroll@@YA_NPEAUitemDef_s@@H@Z 000000003003dc20 f   ui_shared.obj
 0001:0003cc50       ?ItemParse_type@@YA_NPEAUitemDef_s@@H@Z 000000003003dc50 f   ui_shared.obj
 0001:0003cca0       ?ItemParse_elementwidth@@YA_NPEAUitemDef_s@@H@Z 000000003003dca0 f   ui_shared.obj
 0001:0003cd00       ?ItemParse_elementheight@@YA_NPEAUitemDef_s@@H@Z 000000003003dd00 f   ui_shared.obj
 0001:0003cd60       ?ItemParse_feeder@@YA_NPEAUitemDef_s@@H@Z 000000003003dd60 f   ui_shared.obj
 0001:0003cda0       ?ItemParse_elementtype@@YA_NPEAUitemDef_s@@H@Z 000000003003dda0 f   ui_shared.obj
 0001:0003ce10       ?ItemParse_columns@@YA_NPEAUitemDef_s@@H@Z 000000003003de10 f   ui_shared.obj
 0001:0003cf50       ?ItemParse_border@@YA_NPEAUitemDef_s@@H@Z 000000003003df50 f   ui_shared.obj
 0001:0003cf90       ?ItemParse_bordersize@@YA_NPEAUitemDef_s@@H@Z 000000003003df90 f   ui_shared.obj
 0001:0003cfd0       ?ItemParse_visible@@YA_NPEAUitemDef_s@@H@Z 000000003003dfd0 f   ui_shared.obj
 0001:0003d020       ?ItemParse_ownerdraw@@YA_NPEAUitemDef_s@@H@Z 000000003003e020 f   ui_shared.obj
 0001:0003d070       ?ItemParse_align@@YA_NPEAUitemDef_s@@H@Z 000000003003e070 f   ui_shared.obj
 0001:0003d0b0       ?ItemParse_textalign@@YA_NPEAUitemDef_s@@H@Z 000000003003e0b0 f   ui_shared.obj
 0001:0003d0f0       ?ItemParse_textalignx@@YA_NPEAUitemDef_s@@H@Z 000000003003e0f0 f   ui_shared.obj
 0001:0003d130       ?ItemParse_textaligny@@YA_NPEAUitemDef_s@@H@Z 000000003003e130 f   ui_shared.obj
 0001:0003d170       ?ItemParse_textscale@@YA_NPEAUitemDef_s@@H@Z 000000003003e170 f   ui_shared.obj
 0001:0003d1b0       ?ItemParse_textstyle@@YA_NPEAUitemDef_s@@H@Z 000000003003e1b0 f   ui_shared.obj
 0001:0003d1f0       ?ItemParse_textfont@@YA_NPEAUitemDef_s@@H@Z 000000003003e1f0 f   ui_shared.obj
 0001:0003d230       ?ItemParse_backcolor@@YA_NPEAUitemDef_s@@H@Z 000000003003e230 f   ui_shared.obj
 0001:0003d2a0       ?ItemParse_forecolor@@YA_NPEAUitemDef_s@@H@Z 000000003003e2a0 f   ui_shared.obj
 0001:0003d320       ?ItemParse_bordercolor@@YA_NPEAUitemDef_s@@H@Z 000000003003e320 f   ui_shared.obj
 0001:0003d390       ?ItemParse_outlinecolor@@YA_NPEAUitemDef_s@@H@Z 000000003003e390 f   ui_shared.obj
 0001:0003d3d0       ?ItemParse_background@@YA_NPEAUitemDef_s@@H@Z 000000003003e3d0 f   ui_shared.obj
 0001:0003d420       ?ItemParse_cinematic@@YA_NPEAUitemDef_s@@H@Z 000000003003e420 f   ui_shared.obj
 0001:0003d460       ?ItemParse_doubleClick@@YA_NPEAUitemDef_s@@H@Z 000000003003e460 f   ui_shared.obj
 0001:0003d4d0       ?ItemParse_onFocus@@YA_NPEAUitemDef_s@@H@Z 000000003003e4d0 f   ui_shared.obj
 0001:0003d510       ?ItemParse_leaveFocus@@YA_NPEAUitemDef_s@@H@Z 000000003003e510 f   ui_shared.obj
 0001:0003d550       ?ItemParse_mouseEnter@@YA_NPEAUitemDef_s@@H@Z 000000003003e550 f   ui_shared.obj
 0001:0003d590       ?ItemParse_mouseExit@@YA_NPEAUitemDef_s@@H@Z 000000003003e590 f   ui_shared.obj
 0001:0003d5d0       ?ItemParse_mouseEnterText@@YA_NPEAUitemDef_s@@H@Z 000000003003e5d0 f   ui_shared.obj
 0001:0003d610       ?ItemParse_mouseExitText@@YA_NPEAUitemDef_s@@H@Z 000000003003e610 f   ui_shared.obj
 0001:0003d650       ?ItemParse_action@@YA_NPEAUitemDef_s@@H@Z 000000003003e650 f   ui_shared.obj
 0001:0003d690       ?ItemParse_accept@@YA_NPEAUitemDef_s@@H@Z 000000003003e690 f   ui_shared.obj
 0001:0003d6d0       ?ItemParse_special@@YA_NPEAUitemDef_s@@H@Z 000000003003e6d0 f   ui_shared.obj
 0001:0003d710       ?ItemParse_cvarTest@@YA_NPEAUitemDef_s@@H@Z 000000003003e710 f   ui_shared.obj
 0001:0003d750       ?ItemParse_cvar@@YA_NPEAUitemDef_s@@H@Z 000000003003e750 f   ui_shared.obj
 0001:0003d7f0       ?ItemParse_maxChars@@YA_NPEAUitemDef_s@@H@Z 000000003003e7f0 f   ui_shared.obj
 0001:0003d860       ?ItemParse_maxPaintChars@@YA_NPEAUitemDef_s@@H@Z 000000003003e860 f   ui_shared.obj
 0001:0003d8d0       ?ItemParse_cvarFloat@@YA_NPEAUitemDef_s@@H@Z 000000003003e8d0 f   ui_shared.obj
 0001:0003d990       ?ItemParse_cvarStrList@@YA_NPEAUitemDef_s@@H@Z 000000003003e990 f   ui_shared.obj
 0001:0003db70       ?ItemParse_cvarFloatList@@YA_NPEAUitemDef_s@@H@Z 000000003003eb70 f   ui_shared.obj
 0001:0003dd40       ?ParseColorRange@@YA_NPEAUitemDef_s@@HH@Z 000000003003ed40 f   ui_shared.obj
 0001:0003de60       ?ItemParse_addColorRangeRel@@YA_NPEAUitemDef_s@@H@Z 000000003003ee60 f   ui_shared.obj
 0001:0003de90       ?ItemParse_addColorRange@@YA_NPEAUitemDef_s@@H@Z 000000003003ee90 f   ui_shared.obj
 0001:0003dec0       ?ItemParse_ownerdrawFlag@@YA_NPEAUitemDef_s@@H@Z 000000003003eec0 f   ui_shared.obj
 0001:0003df10       ?ItemParse_enableCvar@@YA_NPEAUitemDef_s@@H@Z 000000003003ef10 f   ui_shared.obj
 0001:0003df60       ?ItemParse_disableCvar@@YA_NPEAUitemDef_s@@H@Z 000000003003ef60 f   ui_shared.obj
 0001:0003dfb0       ?ItemParse_showCvar@@YA_NPEAUitemDef_s@@H@Z 000000003003efb0 f   ui_shared.obj
 0001:0003e000       ?ItemParse_hideCvar@@YA_NPEAUitemDef_s@@H@Z 000000003003f000 f   ui_shared.obj
 0001:0003e050       ?Item_Parse@@YA_NHPEAUitemDef_s@@@Z 000000003003f050 f   ui_shared.obj
 0001:0003e1a0       ?Item_InitControls@@YAXPEAUitemDef_s@@@Z 000000003003f1a0 f   ui_shared.obj
 0001:0003e220       ?MenuParse_font@@YA_NPEAUitemDef_s@@H@Z 000000003003f220 f   ui_shared.obj
 0001:0003e2c0       ?MenuParse_name@@YA_NPEAUitemDef_s@@H@Z 000000003003f2c0 f   ui_shared.obj
 0001:0003e320       ?MenuParse_fullscreen@@YA_NPEAUitemDef_s@@H@Z 000000003003f320 f   ui_shared.obj
 0001:0003e370       ?MenuParse_rect@@YA_NPEAUitemDef_s@@H@Z 000000003003f370 f   ui_shared.obj
 0001:0003e3b0       ?MenuParse_style@@YA_NPEAUitemDef_s@@H@Z 000000003003f3b0 f   ui_shared.obj
 0001:0003e400       ?MenuParse_visible@@YA_NPEAUitemDef_s@@H@Z 000000003003f400 f   ui_shared.obj
 0001:0003e460       ?MenuParse_onOpen@@YA_NPEAUitemDef_s@@H@Z 000000003003f460 f   ui_shared.obj
 0001:0003e4b0       ?MenuParse_onClose@@YA_NPEAUitemDef_s@@H@Z 000000003003f4b0 f   ui_shared.obj
 0001:0003e500       ?MenuParse_onESC@@YA_NPEAUitemDef_s@@H@Z 000000003003f500 f   ui_shared.obj
 0001:0003e550       ?MenuParse_onROQDone@@YA_NPEAUitemDef_s@@H@Z 000000003003f550 f   ui_shared.obj
 0001:0003e5a0       ?MenuParse_border@@YA_NPEAUitemDef_s@@H@Z 000000003003f5a0 f   ui_shared.obj
 0001:0003e5f0       ?MenuParse_borderSize@@YA_NPEAUitemDef_s@@H@Z 000000003003f5f0 f   ui_shared.obj
 0001:0003e640       ?MenuParse_backcolor@@YA_NPEAUitemDef_s@@H@Z 000000003003f640 f   ui_shared.obj
 0001:0003e6c0       ?MenuParse_forecolor@@YA_NPEAUitemDef_s@@H@Z 000000003003f6c0 f   ui_shared.obj
 0001:0003e750       ?MenuParse_bordercolor@@YA_NPEAUitemDef_s@@H@Z 000000003003f750 f   ui_shared.obj
 0001:0003e7d0       ?MenuParse_focuscolor@@YA_NPEAUitemDef_s@@H@Z 000000003003f7d0 f   ui_shared.obj
 0001:0003e850       ?MenuParse_disablecolor@@YA_NPEAUitemDef_s@@H@Z 000000003003f850 f   ui_shared.obj
 0001:0003e8d0       ?MenuParse_outlinecolor@@YA_NPEAUitemDef_s@@H@Z 000000003003f8d0 f   ui_shared.obj
 0001:0003e920       ?MenuParse_background@@YA_NPEAUitemDef_s@@H@Z 000000003003f920 f   ui_shared.obj
 0001:0003e980       ?MenuParse_cinematic@@YA_NPEAUitemDef_s@@H@Z 000000003003f980 f   ui_shared.obj
 0001:0003e9d0       ?MenuParse_ownerdrawFlag@@YA_NPEAUitemDef_s@@H@Z 000000003003f9d0 f   ui_shared.obj
 0001:0003ea30       ?MenuParse_ownerdraw@@YA_NPEAUitemDef_s@@H@Z 000000003003fa30 f   ui_shared.obj
 0001:0003ea80       ?MenuParse_popup@@YA_NPEAUitemDef_s@@H@Z 000000003003fa80 f   ui_shared.obj
 0001:0003eac0       ?MenuParse_outOfBounds@@YA_NPEAUitemDef_s@@H@Z 000000003003fac0 f   ui_shared.obj
 0001:0003eb00       ?MenuParse_soundLoop@@YA_NPEAUitemDef_s@@H@Z 000000003003fb00 f   ui_shared.obj
 0001:0003eb50       ?MenuParse_fadeClamp@@YA_NPEAUitemDef_s@@H@Z 000000003003fb50 f   ui_shared.obj
 0001:0003eba0       ?MenuParse_fadeAmount@@YA_NPEAUitemDef_s@@H@Z 000000003003fba0 f   ui_shared.obj
 0001:0003ebf0       ?MenuParse_fadeCycle@@YA_NPEAUitemDef_s@@H@Z 000000003003fbf0 f   ui_shared.obj
 0001:0003ec40       ?MenuParse_itemDef@@YA_NPEAUitemDef_s@@H@Z 000000003003fc40 f   ui_shared.obj
 0001:0003ed50       ?MenuParse_execKey@@YA_NPEAUitemDef_s@@H@Z 000000003003fd50 f   ui_shared.obj
 0001:0003edd0       ?MenuParse_execKeyInt@@YA_NPEAUitemDef_s@@H@Z 000000003003fdd0 f   ui_shared.obj
 0001:0003ee40       ?Menu_Parse@@YA_NHPEAUmenuDef_t@@@Z 000000003003fe40 f   ui_shared.obj
 0001:000438c0       ??$sin@H$0A@@@YANH@Z       00000000300448c0 f i ui_shared.obj
 0001:000438e0       ?abs@@YAMM@Z               00000000300448e0 f i ui_shared.obj
 0001:00043900       ?cos@@YAMM@Z               0000000030044900 f i ui_shared.obj
 0001:00043920       ?floor@@YAMM@Z             0000000030044920 f i ui_shared.obj
 0001:00043940       ?sin@@YAMM@Z               0000000030044940 f i ui_shared.obj
 0001:00043960       fabsf                      0000000030044960 f i ui_shared.obj
 0001:00043990       ?CG_ConsoleCommand@@YA_NXZ 0000000030044990 f   cg_consolecmds.obj
 0001:00043a10       ?CG_InitConsoleCommands@@YAXXZ 0000000030044a10 f   cg_consolecmds.obj
 0001:00043b70       ?CG_StartCamera@@YAXPEBD_N@Z 0000000030044b70 f   cg_consolecmds.obj
 0001:00043cc0       ?CG_StopCamera@@YAXXZ      0000000030044cc0 f   cg_consolecmds.obj
 0001:00043d50       ?CG_LoadCamera@@YAHPEBD@Z  0000000030044d50 f   cg_consolecmds.obj
 0001:00043dd0       ?CG_FreeCamera@@YAXH@Z     0000000030044dd0 f   cg_consolecmds.obj
 0001:00043df0       ?CG_TargetCommand_f@@YAXXZ 0000000030044df0 f   cg_consolecmds.obj
 0001:00044740       ?CG_AddLagometerFrameInfo@@YAXXZ 0000000030045740 f   cg_draw.obj
 0001:00044790       ?CG_AddLagometerSnapshotInfo@@YAXPEAUsnapshot_t@@@Z 0000000030045790 f   cg_draw.obj
 0001:00044820       ?CG_CenterPrint@@YAXPEBDHH@Z 0000000030045820 f   cg_draw.obj
 0001:00044900       ?CG_ObjectivePrint@@YAXPEBDHH@Z 0000000030045900 f   cg_draw.obj
 0001:000449a0       ?CG_DrawHead@@YAXMMMMHQEAM@Z 00000000300459a0 f   cg_draw.obj
 0001:00044c90       ?CG_DrawActive@@YAXW4stereoFrame_t@@@Z 0000000030045c90 f   cg_draw.obj
 0001:00045050       ?CG_DrawFlagModel@@YAXMMMMH@Z 0000000030046050 f   cg_draw.obj
 0001:00045290       ?CG_DrawTeamBackground@@YAXHHHHMH@Z 0000000030046290 f   cg_draw.obj
 0001:000453d0       ?CG_Text_Paint@@YAXMMHMQEAMPEBDMHH@Z 00000000300463d0 f   cg_draw.obj
 0001:00045940       ?CG_Text_Width@@YAHPEBDHMH@Z 0000000030046940 f   cg_draw.obj
 0001:00045b30       ?CG_Text_Height@@YAHPEBDHMH@Z 0000000030046b30 f   cg_draw.obj
 0001:00045d20       ?CG_Draw3DModel@@YAXMMMMHHQEAM0@Z 0000000030046d20 f   cg_draw.obj
 0001:00045f50       ?CG_Text_PaintChar@@YAXMMMMMMMMMH@Z 0000000030046f50 f   cg_draw.obj
 0001:00046030       ?CG_Fade@@YAXHHHHHH@Z      0000000030047030 f   cg_draw.obj
 0001:00046190       ?CG_CalcShakeCamera@@YAXXZ 0000000030047190 f   cg_draw.obj
 0001:00046510       ?CG_ApplyShakeCamera@@YAXXZ 0000000030047510 f   cg_draw.obj
 0001:00046600       ?CG_StartShakeCamera@@YAXMHQEAMM@Z 0000000030047600 f   cg_draw.obj
 0001:000467b0       ?CG_DrawKeyModel@@YAXHMMMMH@Z 00000000300477b0 f   cg_draw.obj
 0001:00047ba0       ?CG_DrawHoldableItem_old@@YAXXZ 0000000030048ba0 f   cg_draw.obj
 0001:00049ee0       ?CG_CheckForCursorHints@@YAXXZ 000000003004aee0 f   cg_draw.obj
 0001:0004bac0       ?CG_DrawTimedMenus@@YAXXZ  000000003004cac0 f   cg_draw.obj
 0001:0004dd40       _vsprintf_l                000000003004ed40 f i cg_draw.obj
 0001:0004dda0       sprintf                    000000003004eda0 f i cg_draw.obj
 0001:0004de10       ?CG_AdjustFrom640@@YAXPEAM000@Z 000000003004ee10 f   cg_drawtools.obj
 0001:0004df80       ?CG_FillRect@@YAXMMMMPEBM@Z 000000003004ef80 f   cg_drawtools.obj
 0001:0004e030       ?CG_HorizontalPercentBar@@YAXMMMMM@Z 000000003004f030 f   cg_drawtools.obj
 0001:0004e150       ?CG_DrawPic@@YAXMMMMH@Z    000000003004f150 f   cg_drawtools.obj
 0001:0004e1f0       ?CG_FilledBar@@YAXMMMMPEBMPEAM0MH@Z 000000003004f1f0 f   cg_drawtools.obj
 0001:0004e990       ?CG_DrawStringExt@@YAXHHPEBDPEBM_N2HHH@Z 000000003004f990 f   cg_drawtools.obj
 0001:0004ecb0       ?CG_DrawStringExt2@@YAXHHPEBDPEBM_N2HHH@Z 000000003004fcb0 f   cg_drawtools.obj
 0001:0004efd0       ?CG_DrawBigString@@YAXHHPEBDM@Z 000000003004ffd0 f   cg_drawtools.obj
 0001:0004f0b0       ?CG_DrawBigStringColor@@YAXHHPEBDQEAM@Z 00000000300500b0 f   cg_drawtools.obj
 0001:0004f110       ?CG_DrawSmallString@@YAXHHPEBDM@Z 0000000030050110 f   cg_drawtools.obj
 0001:0004f1f0       ?CG_DrawSmallStringColor@@YAXHHPEBDQEAM@Z 00000000300501f0 f   cg_drawtools.obj
 0001:0004f250       ?CG_DrawBigString2@@YAXHHPEBDM@Z 0000000030050250 f   cg_drawtools.obj
 0001:0004f330       ?CG_DrawBigStringColor2@@YAXHHPEBDQEAM@Z 0000000030050330 f   cg_drawtools.obj
 0001:0004f390       ?CG_DrawStrlen@@YAHPEBD@Z  0000000030050390 f   cg_drawtools.obj
 0001:0004f420       ?CG_FadeColor@@YAPEAMHH@Z  0000000030050420 f   cg_drawtools.obj
 0001:0004f530       ?CG_TeamColor@@YAPEAMH@Z   0000000030050530 f   cg_drawtools.obj
 0001:0004f580       ?CG_TileClear@@YAXXZ       0000000030050580 f   cg_drawtools.obj
 0001:0004f6c0       ?CG_ColorForHealth@@YAXQEAM@Z 00000000300506c0 f   cg_drawtools.obj
 0001:0004f8c0       ?CG_GetColorForHealth@@YAXHHQEAM@Z 00000000300508c0 f   cg_drawtools.obj
 0001:0004faa0       ?UI_DrawProportionalString@@YAXHHPEBDHQEAM@Z 0000000030050aa0 f   cg_drawtools.obj
 0001:0004feb0       ?CG_DrawRect@@YAXMMMMMPEBM@Z 0000000030050eb0 f   cg_drawtools.obj
 0001:00050020       ?CG_DrawSides@@YAXMMMMM@Z  0000000030051020 f   cg_drawtools.obj
 0001:00050130       ?CG_DrawTopBottom@@YAXMMMMM@Z 0000000030051130 f   cg_drawtools.obj
 0001:00050240       ?CG_FillRectGradient@@YAXMMMMPEBM0H@Z 0000000030051240 f   cg_drawtools.obj
 0001:00050310       ?CG_DrawChar@@YAXHHHHH@Z   0000000030051310 f   cg_drawtools.obj
 0001:00050470       ?CG_DrawChar2@@YAXHHHHH@Z  0000000030051470 f   cg_drawtools.obj
 0001:000505d0       ?CG_DrawStringExt3@@YAXHHPEBDPEBM_N2HHH@Z 00000000300515d0 f   cg_drawtools.obj
 0001:00050d10       ?UI_DrawBannerString@@YAXHHPEBDHQEAM@Z 0000000030051d10 f   cg_drawtools.obj
 0001:00050ed0       ?UI_ProportionalStringWidth@@YAHPEBD@Z 0000000030051ed0 f   cg_drawtools.obj
 0001:00051220       ?UI_ProportionalSizeScale@@YAMH@Z 0000000030052220 f   cg_drawtools.obj
 0001:00051f70       ?CG_GetOriginForTag@@YAHPEAUcentity_s@@PEAUrefEntity_t@@PEADHQEAMQEAY02M@Z 0000000030052f70 f   cg_effects.obj
 0001:00052200       ?CG_SmokePuff@@YAPEAUlocalEntity_s@@QEBM0MMMMMMHHHH@Z 0000000030053200 f   cg_effects.obj
 0001:000526d0       ?CG_BubbleTrail@@YAXQEAM0MM@Z 00000000300536d0 f   cg_effects.obj
 0001:00052da0       ?CG_SpawnEffect@@YAXQEAM@Z 0000000030053da0 f   cg_effects.obj
 0001:00052fb0       ?CG_GibPlayer@@YAXPEAUcentity_s@@QEAM1@Z 0000000030053fb0 f   cg_effects.obj
 0001:00055820       ?CG_LoseHat@@YAXPEAUcentity_s@@QEAM@Z 0000000030056820 f   cg_effects.obj
 0001:00055e40       ?CG_GibHead@@YAXQEAM@Z     0000000030056e40 f   cg_effects.obj
 0001:000561b0       ?CG_Bleed@@YAXQEAMH@Z      00000000300571b0 f   cg_effects.obj
 0001:00056a50       ?CG_MakeExplosion@@YAPEAUlocalEntity_s@@QEAM0HHH_N@Z 0000000030057a50 f   cg_effects.obj
 0001:000570a0       ?CG_DynamicLightningBolt@@YAXHQEAM0HM_NMHH@Z 00000000300580a0 f   cg_effects.obj
 0001:00058960       ?CG_SparklerSparks@@YAXQEAMH@Z 0000000030059960 f   cg_effects.obj
 0001:00058cd0       ?CG_ProjectedSpotLight@@YAXQEAM0@Z 0000000030059cd0 f   cg_effects.obj
 0001:00058fc0       ?CG_Spotlight@@YAXPEAUcentity_s@@PEAMQEAM2HMHMH@Z 0000000030059fc0 f   cg_effects.obj
 0001:0005be80       ?CG_RumbleEfx@@YAXMM@Z     000000003005ce80 f   cg_effects.obj
 0001:0005c180       ?CG_AddBloodTrails@@YAXQEAM0HHHM@Z 000000003005d180 f   cg_effects.obj
 0001:0005c840       ?CG_LaunchGib@@YAXPEAUcentity_s@@QEAM11HMH@Z 000000003005d840 f   cg_effects.obj
 0001:0005cfb0       ?lt_random@@YAMHH@Z        000000003005dfb0 f   cg_effects.obj
 0001:0005d040       ?lt_crandom@@YAMHH@Z       000000003005e040 f   cg_effects.obj
 0001:0005fd40       ?CG_SetEntitySoundPosition@@YAXPEAUcentity_s@@@Z 0000000030060d40 f   cg_ents.obj
 0001:0005fe90       ?CG_AddPacketEntities@@YAXXZ 0000000030060e90 f   cg_ents.obj
 0001:00060260       ?CG_Beam@@YAXPEAUcentity_s@@@Z 0000000030061260 f   cg_ents.obj
 0001:000603d0       ?CG_AdjustPositionForMover@@YAXQEBMHHHQEAM1@Z 00000000300613d0 f   cg_ents.obj
 0001:000608b0       ?CG_PositionEntityOnTag@@YAXPEAUrefEntity_t@@PEBU1@PEADHPEAY02M@Z 00000000300618b0 f   cg_ents.obj
 0001:00060be0       ?CG_PositionRotatedEntityOnTag@@YAXPEAUrefEntity_t@@PEBU1@PEAD@Z 0000000030061be0 f   cg_ents.obj
 0001:00060e80       ?CG_AttachedPartChange@@YAXPEAUcentity_s@@@Z 0000000030061e80 f   cg_ents.obj
 0001:00060f70       ?CG_NextItem_f@@YAXXZ      0000000030061f70 f   cg_ents.obj
 0001:00061030       ?CG_PrevItem_f@@YAXXZ      0000000030062030 f   cg_ents.obj
 0001:000610f0       ?CG_Item_f@@YAXXZ          00000000300620f0 f   cg_ents.obj
 0001:00061140       ?CG_DrawHoldableSelect@@YAXXZ 0000000030062140 f   cg_ents.obj
 0001:00061590       ?CG_HoldableUsedupChange@@YAXXZ 0000000030062590 f   cg_ents.obj
 0001:000615d0       ?CG_LoseArmor@@YAXPEAUcentity_s@@H@Z 00000000300625d0 f   cg_ents.obj
 0001:00062360       ?CG_AddLightstyle@@YAXPEAUcentity_s@@@Z 0000000030063360 f   cg_ents.obj
 0001:00063350       ?CG_PlayerSeesItem@@YA_NPEAUplayerState_s@@PEAUentityState_s@@HH@Z 0000000030064350 f   cg_ents.obj
 0001:00068d10       ?CG_FlamethrowerProp@@YAXPEAUcentity_s@@@Z 0000000030069d10 f   cg_ents.obj
 0001:00068dc0       ?CG_ProcessRumble@@YAXPEAUcentity_s@@@Z 0000000030069dc0 f   cg_ents.obj
 0001:0006bf90       ?CG_CheckEvents@@YAXPEAUcentity_s@@@Z 000000003006cf90 f   cg_event.obj
 0001:0006c180       ?CG_PlaceString@@YAPEBDH@Z 000000003006d180 f   cg_event.obj
 0001:0006c320       ?CG_EntityEvent@@YAXPEAUcentity_s@@QEAM@Z 000000003006d320 f   cg_event.obj
 0001:00070110       ?CG_PainEvent@@YAXPEAUcentity_s@@H_N@Z 0000000030071110 f   cg_event.obj
 0001:00071290       ?CG_Explodef@@YAXQEAM0HHHHHH_N@Z 0000000030072290 f   cg_event.obj
 0001:000727f0       ?CG_Explode@@YAXPEAUcentity_s@@QEAM1H@Z 00000000300737f0 f   cg_event.obj
 0001:000729a0       ?CG_Effect@@YAXPEAUcentity_s@@QEAM1@Z 00000000300739a0 f   cg_event.obj
 0001:00073960       ?CG_Shard@@YAXPEAUcentity_s@@QEAM1@Z 0000000030074960 f   cg_event.obj
 0001:000740a0       ?CG_ShardJunk@@YAXPEAUcentity_s@@QEAM1@Z 00000000300750a0 f   cg_event.obj
 0001:00074530       ?CG_BatDeath@@YAXPEAUcentity_s@@@Z 0000000030075530 f   cg_event.obj
 0001:00074580       ?CG_SpawnSpirit@@YAXPEAUcentity_s@@@Z 0000000030075580 f   cg_event.obj
 0001:00076d80       ?CG_FireFlameChunks@@YAXPEAUcentity_s@@QEAM1M_NH@Z 0000000030077d80 f   cg_flamethrower.obj
 0001:000783c0       ?CG_InitFlameChunks@@YAXXZ 00000000300793c0 f   cg_flamethrower.obj
 0001:000784b0       ?CG_AddFlameChunks@@YAXXZ  00000000300794b0 f   cg_flamethrower.obj
 0001:00078890       ?CG_UpdateFlamethrowerSounds@@YAXXZ 0000000030079890 f   cg_flamethrower.obj
 0001:00078c70       ?CG_FlameDamage@@YAXHQEAMM@Z 0000000030079c70 f   cg_flamethrower.obj
 0001:00079060       ?CG_ClearFlameChunks@@YAXXZ 000000003007a060 f   cg_flamethrower.obj
 0001:000791c0       ?CG_SpawnFlameChunk@@YAPEAUflameChunk_s@@PEAU1@@Z 000000003007a1c0 f   cg_flamethrower.obj
 0001:000793d0       ?CG_FlameCalcOrg@@YAXPEAUflameChunk_s@@HQEAM@Z 000000003007a3d0 f   cg_flamethrower.obj
 0001:000795f0       ?CG_FlameLerpVec@@YAXQEBM0MQEAM@Z 000000003007a5f0 f   cg_flamethrower.obj
 0001:000797d0       ?CG_FlameAdjustSpeed@@YAXPEAUflameChunk_s@@M@Z 000000003007a7d0 f   cg_flamethrower.obj
 0001:00079850       ?CG_FreeFlameChunk@@YAXPEAUflameChunk_s@@@Z 000000003007a850 f   cg_flamethrower.obj
 0001:000799d0       ?CG_MergeFlameChunks@@YAXPEAUflameChunk_s@@0@Z 000000003007a9d0 f   cg_flamethrower.obj
 0001:00079ba0       ?CG_AdjustFlameSize@@YAXPEAUflameChunk_s@@H@Z 000000003007aba0 f   cg_flamethrower.obj
 0001:00079d20       ?CG_MoveFlameChunk@@YAXPEAUflameChunk_s@@H@Z 000000003007ad20 f   cg_flamethrower.obj
 0001:0007a4c0       ?CG_AddFlameSpriteToScene@@YAXPEAUflameChunk_s@@MM@Z 000000003007b4c0 f   cg_flamethrower.obj
 0001:0007d6e0       ?CG_AddFlameToScene@@YAXPEAUflameChunk_s@@@Z 000000003007e6e0 f   cg_flamethrower.obj
 0001:0007f1a0       ?CG_GenerateShaders@@YAXPEAD00H000_N1@Z 00000000300801a0 f   cg_flamethrower.obj
 0001:00081670       ?CG_LoadingString@@YAXPEBD@Z 0000000030082670 f   cg_info.obj
 0001:000816f0       ?CG_LoadingItem@@YAXH@Z    00000000300826f0 f   cg_info.obj
 0001:000817b0       ?CG_LoadingClient@@YAXH@Z  00000000300827b0 f   cg_info.obj
 0001:00081920       ?CG_DrawInformation@@YAXXZ 0000000030082920 f   cg_info.obj
 0001:00082310       ?CG_DrawStats@@YAXPEAD@Z   0000000030083310 f   cg_info.obj
 0001:000826c0       ?CG_DrawExitStats@@YAXXZ   00000000300836c0 f   cg_info.obj
 0001:00083cf0       ?CG_InitLocalEntities@@YAXXZ 0000000030084cf0 f   cg_localents.obj
 0001:00083da0       ?CG_AllocLocalEntity@@YAPEAUlocalEntity_s@@XZ 0000000030084da0 f   cg_localents.obj
 0001:00083e50       ?CG_AddLocalEntities@@YAXXZ 0000000030084e50 f   cg_localents.obj
 0001:00084010       ?CG_FreeLocalEntity@@YAXPEAUlocalEntity_s@@@Z 0000000030085010 f   cg_localents.obj
 0001:00084090       ?CG_BloodTrail@@YAXPEAUlocalEntity_s@@@Z 0000000030085090 f   cg_localents.obj
 0001:00084310       ?CG_FragmentBounceMark@@YAXPEAUlocalEntity_s@@PEAUtrace_t@@@Z 0000000030085310 f   cg_localents.obj
 0001:00084490       ?CG_FragmentBounceSound@@YAXPEAUlocalEntity_s@@PEAUtrace_t@@@Z 0000000030085490 f   cg_localents.obj
 0001:000845f0       ?CG_ReflectVelocity@@YAXPEAUlocalEntity_s@@PEAUtrace_t@@@Z 00000000300855f0 f   cg_localents.obj
 0001:000849f0       ?CG_AddEmitter@@YAXPEAUlocalEntity_s@@@Z 00000000300859f0 f   cg_localents.obj
 0001:00084f00       ?CG_AddFragment@@YAXPEAUlocalEntity_s@@@Z 0000000030085f00 f   cg_localents.obj
 0001:00086b20       ?CG_AddMovingTracer@@YAXPEAUlocalEntity_s@@@Z 0000000030087b20 f   cg_localents.obj
 0001:00086c60       ?CG_AddSparkElements@@YAXPEAUlocalEntity_s@@@Z 0000000030087c60 f   cg_localents.obj
 0001:00087000       ?CG_AddFuseSparkElements@@YAXPEAUlocalEntity_s@@@Z 0000000030088000 f   cg_localents.obj
 0001:00087260       ?CG_AddBloodElements@@YAXPEAUlocalEntity_s@@@Z 0000000030088260 f   cg_localents.obj
 0001:00087580       ?CG_AddSpiritViewflash@@YAXPEAUlocalEntity_s@@@Z 0000000030088580 f   cg_localents.obj
 0001:00087690       ?CG_AddClientCritter@@YAXPEAUlocalEntity_s@@@Z 0000000030088690 f   cg_localents.obj
 0001:000897f0       ?CG_AddDebrisElements@@YAXPEAUlocalEntity_s@@@Z 000000003008a7f0 f   cg_localents.obj
 0001:00089bf0       ?CG_AddShrapnel@@YAXPEAUlocalEntity_s@@@Z 000000003008abf0 f   cg_localents.obj
 0001:0008a010       ?CG_AddFadeRGB@@YAXPEAUlocalEntity_s@@@Z 000000003008b010 f   cg_localents.obj
 0001:0008c960       ?Com_Error@@YAXHPEBDZZ     000000003008d960 f   cg_main.obj
 0001:0008c9f0       ?Com_Printf@@YAXPEBDZZ     000000003008d9f0 f   cg_main.obj
 0001:0008ca80       ?CG_ConfigString@@YAPEBDH@Z 000000003008da80 f   cg_main.obj
 0001:0008cae0       ?CG_Argv@@YAPEBDH@Z        000000003008dae0 f   cg_main.obj
 0001:0008cb10       ?CG_Printf@@YAXPEBDZZ      000000003008db10 f   cg_main.obj
 0001:0008cba0       ?CG_Error@@YAXPEBDZZ       000000003008dba0 f   cg_main.obj
 0001:0008cc30       ?CG_StartMusic@@YAXXZ      000000003008dc30 f   cg_main.obj
 0001:0008cce0       ?CG_QueueMusic@@YAXXZ      000000003008dce0 f   cg_main.obj
 0001:0008cd60       ?CG_UpdateCvars@@YAXXZ     000000003008dd60 f   cg_main.obj
 0001:0008cdc0       ?CG_CrosshairPlayer@@YAHXZ 000000003008ddc0 f   cg_main.obj
 0001:0008cdf0       ?CG_LastAttacker@@YAHXZ    000000003008ddf0 f   cg_main.obj
 0001:0008ce20       ?CG_LoadMenus@@YAXPEBD@Z   000000003008de20 f   cg_main.obj
 0001:0008d010       ?CG_translateString@@YAPEBDPEBD@Z 000000003008e010 f   cg_main.obj
 0001:0008d110       ?CG_Init@@YAXHH@Z          000000003008e110 f   cg_main.obj
 0001:0008d3d0       ?CG_Shutdown@@YAXXZ        000000003008e3d0 f   cg_main.obj
 0001:0008d3e0       ?vmMain@@YAHHHHHHHHHHHHHH@Z 000000003008e3e0 f   cg_main.obj
 0001:0008d550       ?CG_RegisterCvars@@YAXXZ   000000003008e550 f   cg_main.obj
 0001:0008d680       ?CG_SetupDlightstyles@@YAXXZ 000000003008e680 f   cg_main.obj
 0001:0008ff30       ?CG_GetMenuBuffer@@YAPEADPEBD@Z 0000000030090f30 f   cg_main.obj
 0001:00090010       ?CG_Asset_Parse@@YA_NH@Z   0000000030091010 f   cg_main.obj
 0001:000905a0       ?CG_ParseMenu@@YAXPEBD@Z   00000000300915a0 f   cg_main.obj
 0001:000906a0       ?CG_Load_Menu@@YA_NPEAPEAD@Z 00000000300916a0 f   cg_main.obj
 0001:00090c10       ?CG_Text_PaintWithCursor@@YAXMMHMQEAMPEBDHDHH@Z 0000000030091c10 f   cg_main.obj
 0001:00090e50       ?CG_LoadHudMenu@@YAXXZ     0000000030091e50 f   cg_main.obj
 0001:00091140       ?CG_AssetCache@@YAXXZ      0000000030092140 f   cg_main.obj
 0001:00092540       ?CG_InitMarkPolys@@YAXXZ   0000000030093540 f   cg_marks.obj
 0001:00092600       ?CG_AddMarks@@YAXXZ        0000000030093600 f   cg_marks.obj
 0001:00092ba0       ?CG_ImpactMark@@YAXHQEBM0MMMMM_NM1H@Z 0000000030093ba0 f   cg_marks.obj
 0001:000936d0       ?CG_FreeMarkPoly@@YAXPEAUmarkPoly_s@@@Z 00000000300946d0 f   cg_marks.obj
 0001:00093740       ?CG_AllocMark@@YAPEAUmarkPoly_s@@H@Z 0000000030094740 f   cg_marks.obj
 0001:00093cb0       ?CG_KeyEvent@@YAXH_N@Z     0000000030094cb0 f   cg_newDraw.obj
 0001:00093d60       ?CG_MouseEvent@@YAXHH@Z    0000000030094d60 f   cg_newDraw.obj
 0001:00093ea0       ?CG_EventHandling@@YAXH@Z  0000000030094ea0 f   cg_newDraw.obj
 0001:00093ee0       ?CG_OwnerDraw@@YAXMMMMMMHHHMHMQEAMHH@Z 0000000030094ee0 f   cg_newDraw.obj
 0001:00094c00       ?CG_SelectPrevPlayer@@YAXXZ 0000000030095c00 f   cg_newDraw.obj
 0001:00094c50       ?CG_SelectNextPlayer@@YAXXZ 0000000030095c50 f   cg_newDraw.obj
 0001:00094ca0       ?CG_GetValue@@YAMHH@Z      0000000030095ca0 f   cg_newDraw.obj
 0001:00095000       ?CG_OwnerDrawVisible@@YA_NH@Z 0000000030096000 f   cg_newDraw.obj
 0001:00095270       ?CG_RunMenuScript@@YAXPEAPEAD@Z 0000000030096270 f   cg_newDraw.obj
 0001:00095280       ?CG_ShowResponseHead@@YAXXZ 0000000030096280 f   cg_newDraw.obj
 0001:000952c0       ?CG_SetPrintString@@YAXHPEBD@Z 00000000300962c0 f   cg_newDraw.obj
 0001:00095320       ?CG_InitTeamChat@@YAXXZ    0000000030096320 f   cg_newDraw.obj
 0001:00095330       ?CG_GetTeamColor@@YAXPEAY03M@Z 0000000030096330 f   cg_newDraw.obj
 0001:000954a0       ?CG_GetGameStatusText@@YAPEBDXZ 00000000300964a0 f   cg_newDraw.obj
 0001:00095640       ?CG_GetKillerText@@YAPEBDXZ 0000000030096640 f   cg_newDraw.obj
 0001:00095680       ?CG_CheckOrderPending@@YAXXZ 0000000030096680 f   cg_newDraw.obj
 0001:00095690       ?CG_GameTypeString@@YAPEBDXZ 0000000030096690 f   cg_newDraw.obj
 0001:000956e0       ?CG_YourTeamHasFlag@@YA_NXZ 00000000300966e0 f   cg_newDraw.obj
 0001:000956f0       ?CG_OtherTeamHasFlag@@YA_NXZ 00000000300966f0 f   cg_newDraw.obj
 0001:00095700       ?CG_StatusHandle@@YAHH@Z   0000000030096700 f   cg_newDraw.obj
 0001:000957d0       ?CG_GetSelectedPlayer@@YAHXZ 00000000300967d0 f   cg_newDraw.obj
 0001:00097b30       ?flubfoo@@YAXXZ            0000000030098b30 f   cg_newDraw.obj
 0001:00099840       ?CG_DrawNewTeamInfo@@YAXPEAUrectDef_t@@MMHMQEAMH@Z 000000003009a840 f   cg_newDraw.obj
 0001:00099860       ?CG_DrawTeamSpectators@@YAXPEAUrectDef_t@@HMQEAMH@Z 000000003009a860 f   cg_newDraw.obj
 0001:00099bc0       ?CG_DrawMedal@@YAXHPEAUrectDef_t@@HMQEAMH@Z 000000003009abc0 f   cg_newDraw.obj
 0001:00099f80       ?CG_DrawWeapStability@@YAXPEAUrectDef_t@@QEAMH@Z 000000003009af80 f   cg_newDraw.obj
 0001:0009a0e0       ?CG_DrawWeapHeat@@YAXPEAUrectDef_t@@H@Z 000000003009b0e0 f   cg_newDraw.obj
 0001:0009a630       ?CG_HideTeamMenu@@YAXXZ    000000003009b630 f   cg_newDraw.obj
 0001:0009a660       ?CG_ShowTeamMenu@@YAXXZ    000000003009b660 f   cg_newDraw.obj
 0001:0009a680       ?CG_ClientNumFromName@@YAHPEBD@Z 000000003009b680 f   cg_newDraw.obj
 0001:0009c1a0       ?CG_NewParticleArea@@YAHH@Z 000000003009d1a0 f   cg_particles.obj
 0001:0009c460       ?CG_ClearParticles@@YAXXZ  000000003009d460 f   cg_particles.obj
 0001:0009c610       ?CG_AddParticles@@YAXXZ    000000003009d610 f   cg_particles.obj
 0001:0009cdb0       ?CG_ParticleSnow@@YAXHQEAM0HMH@Z 000000003009ddb0 f   cg_particles.obj
 0001:0009d270       ?CG_ParticleSmoke@@YAXHPEAUcentity_s@@@Z 000000003009e270 f   cg_particles.obj
 0001:0009df70       ?CG_AddParticleShrapnel@@YAXPEAUlocalEntity_s@@@Z 000000003009ef70 f   cg_particles.obj
 0001:0009df80       ?CG_ParticleSnowFlurry@@YAXHPEAUcentity_s@@@Z 000000003009ef80 f   cg_particles.obj
 0001:0009e530       ?CG_ParticleBulletDebris@@YAXQEAM0H@Z 000000003009f530 f   cg_particles.obj
 0001:0009e810       ?CG_ParticleDirtBulletDebris@@YAXQEAM0H@Z 000000003009f810 f   cg_particles.obj
 0001:0009eb20       ?CG_ParticleDirtBulletDebris_Core@@YAXQEAM0HMMMPEAD@Z 000000003009fb20 f   cg_particles.obj
 0001:0009edd0       ?CG_ParticleSparks@@YAXQEAM0HMMM@Z 000000003009fdd0 f   cg_particles.obj
 0001:0009f370       ?CG_ParticleDust@@YAXPEAUcentity_s@@QEAM1@Z 00000000300a0370 f   cg_particles.obj
 0001:0009fbb0       ?CG_ParticleMisc@@YAXHQEAMHHM@Z 00000000300a0bb0 f   cg_particles.obj
 0001:0009fdb0       ?CG_ParticleExplosion@@YAXPEADQEAM1HHH@Z 00000000300a0db0 f   cg_particles.obj
 0001:000a0110       ?CG_SnowLink@@YAXPEAUcentity_s@@_N@Z 00000000300a1110 f   cg_particles.obj
 0001:000a01b0       ?CG_ParticleBat@@YAXPEAUcentity_s@@@Z 00000000300a11b0 f   cg_particles.obj
 0001:000a0410       ?CG_ParticleBats@@YAXHPEAUcentity_s@@@Z 00000000300a1410 f   cg_particles.obj
 0001:000a0840       ?CG_BatsUpdatePosition@@YAXPEAUcentity_s@@@Z 00000000300a1840 f   cg_particles.obj
 0001:000a0a80       ?CG_ParticleImpactSmokePuff@@YAXHQEAM@Z 00000000300a1a80 f   cg_particles.obj
 0001:000a0af0       ?CG_ParticleImpactSmokePuffExtended@@YAXHQEAM0HHHHHM@Z 00000000300a1af0 f   cg_particles.obj
 0001:000a0e80       ?CG_Particle_Bleed@@YAXHQEAM0HH@Z 00000000300a1e80 f   cg_particles.obj
 0001:000a1160       ?CG_Particle_OilParticle@@YAXHQEAM0HH@Z 00000000300a2160 f   cg_particles.obj
 0001:000a14d0       ?CG_Particle_OilSlick@@YAXHPEAUcentity_s@@@Z 00000000300a24d0 f   cg_particles.obj
 0001:000a1910       ?CG_OilSlickRemove@@YAXPEAUcentity_s@@@Z 00000000300a2910 f   cg_particles.obj
 0001:000a19d0       ?CG_BloodPool@@YAXPEAUlocalEntity_s@@HPEAUtrace_t@@@Z 00000000300a29d0 f   cg_particles.obj
 0001:000a1d40       ?CG_ParticleBloodCloudZombie@@YAXPEAUcentity_s@@QEAM1@Z 00000000300a2d40 f   cg_particles.obj
 0001:000a24c0       ?CG_ParticleBloodCloud@@YAXPEAUcentity_s@@QEAM1@Z 00000000300a34c0 f   cg_particles.obj
 0001:000a2a70       ?CG_ParticleLODCheck@@YA_NXZ 00000000300a3a70 f   cg_particles.obj
 0001:000a2ab0       ?CG_AddParticleToScene@@YAXPEAUparticle_s@@QEAMM@Z 00000000300a3ab0 f   cg_particles.obj
 0001:000ac1f0       ?CG_ParticleBubble@@YAXHQEAM0HMH@Z 00000000300ad1f0 f   cg_particles.obj
 0001:000ac750       ?ValidBloodPool@@YA_NQEAM@Z 00000000300ad750 f   cg_particles.obj
 0001:000b0f30       ?CG_GetTag@@YA_NHPEADPEAUorientation_t@@@Z 00000000300b1f30 f   cg_players.obj
 0001:000b12b0       ?CG_GetWeaponTag@@YA_NHPEADPEAUorientation_t@@@Z 00000000300b22b0 f   cg_players.obj
 0001:000b1650       ?CG_EntOnFire@@YA_NPEAUcentity_s@@@Z 00000000300b2650 f   cg_players.obj
 0001:000b16a0       ?CG_Player@@YAXPEAUcentity_s@@@Z 00000000300b26a0 f   cg_players.obj
 0001:000b3a40       ?CG_ResetPlayerEntity@@YAXPEAUcentity_s@@@Z 00000000300b4a40 f   cg_players.obj
 0001:000b3dc0       ?CG_AddRefEntityWithPowerups@@YAXPEAUrefEntity_t@@HHPEAUentityState_s@@QEBM@Z 00000000300b4dc0 f   cg_players.obj
 0001:000b44f0       ?CG_NewClientInfo@@YAXH@Z  00000000300b54f0 f   cg_players.obj
 0001:000b4850       ?CG_CustomSound@@YAHHPEBD@Z 00000000300b5850 f   cg_players.obj
 0001:000b4940       ?CG_LoadDeferredPlayers@@YAXXZ 00000000300b5940 f   cg_players.obj
 0001:000b49e0       ?CG_GetBleedOrigin@@YAXQEAM00H@Z 00000000300b59e0 f   cg_players.obj
 0001:000b4e40       ?CG_LoadClientInfo@@YAXPEAUclientInfo_t@@@Z 00000000300b5e40 f   cg_players.obj
 0001:000b52c0       ?CG_IsCrouchingAnim@@YA_NPEAUclientInfo_t@@H@Z 00000000300b62c0 f   cg_players.obj
 0001:000b5470       ?CG_CalcMoveSpeeds@@YAXPEAUclientInfo_t@@@Z 00000000300b6470 f   cg_players.obj
 0001:000b6140       ?CG_CheckForExistingModelInfo@@YA_NPEAUclientInfo_t@@PEADPEAPEAUanimModelInfo_t@@@Z 00000000300b7140 f   cg_players.obj
 0001:000b9880       ?CG_RunLerpFrame@@YAXPEAUclientInfo_t@@PEAUlerpFrame_t@@HM@Z 00000000300ba880 f   cg_players.obj
 0001:000b9bc0       ?CG_SetLerpFrameAnimationRate@@YAXPEAUcentity_s@@PEAUclientInfo_t@@PEAUlerpFrame_t@@H@Z 00000000300babc0 f   cg_players.obj
 0001:000b9f00       ?CG_RunLerpFrameRate@@YAXPEAUclientInfo_t@@PEAUlerpFrame_t@@HPEAUcentity_s@@H@Z 00000000300baf00 f   cg_players.obj
 0001:000baa00       ?CG_ClearLerpFrameRate@@YAXPEAUclientInfo_t@@PEAUlerpFrame_t@@HPEAUcentity_s@@@Z 00000000300bba00 f   cg_players.obj
 0001:000beec0       ?CG_SpawnZombieSpirit@@YAXQEAM0HHPEAUrefEntity_t@@HH@Z 00000000300bfec0 f   cg_players.obj
 0001:000bf0e0       ?CG_AddZombieSpiritEffect@@YAXPEAUcentity_s@@@Z 00000000300c00e0 f   cg_players.obj
 0001:000c0f20       ?CG_SpawnZombieBat@@YAXPEAUcentity_s@@PEAUrefEntity_t@@@Z 00000000300c1f20 f   cg_players.obj
 0001:000c1260       ?CG_AddZombieFlameEffect@@YAXPEAUcentity_s@@@Z 00000000300c2260 f   cg_players.obj
 0001:000c1640       ?CG_AddZombieFlameShort@@YAXPEAUcentity_s@@@Z 00000000300c2640 f   cg_players.obj
 0001:000c17f0       ?CG_AddLoperLightningEffect@@YAXPEAUcentity_s@@@Z 00000000300c27f0 f   cg_players.obj
 0001:000c25f0       ?CG_AddLoperGroundEffect@@YAXPEAUcentity_s@@@Z 00000000300c35f0 f   cg_players.obj
 0001:000c2e30       ?CG_SpawnHelgaSpirit@@YAXQEAM0HHPEAUrefEntity_t@@HH@Z 00000000300c3e30 f   cg_players.obj
 0001:000c3070       ?CG_AddHelgaSpiritEffect@@YAXPEAUcentity_s@@@Z 00000000300c4070 f   cg_players.obj
 0001:000c4d00       ?vtosf@@YAPEADQEBM@Z       00000000300c5d00 f   cg_players.obj
 0001:000c4e40       ?CG_AnimPlayerConditions@@YAXPEAUcentity_s@@@Z 00000000300c5e40 f   cg_players.obj
 0001:000c5040       ?CG_DeadSink@@YAXPEAUcentity_s@@@Z 00000000300c6040 f   cg_players.obj
 0001:000ca170       ?strchr@@YAPEADQEADH@Z     00000000300cb170 f i cg_players.obj
 0001:000ca1a0       ?CG_Respawn@@YAXXZ         00000000300cb1a0 f   cg_playerstate.obj
 0001:000ca270       ?CG_TransitionPlayerState@@YAXPEAUplayerState_s@@0@Z 00000000300cb270 f   cg_playerstate.obj
 0001:000ca430       ?CG_CheckAmmo@@YAXXZ       00000000300cb430 f   cg_playerstate.obj
 0001:000ca550       ?CG_DamageFeedback@@YAXHHH@Z 00000000300cb550 f   cg_playerstate.obj
 0001:000cad30       ?CG_CheckPlayerstateEvents_wolf@@YAXPEAUplayerState_s@@0@Z 00000000300cbd30 f   cg_playerstate.obj
 0001:000cae20       ?CG_CheckPlayerstateEvents@@YAXPEAUplayerState_s@@0@Z 00000000300cbe20 f   cg_playerstate.obj
 0001:000cafe0       ?CG_CheckChangedPredictableEvents@@YAXPEAUplayerState_s@@@Z 00000000300cbfe0 f   cg_playerstate.obj
 0001:000cb110       ?CG_CheckLocalSounds@@YAXPEAUplayerState_s@@0@Z 00000000300cc110 f   cg_playerstate.obj
 0001:000cbc30       ?CG_BuildSolidList@@YAXXZ  00000000300ccc30 f   cg_predict.obj
 0001:000cbda0       ?CG_PointContents@@YAHQEBMH@Z 00000000300ccda0 f   cg_predict.obj
 0001:000cbe90       ?CG_Trace@@YAXPEAUtrace_t@@QEBM111HH@Z 00000000300cce90 f   cg_predict.obj
 0001:000cbfc0       ?CG_PredictPlayerState@@YAXXZ 00000000300ccfc0 f   cg_predict.obj
 0001:000cce90       ?CG_TraceCapsule@@YAXPEAUtrace_t@@QEBM111HH@Z 00000000300cde90 f   cg_predict.obj
 0001:000cdf00       ?CG_DrawScoreboard@@YA_NXZ 00000000300cef00 f   cg_scoreboard.obj
 0001:000ce600       ?CG_DrawTourneyScoreboard@@YAXXZ 00000000300cf600 f   cg_scoreboard.obj
 0001:000cfa30       ?WM_DrawObjectives@@YAHHHHM@Z 00000000300d0a30 f   cg_scoreboard.obj
 0001:000cfe30       ?WM_ScoreboardOverlay@@YAHHHM@Z 00000000300d0e30 f   cg_scoreboard.obj
 0001:000d0e80       ?CG_ExecuteNewServerCommands@@YAXH@Z 00000000300d1e80 f   cg_servercmds.obj
 0001:000d0ed0       ?CG_ParseServerinfo@@YAXXZ 00000000300d1ed0 f   cg_servercmds.obj
 0001:000d10e0       ?CG_SetConfigValues@@YAXXZ 00000000300d20e0 f   cg_servercmds.obj
 0001:000d1150       ?CG_ShaderStateChanged@@YAXXZ 00000000300d2150 f   cg_servercmds.obj
 0001:000d1370       ?CG_SendMoveSpeed@@YAXPEAUanimation_s@@HPEAD@Z 00000000300d2370 f   cg_servercmds.obj
 0001:000d2610       ?CG_RequestMoveSpeed@@YAXPEBD@Z 00000000300d3610 f   cg_servercmds.obj
 0001:000d3750       ?CG_ProcessSnapshots@@YAXXZ 00000000300d4750 f   cg_snapshot.obj
 0001:000d3e40       ?CG_SetInitialSnapshot@@YAXPEAUsnapshot_t@@@Z 00000000300d4e40 f   cg_snapshot.obj
 0001:000d4cb0       ?CG_SoundScriptPrecache@@YAHPEBD@Z 00000000300d5cb0 f   cg_sound.obj
 0001:000d4e30       ?CG_SoundPlaySoundScript@@YA_NPEBDQEAMH@Z 00000000300d5e30 f   cg_sound.obj
 0001:000d4ef0       ?CG_SoundPlayIndexedScript@@YAXHQEAMH@Z 00000000300d5ef0 f   cg_sound.obj
 0001:000d4f60       ?CG_SoundInit@@YAXXZ       00000000300d5f60 f   cg_sound.obj
 0001:000d50a0       ?CG_SoundPickOldestRandomSound@@YAXPEAUsoundScript_s@@QEAMH@Z 00000000300d60a0 f   cg_sound.obj
 0001:000d6000       ?trap_Print@@YAXPEBD@Z     00000000300d7000 f   cg_syscalls.obj
 0001:000d6030       ?trap_Error@@YAXPEBD@Z     00000000300d7030 f   cg_syscalls.obj
 0001:000d6060       ?trap_Milliseconds@@YAHXZ  00000000300d7060 f   cg_syscalls.obj
 0001:000d6080       ?trap_Cvar_Register@@YAXPEAUvmCvar_t@@PEBD1H@Z 00000000300d7080 f   cg_syscalls.obj
 0001:000d60d0       ?trap_Cvar_Update@@YAXPEAUvmCvar_t@@@Z 00000000300d70d0 f   cg_syscalls.obj
 0001:000d6100       ?trap_Cvar_Set@@YAXPEBD0@Z 00000000300d7100 f   cg_syscalls.obj
 0001:000d6130       ?trap_Cvar_VariableStringBuffer@@YAXPEBDPEADH@Z 00000000300d7130 f   cg_syscalls.obj
 0001:000d6170       ?trap_Argc@@YAHXZ          00000000300d7170 f   cg_syscalls.obj
 0001:000d6190       ?trap_Argv@@YAXHPEADH@Z    00000000300d7190 f   cg_syscalls.obj
 0001:000d61d0       ?trap_Args@@YAXPEADH@Z     00000000300d71d0 f   cg_syscalls.obj
 0001:000d6200       ?trap_FS_FOpenFile@@YAHPEBDPEAHW4fsMode_t@@@Z 00000000300d7200 f   cg_syscalls.obj
 0001:000d6240       ?trap_FS_Read@@YAXPEAXHH@Z 00000000300d7240 f   cg_syscalls.obj
 0001:000d6280       ?trap_FS_Write@@YAXPEBXHH@Z 00000000300d7280 f   cg_syscalls.obj
 0001:000d62c0       ?trap_FS_FCloseFile@@YAXH@Z 00000000300d72c0 f   cg_syscalls.obj
 0001:000d62f0       ?trap_SendConsoleCommand@@YAXPEBD@Z 00000000300d72f0 f   cg_syscalls.obj
 0001:000d6320       ?trap_AddCommand@@YAXPEBD@Z 00000000300d7320 f   cg_syscalls.obj
 0001:000d6350       ?trap_SendClientCommand@@YAXPEBD@Z 00000000300d7350 f   cg_syscalls.obj
 0001:000d6380       ?trap_UpdateScreen@@YAXXZ  00000000300d7380 f   cg_syscalls.obj
 0001:000d63a0       ?trap_CM_LoadMap@@YAXPEBD@Z 00000000300d73a0 f   cg_syscalls.obj
 0001:000d63d0       ?trap_CM_NumInlineModels@@YAHXZ 00000000300d73d0 f   cg_syscalls.obj
 0001:000d63f0       ?trap_CM_InlineModel@@YAHH@Z 00000000300d73f0 f   cg_syscalls.obj
 0001:000d6420       ?trap_CM_TempBoxModel@@YAHQEBM0@Z 00000000300d7420 f   cg_syscalls.obj
 0001:000d6450       ?trap_CM_TempCapsuleModel@@YAHQEBM0@Z 00000000300d7450 f   cg_syscalls.obj
 0001:000d6480       ?trap_CM_PointContents@@YAHQEBMH@Z 00000000300d7480 f   cg_syscalls.obj
 0001:000d64b0       ?trap_CM_TransformedPointContents@@YAHQEBMH00@Z 00000000300d74b0 f   cg_syscalls.obj
 0001:000d6500       ?trap_CM_BoxTrace@@YAXPEAUtrace_t@@QEBM111HH@Z 00000000300d7500 f   cg_syscalls.obj
 0001:000d6570       ?trap_CM_TransformedBoxTrace@@YAXPEAUtrace_t@@QEBM111HH11@Z 00000000300d7570 f   cg_syscalls.obj
 0001:000d6600       ?trap_CM_CapsuleTrace@@YAXPEAUtrace_t@@QEBM111HH@Z 00000000300d7600 f   cg_syscalls.obj
 0001:000d6670       ?trap_CM_TransformedCapsuleTrace@@YAXPEAUtrace_t@@QEBM111HH11@Z 00000000300d7670 f   cg_syscalls.obj
 0001:000d6700       ?trap_CM_MarkFragments@@YAHHPEAY02$$CBMQEBMHQEAMHPEAUmarkFragment_t@@@Z 00000000300d7700 f   cg_syscalls.obj
 0001:000d6770       ?trap_S_StartSound@@YAXQEAMHHH@Z 00000000300d7770 f   cg_syscalls.obj
 0001:000d67c0       ?trap_S_StartSoundEx@@YAXQEAMHHHH@Z 00000000300d77c0 f   cg_syscalls.obj
 0001:000d6810       ?trap_S_StopLoopingSound@@YAXH@Z 00000000300d7810 f   cg_syscalls.obj
 0001:000d6840       ?trap_S_StopStreamingSound@@YAXH@Z 00000000300d7840 f   cg_syscalls.obj
 0001:000d6870       ?trap_S_StartLocalSound@@YAXHH@Z 00000000300d7870 f   cg_syscalls.obj
 0001:000d68a0       ?trap_S_ClearLoopingSounds@@YAX_N@Z 00000000300d78a0 f   cg_syscalls.obj
 0001:000d68d0       ?trap_S_AddLoopingSound@@YAXHQEBM0HH@Z 00000000300d78d0 f   cg_syscalls.obj
 0001:000d6930       ?trap_S_AddRangedLoopingSound@@YAXHQEBM0HH@Z 00000000300d7930 f   cg_syscalls.obj
 0001:000d6990       ?trap_S_AddRealLoopingSound@@YAXHQEBM0H@Z 00000000300d7990 f   cg_syscalls.obj
 0001:000d69b0       ?trap_S_UpdateEntityPosition@@YAXHQEBM@Z 00000000300d79b0 f   cg_syscalls.obj
 0001:000d69e0       ?trap_S_GetVoiceAmplitude@@YAHH@Z 00000000300d79e0 f   cg_syscalls.obj
 0001:000d6a10       ?trap_S_Respatialize@@YAXHQEBMQEAY02MH@Z 00000000300d7a10 f   cg_syscalls.obj
 0001:000d6a60       ?trap_S_RegisterSound@@YAHPEBD@Z 00000000300d7a60 f   cg_syscalls.obj
 0001:000d6a90       ?trap_S_StartBackgroundTrack@@YAXPEBD0H@Z 00000000300d7a90 f   cg_syscalls.obj
 0001:000d6ad0       ?trap_S_StopBackgroundTrack@@YAXXZ 00000000300d7ad0 f   cg_syscalls.obj
 0001:000d6af0       ?trap_S_FadeBackgroundTrack@@YAXMHH@Z 00000000300d7af0 f   cg_syscalls.obj
 0001:000d6b30       ?trap_S_StartStreamingSound@@YAXPEBD0HHH@Z 00000000300d7b30 f   cg_syscalls.obj
 0001:000d6b80       ?trap_S_FadeAllSound@@YAXMH@Z 00000000300d7b80 f   cg_syscalls.obj
 0001:000d6bc0       ?trap_R_LoadWorldMap@@YAXPEBD@Z 00000000300d7bc0 f   cg_syscalls.obj
 0001:000d6bf0       ?trap_R_RegisterModel@@YAHPEBD@Z 00000000300d7bf0 f   cg_syscalls.obj
 0001:000d6c20       ?trap_R_RegisterSkin@@YAHPEBD@Z 00000000300d7c20 f   cg_syscalls.obj
 0001:000d6c50       ?trap_R_RegisterShader@@YAHPEBD@Z 00000000300d7c50 f   cg_syscalls.obj
 0001:000d6c80       ?trap_R_RegisterShaderNoMip@@YAHPEBD@Z 00000000300d7c80 f   cg_syscalls.obj
 0001:000d6cb0       ?trap_R_GetSkinModel@@YA_NHPEBDPEAD@Z 00000000300d7cb0 f   cg_syscalls.obj
 0001:000d6d00       ?trap_R_GetShaderFromModel@@YAHHHH@Z 00000000300d7d00 f   cg_syscalls.obj
 0001:000d6d40       ?trap_R_ClearScene@@YAXXZ  00000000300d7d40 f   cg_syscalls.obj
 0001:000d6d60       ?trap_R_AddRefEntityToScene@@YAXPEBUrefEntity_t@@@Z 00000000300d7d60 f   cg_syscalls.obj
 0001:000d6d90       ?trap_R_AddPolyToScene@@YAXHHPEBUpolyVert_t@@@Z 00000000300d7d90 f   cg_syscalls.obj
 0001:000d6dd0       ?trap_R_AddPolysToScene@@YAXHHPEBUpolyVert_t@@H@Z 00000000300d7dd0 f   cg_syscalls.obj
 0001:000d6e20       ?trap_RB_ZombieFXAddNewHit@@YAXHQEBM0@Z 00000000300d7e20 f   cg_syscalls.obj
 0001:000d6e60       ?trap_R_AddLightToScene@@YAXQEBMMMMMH@Z 00000000300d7e60 f   cg_syscalls.obj
 0001:000d6f00       ?trap_R_AddCoronaToScene@@YAXQEBMMMMMHH@Z 00000000300d7f00 f   cg_syscalls.obj
 0001:000d6fb0       ?trap_R_RenderScene@@YAXPEBUrefdef_t@@@Z 00000000300d7fb0 f   cg_syscalls.obj
 0001:000d6fe0       ?trap_R_SetColor@@YAXPEBM@Z 00000000300d7fe0 f   cg_syscalls.obj
 0001:000d7010       ?trap_R_DrawStretchPic@@YAXMMMMMMMMH@Z 00000000300d8010 f   cg_syscalls.obj
 0001:000d7120       ?trap_R_DrawStretchPicGradient@@YAXMMMMMMMMHPEBMH@Z 00000000300d8120 f   cg_syscalls.obj
 0001:000d7240       ?trap_R_ModelBounds@@YAXHQEAM0@Z 00000000300d8240 f   cg_syscalls.obj
 0001:000d7280       ?trap_R_LerpTag@@YAHPEAUorientation_t@@PEBUrefEntity_t@@PEBDH@Z 00000000300d8280 f   cg_syscalls.obj
 0001:000d72d0       ?trap_R_RemapShader@@YAXPEBD00@Z 00000000300d82d0 f   cg_syscalls.obj
 0001:000d7310       ?trap_R_SetFog@@YAXHHHMMMM@Z 00000000300d8310 f   cg_syscalls.obj
 0001:000d73b0       ?trap_GetGlconfig@@YAXPEAUglconfig_t@@@Z 00000000300d83b0 f   cg_syscalls.obj
 0001:000d73e0       ?trap_GetGameState@@YAXPEAUgameState_t@@@Z 00000000300d83e0 f   cg_syscalls.obj
 0001:000d7410       ?trap_GetCurrentSnapshotNumber@@YAXPEAH0@Z 00000000300d8410 f   cg_syscalls.obj
 0001:000d7440       ?trap_GetSnapshot@@YA_NHPEAUsnapshot_t@@@Z 00000000300d8440 f   cg_syscalls.obj
 0001:000d7490       ?trap_GetServerCommand@@YA_NH@Z 00000000300d8490 f   cg_syscalls.obj
 0001:000d74d0       ?trap_GetCurrentCmdNumber@@YAHXZ 00000000300d84d0 f   cg_syscalls.obj
 0001:000d74f0       ?trap_GetUserCmd@@YA_NHPEAUusercmd_s@@@Z 00000000300d84f0 f   cg_syscalls.obj
 0001:000d7540       ?trap_SetUserCmdValue@@YAXHHMH@Z 00000000300d8540 f   cg_syscalls.obj
 0001:000d7590       ?testPrintInt@@YAXPEADH@Z  00000000300d8590 f   cg_syscalls.obj
 0001:000d75c0       ?testPrintFloat@@YAXPEADM@Z 00000000300d85c0 f   cg_syscalls.obj
 0001:000d7600       ?trap_MemoryRemaining@@YAHXZ 00000000300d8600 f   cg_syscalls.obj
 0001:000d7620       ?trap_R_RegisterFont@@YAXPEBDHPEAUfontInfo_t@@@Z 00000000300d8620 f   cg_syscalls.obj
 0001:000d7660       ?trap_Key_IsDown@@YA_NH@Z  00000000300d8660 f   cg_syscalls.obj
 0001:000d76a0       ?trap_Key_GetCatcher@@YAHXZ 00000000300d86a0 f   cg_syscalls.obj
 0001:000d76c0       ?trap_Key_SetCatcher@@YAXH@Z 00000000300d86c0 f   cg_syscalls.obj
 0001:000d76f0       ?trap_Key_GetKey@@YAHPEBD@Z 00000000300d86f0 f   cg_syscalls.obj
 0001:000d7720       ?trap_SendMoveSpeedsToGame@@YAXHPEAD@Z 00000000300d8720 f   cg_syscalls.obj
 0001:000d7750       ?trap_UI_Popup@@YAXPEBD@Z  00000000300d8750 f   cg_syscalls.obj
 0001:000d7780       ?trap_UI_ClosePopup@@YAXPEBD@Z 00000000300d8780 f   cg_syscalls.obj
 0001:000d77b0       ?trap_UI_LimboChat@@YAXPEBD@Z 00000000300d87b0 f   cg_syscalls.obj
 0001:000d77e0       ?trap_CIN_PlayCinematic@@YAHPEBDHHHHH@Z 00000000300d87e0 f   cg_syscalls.obj
 0001:000d7840       ?trap_CIN_StopCinematic@@YA?AW4e_status@@H@Z 00000000300d8840 f   cg_syscalls.obj
 0001:000d7870       ?trap_CIN_RunCinematic@@YA?AW4e_status@@H@Z 00000000300d8870 f   cg_syscalls.obj
 0001:000d78a0       ?trap_CIN_DrawCinematic@@YAXH@Z 00000000300d88a0 f   cg_syscalls.obj
 0001:000d78d0       ?trap_CIN_SetExtents@@YAXHHHHH@Z 00000000300d88d0 f   cg_syscalls.obj
 0001:000d7920       ?trap_SnapVector@@YAXPEAM@Z 00000000300d8920 f   cg_syscalls.obj
 0001:000d7950       ?trap_GetEntityToken@@YA_NPEADH@Z 00000000300d8950 f   cg_syscalls.obj
 0001:000d79a0       ?trap_loadCamera@@YA_NHPEBD@Z 00000000300d89a0 f   cg_syscalls.obj
 0001:000d79f0       ?trap_startCamera@@YAXHH@Z 00000000300d89f0 f   cg_syscalls.obj
 0001:000d7a20       ?trap_stopCamera@@YAXH@Z   00000000300d8a20 f   cg_syscalls.obj
 0001:000d7a50       ?trap_getCameraInfo@@YA_NHHPEAY02M0PEAM@Z 00000000300d8a50 f   cg_syscalls.obj
 0001:000d7ac0       ?trap_GetModelInfo@@YA_NHPEADPEAPEAUanimModelInfo_t@@@Z 00000000300d8ac0 f   cg_syscalls.obj
 0001:000d7b10       ?dllEntry@@YAXP6AHHZZ@Z    00000000300d8b10 f   cg_syscalls.obj
 0001:000d7b30       ?PASSFLOAT@@YAHM@Z         00000000300d8b30 f   cg_syscalls.obj
 0001:000d7b60       ?trap_PC_AddGlobalDefine@@YAHPEAD@Z 00000000300d8b60 f   cg_syscalls.obj
 0001:000d7b90       ?trap_PC_LoadSource@@YAHPEBD@Z 00000000300d8b90 f   cg_syscalls.obj
 0001:000d7bc0       ?trap_PC_FreeSource@@YAHH@Z 00000000300d8bc0 f   cg_syscalls.obj
 0001:000d7bf0       ?trap_PC_ReadToken@@YAHHPEAUpc_token_s@@@Z 00000000300d8bf0 f   cg_syscalls.obj
 0001:000d7c20       ?trap_PC_SourceFileAndLine@@YAHHPEADPEAH@Z 00000000300d8c20 f   cg_syscalls.obj
 0001:000d7c60       ?trap_RealTime@@YAHPEAUqtime_s@@@Z 00000000300d8c60 f   cg_syscalls.obj
 0001:000d83a0       ?CG_AddTrailJunc@@YAHHHHHQEAMHMMMMH00MM@Z 00000000300d93a0 f   cg_trails.obj
 0001:000d8770       ?CG_AddSparkJunc@@YAHHHQEAMHMMMM@Z 00000000300d9770 f   cg_trails.obj
 0001:000d8a70       ?CG_AddSmokeJunc@@YAHHHQEAMHMMM@Z 00000000300d9a70 f   cg_trails.obj
 0001:000d8d30       ?CG_AddTrails@@YAXXZ       00000000300d9d30 f   cg_trails.obj
 0001:000d93b0       ?CG_ClearTrails@@YAXXZ     00000000300da3b0 f   cg_trails.obj
 0001:000d94f0       ?CG_SpawnTrailJunc@@YAPEAUtrailJunc_s@@PEAU1@@Z 00000000300da4f0 f   cg_trails.obj
 0001:000d96b0       ?CG_KillTrail@@YAXPEAUtrailJunc_s@@@Z 00000000300da6b0 f   cg_trails.obj
 0001:000d9700       ?CG_FreeTrailJunc@@YAXPEAUtrailJunc_s@@@Z 00000000300da700 f   cg_trails.obj
 0001:000d9870       ?CG_AddTrailToScene@@YAXPEAUtrailJunc_s@@HH@Z 00000000300da870 f   cg_trails.obj
 0001:000ddab0       ?CG_TestModel_f@@YAXXZ     00000000300deab0 f   cg_view.obj
 0001:000ddd20       ?CG_TestGun_f@@YAXXZ       00000000300ded20 f   cg_view.obj
 0001:000ddd50       ?CG_TestModelNextFrame_f@@YAXXZ 00000000300ded50 f   cg_view.obj
 0001:000ddd80       ?CG_TestModelPrevFrame_f@@YAXXZ 00000000300ded80 f   cg_view.obj
 0001:000dddd0       ?CG_TestModelNextSkin_f@@YAXXZ 00000000300dedd0 f   cg_view.obj
 0001:000dde00       ?CG_TestModelPrevSkin_f@@YAXXZ 00000000300dee00 f   cg_view.obj
 0001:000dde50       ?CG_ZoomIn_f@@YAXXZ        00000000300dee50 f   cg_view.obj
 0001:000ddf50       ?CG_ZoomOut_f@@YAXXZ       00000000300def50 f   cg_view.obj
 0001:000de030       ?CG_DrawActiveFrame@@YAXHW4stereoFrame_t@@_N@Z 00000000300df030 f   cg_view.obj
 0001:000de310       ?CG_Concussive@@YAXPEAUcentity_s@@@Z 00000000300df310 f   cg_view.obj
 0001:000df740       ?CG_KickAngles@@YAXXZ      00000000300e0740 f   cg_view.obj
 0001:000e0b00       ?CG_AdjustZoomVal@@YAXMH@Z 00000000300e1b00 f   cg_view.obj
 0001:000e0bd0       ?CG_Zoom@@YAXXZ            00000000300e1bd0 f   cg_view.obj
 0001:000e26d0       ?CG_DrawSkyBoxPortal@@YAXXZ 00000000300e36d0 f   cg_view.obj
 0001:000e4460       ?CG_LastWeaponUsed_f@@YAXXZ 00000000300e5460 f   cg_weapons.obj
 0001:000e4500       ?CG_NextWeaponInBank_f@@YAXXZ 00000000300e5500 f   cg_weapons.obj
 0001:000e4580       ?CG_PrevWeaponInBank_f@@YAXXZ 00000000300e5580 f   cg_weapons.obj
 0001:000e4600       ?CG_AltWeapon_f@@YAXXZ     00000000300e5600 f   cg_weapons.obj
 0001:000e47d0       ?CG_NextWeapon_f@@YAXXZ    00000000300e57d0 f   cg_weapons.obj
 0001:000e4880       ?CG_PrevWeapon_f@@YAXXZ    00000000300e5880 f   cg_weapons.obj
 0001:000e4930       ?CG_Weapon_f@@YAXXZ        00000000300e5930 f   cg_weapons.obj
 0001:000e4b00       ?CG_WeaponBank_f@@YAXXZ    00000000300e5b00 f   cg_weapons.obj
 0001:000e4d00       ?CG_WeaponSuggest@@YAXH@Z  00000000300e5d00 f   cg_weapons.obj
 0001:000e4d60       ?CG_FinishWeaponChange@@YAXHH@Z 00000000300e5d60 f   cg_weapons.obj
 0001:000e4e30       ?CG_RegisterWeapon@@YAXH@Z 00000000300e5e30 f   cg_weapons.obj
 0001:000e6910       ?CG_RegisterItemVisuals@@YAXH@Z 00000000300e7910 f   cg_weapons.obj
 0001:000e6b70       ?CG_FireWeapon@@YAXPEAUcentity_s@@@Z 00000000300e7b70 f   cg_weapons.obj
 0001:000e7290       ?CG_MissileHitWall@@YAXHHQEAM0H@Z 00000000300e8290 f   cg_weapons.obj
 0001:000e9650       ?CG_MissileHitWallSmall@@YAXHHQEAM0@Z 00000000300ea650 f   cg_weapons.obj
 0001:000e9bd0       ?CG_DrawTracer@@YAXQEAM0@Z 00000000300eabd0 f   cg_weapons.obj
 0001:000ea780       ?CG_MG42EFX@@YAXPEAUcentity_s@@@Z 00000000300eb780 f   cg_weapons.obj
 0001:000eaa30       ?CG_FLAKEFX@@YAXPEAUcentity_s@@H@Z 00000000300eba30 f   cg_weapons.obj
 0001:000eb6c0       ?CG_MortarEFX@@YAXPEAUcentity_s@@@Z 00000000300ec6c0 f   cg_weapons.obj
 0001:000eb850       ?CG_MonsterUsingWeapon@@YA_NPEAUcentity_s@@HH@Z 00000000300ec850 f   cg_weapons.obj
 0001:000eb8b0       ?CG_MissileHitPlayer@@YAXPEAUcentity_s@@HQEAM1H@Z 00000000300ec8b0 f   cg_weapons.obj
 0001:000eb9d0       ?CG_VenomFire@@YAXPEAUentityState_s@@_N@Z 00000000300ec9d0 f   cg_weapons.obj
 0001:000ebd50       ?CG_Bullet@@YAXQEAMH0_NH1H@Z 00000000300ecd50 f   cg_weapons.obj
 0001:000ecf20       ?CG_RailTrail@@YAXPEAUclientInfo_t@@QEAM1H@Z 00000000300edf20 f   cg_weapons.obj
 0001:000ed540       ?CG_AddViewWeapon@@YAXPEAUplayerState_s@@@Z 00000000300ee540 f   cg_weapons.obj
 0001:000edc90       ?CG_AddPlayerWeapon@@YAXPEAUrefEntity_t@@PEAUplayerState_s@@PEAUcentity_s@@@Z 00000000300eec90 f   cg_weapons.obj
 0001:000ef490       ?CG_DrawWeaponSelect@@YAXXZ 00000000300f0490 f   cg_weapons.obj
 0001:000efbe0       ?CG_OutOfAmmoChange@@YAXXZ 00000000300f0be0 f   cg_weapons.obj
 0001:000efd10       ?CG_AddDebris@@YAXQEAM0HHH@Z 00000000300f0d10 f   cg_weapons.obj
 0001:000f04f0       ?CG_ClientDamage@@YAXHHH@Z 00000000300f14f0 f   cg_weapons.obj
 0001:000f0590       ?CG_AddBulletParticles@@YAXQEAM0HHHM@Z 00000000300f1590 f   cg_weapons.obj
 0001:000f0aa0       ?getEquivWeapon@@YAHH@Z    00000000300f1aa0 f   cg_weapons.obj
 0001:000f0b70       ?CG_WeaponIndex@@YAHHPEAH0@Z 00000000300f1b70 f   cg_weapons.obj
 0001:000f2920       ?CG_SpearTrail@@YAXPEAUcentity_s@@PEBUweaponInfo_s@@@Z 00000000300f3920 f   cg_weapons.obj
 0001:000f2a10       ?CG_PyroSmokeTrail@@YAXPEAUcentity_s@@PEBUweaponInfo_s@@@Z 00000000300f3a10 f   cg_weapons.obj
 0001:000f3260       ?CG_RocketTrail@@YAXPEAUcentity_s@@PEBUweaponInfo_s@@@Z 00000000300f4260 f   cg_weapons.obj
 0001:000f3d40       ?CG_RailTrail2@@YAXPEAUclientInfo_t@@QEAM1@Z 00000000300f4d40 f   cg_weapons.obj
 0001:000f4520       ?CG_GetPartFramesFromWeap@@YA_NPEAUcentity_s@@PEAUrefEntity_t@@1HPEAUweaponInfo_s@@@Z 00000000300f5520 f   cg_weapons.obj
 0001:000f4740       ?CG_ClearWeapLerpFrame@@YAXPEAUweaponInfo_s@@PEAUlerpFrame_t@@H@Z 00000000300f5740 f   cg_weapons.obj
 0001:000f5ad0       ?CG_DrawRealWeapons@@YA_NPEAUcentity_s@@@Z 00000000300f6ad0 f   cg_weapons.obj
 0001:000f5c00       ?CG_PlayerTeslaCoilFire@@YAXPEAUcentity_s@@QEAM@Z 00000000300f6c00 f   cg_weapons.obj
 0001:000f7b50       ?CG_AddProtoWeapons@@YAXPEAUrefEntity_t@@PEAUplayerState_s@@PEAUcentity_s@@@Z 00000000300f8b50 f   cg_weapons.obj
 0001:000f7cb0       ?CG_AddPlayerFoot@@YAXPEAUrefEntity_t@@PEAUplayerState_s@@PEAUcentity_s@@@Z 00000000300f8cb0 f   cg_weapons.obj
 0001:000f8960       ?CG_SetSniperZoom@@YAXHH@Z 00000000300f9960 f   cg_weapons.obj
 0001:000f8b10       ?CG_PlaySwitchSound@@YAXHH@Z 00000000300f9b10 f   cg_weapons.obj
 0001:000f8bb0       ?CG_NextWeap@@YAX_N@Z      00000000300f9bb0 f   cg_weapons.obj
 0001:000f8e20       ?CG_PrevWeap@@YAX_N@Z      00000000300f9e20 f   cg_weapons.obj
 0001:000f9050       ?CG_WeaponFireRecoil@@YAXH@Z 00000000300fa050 f   cg_weapons.obj
 0001:000f9450       ?CG_AddSparks@@YAXQEAM0HHHM@Z 00000000300fa450 f   cg_weapons.obj
 0001:000f9b20       ?CG_AddDirtBulletParticles@@YAXQEAM0HHHMMMMPEAD@Z 00000000300fab20 f   cg_weapons.obj
 0001:000f9e70       ?CG_WaterRipple@@YAXHQEAM0HH@Z 00000000300fae70 f   cg_weapons.obj
 0001:000fa410       ?CG_SpawnTracer@@YAXHQEAM0@Z 00000000300fb410 f   cg_weapons.obj
 0001:000faac0       ?CG_Tracer@@YAXQEAM0H@Z    00000000300fbac0 f   cg_weapons.obj
 0001:00100e80       ?fabs@@YAMM@Z              0000000030101e80 f i cg_weapons.obj
 0001:00100ea0       ?pow@@YAMMH@Z              0000000030101ea0 f i cg_weapons.obj
 0001:00100ef0       __raise_securityfailure    0000000030101ef0 f   LIBCMTD:gs_report.obj
 0001:00100f40       __report_gsfailure         0000000030101f40 f   LIBCMTD:gs_report.obj
 0001:00101050       __report_rangecheckfailure 0000000030102050 f   LIBCMTD:gs_report.obj
 0001:00101070       __report_securityfailure   0000000030102070 f   LIBCMTD:gs_report.obj
 0001:00101140       __report_securityfailureEx 0000000030102140 f   LIBCMTD:gs_report.obj
 0001:00101440       __GSHandlerCheck           0000000030102440 f   LIBCMTD:gshandler.obj
 0001:00101490       __GSHandlerCheckCommon     0000000030102490 f   LIBCMTD:gshandler.obj
 0001:001015e0       __security_check_cookie    00000000301025e0 f   LIBCMTD:amdsecgs.obj
 0001:00101620       __chkstk                   0000000030102620 f   LIBCMTD:chkstk.obj
 0001:00101620       _alloca_probe              0000000030102620 f   LIBCMTD:chkstk.obj
 0001:00101b90       _CRT_INIT                  0000000030102b90 f   LIBCMTD:dll_dllmain.obj
 0001:00101bd0       _DllMainCRTStartup         0000000030102bd0 f   LIBCMTD:dll_dllmain.obj
 0001:00101d10       __security_init_cookie     0000000030102d10 f   LIBCMTD:gs_support.obj
 0001:00101db0       DllMain                    0000000030102db0 f   LIBCMTD:dll_dllmain_stub.obj
 0001:00101dd0       ?__scrt_initialize_type_info@@YAXXZ 0000000030102dd0 f   LIBCMTD:tncleanup.obj
 0001:00101df0       ?__scrt_uninitialize_type_info@@YAXXZ 0000000030102df0 f   LIBCMTD:tncleanup.obj
 0001:00101e10       __local_stdio_scanf_options 0000000030102e10 f i LIBCMTD:default_local_stdio_options.obj
 0001:00101e20       __scrt_initialize_default_local_stdio_options 0000000030102e20 f   LIBCMTD:default_local_stdio_options.obj
 0001:00101e80       ?configure_argv@__scrt_narrow_argv_policy@@SAHXZ 0000000030102e80 f i LIBCMTD:utility.obj
 0001:00101fa0       ?initialize_environment@__scrt_narrow_environment_policy@@SAHXZ 0000000030102fa0 f i LIBCMTD:utility.obj
 0001:00102070       NtCurrentTeb               0000000030103070 f i LIBCMTD:utility.obj
 0001:00102080       __scrt_acquire_startup_lock 0000000030103080 f   LIBCMTD:utility.obj
 0001:00102100       __scrt_dllmain_after_initialize_c 0000000030103100 f   LIBCMTD:utility.obj
 0001:00102140       __scrt_dllmain_before_initialize_c 0000000030103140 f   LIBCMTD:utility.obj
 0001:00102170       __scrt_dllmain_crt_thread_attach 0000000030103170 f   LIBCMTD:utility.obj
 0001:001021b0       __scrt_dllmain_crt_thread_detach 00000000301031b0 f   LIBCMTD:utility.obj
 0001:001021d0       __scrt_dllmain_exception_filter 00000000301031d0 f   LIBCMTD:utility.obj
 0001:00102250       __scrt_dllmain_uninitialize_c 0000000030103250 f   LIBCMTD:utility.obj
 0001:00102290       __scrt_dllmain_uninitialize_critical 0000000030103290 f   LIBCMTD:utility.obj
 0001:001022b0       __scrt_initialize_crt      00000000301032b0 f   LIBCMTD:utility.obj
 0001:00102310       __scrt_initialize_onexit_tables 0000000030103310 f   LIBCMTD:utility.obj
 0001:00102460       __scrt_is_nonwritable_in_current_image 0000000030103460 f   LIBCMTD:utility.obj
 0001:00102510       __scrt_release_startup_lock 0000000030103510 f   LIBCMTD:utility.obj
 0001:00102550       __scrt_uninitialize_crt    0000000030103550 f   LIBCMTD:utility.obj
 0001:001025a0       _onexit                    00000000301035a0 f   LIBCMTD:utility.obj
 0001:00102640       at_quick_exit              0000000030103640 f   LIBCMTD:utility.obj
 0001:001026a0       atexit                     00000000301036a0 f   LIBCMTD:utility.obj
 0001:001026e0       __scrt_get_dyn_tls_init_callback 00000000301036e0 f   LIBCMTD:dyn_tls_init.obj
 0001:001026f0       __crt_debugger_hook        00000000301036f0 f   LIBCMTD:utility_desktop.obj
 0001:00102710       __scrt_fastfail            0000000030103710 f   LIBCMTD:utility_desktop.obj
 0001:00102910       __scrt_get_show_window_mode 0000000030103910 f   LIBCMTD:utility_desktop.obj
 0001:00102980       __scrt_initialize_mta      0000000030103980 f   LIBCMTD:utility_desktop.obj
 0001:001029a0       __scrt_initialize_winrt    00000000301039a0 f   LIBCMTD:utility_desktop.obj
 0001:001029b0       __scrt_is_managed_app      00000000301039b0 f   LIBCMTD:utility_desktop.obj
 0001:00102a80       __scrt_set_unhandled_exception_filter 0000000030103a80 f   LIBCMTD:utility_desktop.obj
 0001:00102aa0       __scrt_stub_for_initialize_mta 0000000030103aa0 f   LIBCMTD:utility_desktop.obj
 0001:00102aa0       __scrt_exe_initialize_mta  0000000030103aa0 f   LIBCMTD:utility_desktop.obj
 0001:00102ab0       __scrt_unhandled_exception_filter 0000000030103ab0 f   LIBCMTD:utility_desktop.obj
 0001:00102b70       _RTC_Initialize            0000000030103b70 f   LIBCMTD:initsect.obj
 0001:00102bd0       _RTC_Terminate             0000000030103bd0 f   LIBCMTD:initsect.obj
 0001:00102c30       _guard_check_icall_nop     0000000030103c30 f i LIBCMTD:guard_support.obj
 0001:00102c40       ReadNoFence64              0000000030103c40 f i LIBCMTD:guard_support.obj
 0001:00102c70       ReadPointerNoFence         0000000030103c70 f i LIBCMTD:guard_support.obj
 0001:00102c90       _guard_icall_checks_enforced 0000000030103c90 f i LIBCMTD:guard_support.obj
 0001:00102ce0       _guard_rf_checks_enforced  0000000030103ce0 f i LIBCMTD:guard_support.obj
 0001:00102cf0       __isa_available_init       0000000030103cf0 f   LIBCMTD:cpu_disp.obj
 0001:00103170       _get_startup_argv_mode     0000000030104170 f   LIBCMTD:argv_mode.obj
 0001:00103180       __scrt_is_ucrt_dll_in_use  0000000030104180 f   LIBCMTD:ucrt_detection.obj
 0001:001031c0       memcpy_repmovs             00000000301041c0 f   libvcruntimed:memcpy.obj
 0001:001031e0       memcpy                     00000000301041e0 f   libvcruntimed:memcpy.obj
 0001:001031e0       memmove                    00000000301041e0 f   libvcruntimed:memcpy.obj
 0001:001036d0       memset_repmovs             00000000301046d0 f   libvcruntimed:memset.obj
 0001:001036f0       memset                     00000000301046f0 f   libvcruntimed:memset.obj
 0001:001038f0       __C_specific_handler       00000000301048f0 f   libvcruntimed:riscchandler.obj
 0001:00103ec0       ??$?RD@__crt_internal_free_policy@@QEBAXQEBD@Z 0000000030104ec0 f i libvcruntimed:std_type_info.obj
 0001:00103ef0       ??$?RX@__crt_internal_free_policy@@QEBAXQEBX@Z 0000000030104ef0 f i libvcruntimed:std_type_info.obj
 0001:00103f20       ??$__crt_interlocked_compare_exchange_pointer@$$CBDPEAD$$T@@YAPEBDPEDSEBDQEAD$$T@Z 0000000030104f20 f i libvcruntimed:std_type_info.obj
 0001:00103f70       ??$__crt_interlocked_read_pointer@$$CBD@@YAPEBDPEDSEBD@Z 0000000030104f70 f i libvcruntimed:std_type_info.obj
 0001:00103f90       ??0?$__crt_unique_heap_ptr@DU__crt_internal_free_policy@@@@QEAA@QEAD@Z 0000000030104f90 f i libvcruntimed:std_type_info.obj
 0001:00103fc0       ??0?$__crt_unique_heap_ptr@XU__crt_internal_free_policy@@@@QEAA@QEAX@Z 0000000030104fc0 f i libvcruntimed:std_type_info.obj
 0001:00103ff0       ??1?$__crt_unique_heap_ptr@DU__crt_internal_free_policy@@@@QEAA@XZ 0000000030104ff0 f i libvcruntimed:std_type_info.obj
 0001:00104010       ??1?$__crt_unique_heap_ptr@XU__crt_internal_free_policy@@@@QEAA@XZ 0000000030105010 f i libvcruntimed:std_type_info.obj
 0001:00104030       ??B?$__crt_unique_heap_ptr@DU__crt_internal_free_policy@@@@QEBA_NXZ 0000000030105030 f i libvcruntimed:std_type_info.obj
 0001:00104050       ??B?$__crt_unique_heap_ptr@XU__crt_internal_free_policy@@@@QEBA_NXZ 0000000030105050 f i libvcruntimed:std_type_info.obj
 0001:00104100       ?__crt_interlocked_read_64@@YA_JPED_J@Z 0000000030105100 f i libvcruntimed:std_type_info.obj
 0001:00104130       ?detach@?$__crt_unique_heap_ptr@XU__crt_internal_free_policy@@@@QEAAPEAXXZ 0000000030105130 f i libvcruntimed:std_type_info.obj
 0001:00104170       ?get@?$__crt_unique_heap_ptr@DU__crt_internal_free_policy@@@@QEBAPEADXZ 0000000030105170 f i libvcruntimed:std_type_info.obj
 0001:00104190       ?get@?$__crt_unique_heap_ptr@XU__crt_internal_free_policy@@@@QEBAPEAXXZ 0000000030105190 f i libvcruntimed:std_type_info.obj
 0001:001041b0       ?is_valid@?$__crt_unique_heap_ptr@DU__crt_internal_free_policy@@@@QEBA_NXZ 00000000301051b0 f i libvcruntimed:std_type_info.obj
 0001:001041f0       ?is_valid@?$__crt_unique_heap_ptr@XU__crt_internal_free_policy@@@@QEBA_NXZ 00000000301051f0 f i libvcruntimed:std_type_info.obj
 0001:00104230       ?release@?$__crt_unique_heap_ptr@DU__crt_internal_free_policy@@@@QEAAXXZ 0000000030105230 f i libvcruntimed:std_type_info.obj
 0001:00104270       ?release@?$__crt_unique_heap_ptr@XU__crt_internal_free_policy@@@@QEAAXXZ 0000000030105270 f i libvcruntimed:std_type_info.obj
 0001:001042b0       __std_type_info_compare    00000000301052b0 f   libvcruntimed:std_type_info.obj
 0001:00104300       __std_type_info_destroy_list 0000000030105300 f   libvcruntimed:std_type_info.obj
 0001:00104370       __std_type_info_hash       0000000030105370 f   libvcruntimed:std_type_info.obj
 0001:00104450       __std_type_info_name       0000000030105450 f   libvcruntimed:std_type_info.obj
 0001:001047b0       __vcrt_initialize          00000000301057b0 f   libvcruntimed:initialization.obj
 0001:00104800       __vcrt_thread_attach       0000000030105800 f   libvcruntimed:initialization.obj
 0001:00104820       __vcrt_thread_detach       0000000030105820 f   libvcruntimed:initialization.obj
 0001:00104840       __vcrt_uninitialize        0000000030105840 f   libvcruntimed:initialization.obj
 0001:00104860       __vcrt_uninitialize_critical 0000000030105860 f   libvcruntimed:initialization.obj
 0001:00104890       __DestructExceptionObject  0000000030105890 f   libvcruntimed:ehhelpers.obj
 0001:001049d0       ?_CallMemberFunction0@@YAXQEAX0@Z 00000000301059d0 f i libvcruntimed:ehhelpers.obj
 0001:00104ae0       ?raw_name@type_info@@QEBAPEBDXZ 0000000030105ae0 f i libvcruntimed:ehhelpers.obj
 0001:00104b00       _IsExceptionObjectToBeDestroyed 0000000030105b00 f   libvcruntimed:ehhelpers.obj
 0001:00104b70       _SetWinRTOutOfMemoryExceptionCallback 0000000030105b70 f   libvcruntimed:ehhelpers.obj
 0001:00104b90       __AdjustPointer            0000000030105b90 f   libvcruntimed:ehhelpers.obj
 0001:00104c30       __FrameUnwindFilter        0000000030105c30 f   libvcruntimed:ehhelpers.obj
 0001:00104d00       __GetPlatformExceptionInfo 0000000030105d00 f   libvcruntimed:ehhelpers.obj
 0001:00104de0       __current_exception        0000000030105de0 f   libvcruntimed:ehhelpers.obj
 0001:00104e00       __current_exception_context 0000000030105e00 f   libvcruntimed:ehhelpers.obj
 0001:00104e20       __processing_throw         0000000030105e20 f   libvcruntimed:ehhelpers.obj
 0001:00104e40       __std_terminate            0000000030105e40 f   libvcruntimed:ehhelpers.obj
 0001:00104e60       _is_exception_typeof       0000000030105e60 f   libvcruntimed:ehhelpers.obj
 0001:00105010       _NLG_Notify                0000000030106010 f   libvcruntimed:notify.obj
 0001:00105030       __NLG_Dispatch2            0000000030106030 f   libvcruntimed:notify.obj
 0001:00105040       __NLG_Return2              0000000030106040 f   libvcruntimed:notify.obj
 0001:00105080       __except_validate_context_record 0000000030106080 f   libvcruntimed:jbcxrval.obj
 0001:001050f0       __except_validate_jump_buffer 00000000301060f0 f   libvcruntimed:jbcxrval.obj
 0001:00105120       __except_validate_jump_buffer_common 0000000030106120 f i libvcruntimed:jbcxrval.obj
 0001:001051c0       ??$?0$00@DName@@QEAA@PEBDU?$StringLifeSelector@$00@@@Z 00000000301061c0 f i libvcruntimed:undname.obj
 0001:00105240       ??$?0$00@pcharNode@@QEAA@PEBDHU?$StringLifeSelector@$00@@@Z 0000000030106240 f i libvcruntimed:undname.obj
 0001:001052b0       ??$?0$01@DName@@QEAA@PEBDU?$StringLifeSelector@$01@@@Z 00000000301062b0 f i libvcruntimed:undname.obj
 0001:00105330       ??$?0$01@pcharNode@@QEAA@PEBDHU?$StringLifeSelector@$01@@@Z 0000000030106330 f i libvcruntimed:undname.obj
 0001:00105400       ??$?0$0A@@DName@@QEAA@PEBDU?$StringLifeSelector@$0A@@@@Z 0000000030106400 f i libvcruntimed:undname.obj
 0001:00105480       ??$?0$0A@@pcharNode@@QEAA@PEBDHU?$StringLifeSelector@$0A@@@@Z 0000000030106480 f i libvcruntimed:undname.obj
 0001:00105550       ??$?0_K$0A@@?$optional@_K@std@@QEAA@$$QEA_K@Z 0000000030106550 f i libvcruntimed:undname.obj
 0001:001055b0       ??$?0_K@?$_Optional_construct_base@_K@std@@QEAA@Uin_place_t@1@$$QEA_K@Z 00000000301065b0 f i libvcruntimed:undname.obj
 0001:001055f0       ??$?0_K@?$_Optional_destruct_base@_K$00@std@@QEAA@Uin_place_t@1@$$QEA_K@Z 00000000301065f0 f i libvcruntimed:undname.obj
 0001:00105640       ??$append@VDNameNode@@@DName@@AEAAXPEBVDNameNode@@@Z 0000000030106640 f i libvcruntimed:undname.obj
 0001:00105720       ??$append@VDNameStatusNode@@@DName@@AEAAXPEBVDNameStatusNode@@@Z 0000000030106720 f i libvcruntimed:undname.obj
 0001:00105800       ??$append@VcharNode@@@DName@@AEAAXPEBVcharNode@@@Z 0000000030106800 f i libvcruntimed:undname.obj
 0001:001058e0       ??$append@VpDNameNode@@@DName@@AEAAXPEBVpDNameNode@@@Z 00000000301068e0 f i libvcruntimed:undname.obj
 0001:001059c0       ??$append@VpcharNode@@@DName@@AEAAXPEBVpcharNode@@@Z 00000000301069c0 f i libvcruntimed:undname.obj
 0001:00105aa0       ??$doPchar@$00@DName@@AEAAXPEBDH@Z 0000000030106aa0 f i libvcruntimed:undname.obj
 0001:00105c60       ??$doPchar@$01@DName@@AEAAXPEBDH@Z 0000000030106c60 f i libvcruntimed:undname.obj
 0001:00105e20       ??$doPchar@$0A@@DName@@AEAAXPEBDH@Z 0000000030106e20 f i libvcruntimed:undname.obj
 0001:00105fe0       ??$forward@_K@std@@YA$$QEA_KAEA_K@Z 0000000030106fe0 f i libvcruntimed:undname.obj
 0001:00105ff0       ??$size@D$04@std@@YA_KAEAY04$$CBD@Z 0000000030106ff0 f i libvcruntimed:undname.obj
 0001:00106000       ??$size@D$0EB@@std@@YA_KAEAY0EB@$$CBD@Z 0000000030107000 f i libvcruntimed:undname.obj
 0001:00106010       ??0?$_Optional_construct_base@_K@std@@QEAA@XZ 0000000030107010 f i libvcruntimed:undname.obj
 0001:00106040       ??0?$_Optional_destruct_base@_K$00@std@@QEAA@XZ 0000000030107040 f i libvcruntimed:undname.obj
 0001:00106070       ??0?$optional@_K@std@@QEAA@XZ 0000000030107070 f i libvcruntimed:undname.obj
 0001:001060b0       ??0Block@_HeapManager@@QEAA@XZ 00000000301070b0 f i libvcruntimed:undname.obj
 0001:001060d0       ??0DName@@QEAA@AEAPEBDD@Z  00000000301070d0 f   libvcruntimed:undname.obj
 0001:00106310       ??0DName@@QEAA@AEBUStringLiteral@@@Z 0000000030107310 f   libvcruntimed:undname.obj
 0001:00106380       ??0DName@@QEAA@AEBV0@@Z    0000000030107380 f i libvcruntimed:undname.obj
 0001:001063c0       ??0DName@@QEAA@D@Z         00000000301073c0 f   libvcruntimed:undname.obj
 0001:00106410       ??0DName@@QEAA@PEAV0@@Z    0000000030107410 f   libvcruntimed:undname.obj
 0001:00106530       ??0DName@@QEAA@W4DNameStatus@@@Z 0000000030107530 f   libvcruntimed:undname.obj
 0001:00106610       ??0DName@@QEAA@XZ          0000000030107610 f i libvcruntimed:undname.obj
 0001:00106640       ??0DName@@QEAA@_J@Z        0000000030107640 f   libvcruntimed:undname.obj
 0001:00106790       ??0DName@@QEAA@_K@Z        0000000030107790 f   libvcruntimed:undname.obj
 0001:001068a0       ??0DNameNode@@IEAA@XZ      00000000301078a0 f i libvcruntimed:undname.obj
 0001:001068c0       ??0Replicator@@QEAA@XZ     00000000301078c0 f i libvcruntimed:undname.obj
 0001:00106900       ??0UnDecorator@@QEAA@PEBDP6APEADJ@ZK@Z 0000000030107900 f i libvcruntimed:undname.obj
 0001:001069d0       ??0charNode@@QEAA@D@Z      00000000301079d0 f i libvcruntimed:undname.obj
 0001:00106a20       ??0pDNameNode@@QEAA@PEAVDName@@@Z 0000000030107a20 f   libvcruntimed:undname.obj
 0001:00106ac0       ??0pairNode@@QEAA@PEBVDNameNode@@0@Z 0000000030107ac0 f i libvcruntimed:undname.obj
 0001:00106b60       ??2@YAPEAX_KAEAV_HeapManager@@H@Z 0000000030107b60 f   libvcruntimed:undname.obj
 0001:00106be0       ??4DName@@QEAAAEAV0@AEBUStringLiteral@@@Z 0000000030107be0 f   libvcruntimed:undname.obj
 0001:00106c40       ??4DName@@QEAAAEAV0@AEBV0@@Z 0000000030107c40 f   libvcruntimed:undname.obj
 0001:00106c80       ??4DName@@QEAAAEAV0@D@Z    0000000030107c80 f i libvcruntimed:undname.obj
 0001:00106cd0       ??4DName@@QEAAAEAV0@PEAV0@@Z 0000000030107cd0 f   libvcruntimed:undname.obj
 0001:00106dd0       ??4DName@@QEAAAEAV0@W4DNameStatus@@@Z 0000000030107dd0 f   libvcruntimed:undname.obj
 0001:00106e90       ??AReplicator@@QEBA?AVDName@@H@Z 0000000030107e90 f   libvcruntimed:undname.obj
 0001:00106f40       ??B?$optional@_K@std@@QEBA_NXZ 0000000030107f40 f i libvcruntimed:undname.obj
 0001:00106f60       ??D?$optional@_K@std@@QEGAAAEA_KXZ 0000000030107f60 f i libvcruntimed:undname.obj
 0001:00106f70       ??H@YA?AVDName@@AEBUStringLiteral@@AEBV0@@Z 0000000030107f70 f i libvcruntimed:undname.obj
 0001:00106fd0       ??H@YA?AVDName@@DAEBV0@@Z  0000000030107fd0 f i libvcruntimed:undname.obj
 0001:00107030       ??H@YA?AVDName@@W4DNameStatus@@AEBV0@@Z 0000000030108030 f i libvcruntimed:undname.obj
 0001:00107090       ??HDName@@QEBA?AV0@AEBUStringLiteral@@@Z 0000000030108090 f   libvcruntimed:undname.obj
 0001:001070f0       ??HDName@@QEBA?AV0@AEBV0@@Z 00000000301080f0 f   libvcruntimed:undname.obj
 0001:00107150       ??HDName@@QEBA?AV0@D@Z     0000000030108150 f   libvcruntimed:undname.obj
 0001:001071b0       ??HDName@@QEBA?AV0@PEAV0@@Z 00000000301081b0 f   libvcruntimed:undname.obj
 0001:00107210       ??HDName@@QEBA?AV0@W4DNameStatus@@@Z 0000000030108210 f   libvcruntimed:undname.obj
 0001:00107270       ??HStringLiteral@@QEBA?AU0@H@Z 0000000030108270 f i libvcruntimed:undname.obj
 0001:001072c0       ??YDName@@QEAAAEAV0@AEBUStringLiteral@@@Z 00000000301082c0 f   libvcruntimed:undname.obj
 0001:001073c0       ??YDName@@QEAAAEAV0@AEBV0@@Z 00000000301083c0 f   libvcruntimed:undname.obj
 0001:001074b0       ??YDName@@QEAAAEAV0@D@Z    00000000301084b0 f   libvcruntimed:undname.obj
 0001:00107580       ??YDName@@QEAAAEAV0@PEAV0@@Z 0000000030108580 f   libvcruntimed:undname.obj
 0001:001076a0       ??YDName@@QEAAAEAV0@W4DNameStatus@@@Z 00000000301086a0 f   libvcruntimed:undname.obj
 0001:00107730       ??YReplicator@@QEAAAEAV0@AEBVDName@@@Z 0000000030108730 f   libvcruntimed:undname.obj
 0001:00107820       ??_5DName@@QEAAAEAV0@AEBV0@@Z 0000000030108820 f   libvcruntimed:undname.obj
 0001:001078a0       ??__K_l@@YA?AUStringLiteral@@PEBD_K@Z 00000000301088a0 f i libvcruntimed:undname.obj
 0001:00107900       ?Constructor@_HeapManager@@QEAAXP6APEAX_K@ZP6AXPEAX@Z@Z 0000000030108900 f i libvcruntimed:undname.obj
 0001:00107970       ?Destructor@_HeapManager@@QEAAXXZ 0000000030108970 f i libvcruntimed:undname.obj
 0001:00107a30       ?UScore@UnDecorator@@SA?AUStringLiteral@@W4Tokens@@@Z 0000000030108a30 f   libvcruntimed:undname.obj
 0001:00107ae0       ?composeDeclaration@UnDecorator@@CA?AVDName@@AEBV2@@Z 0000000030108ae0 f i libvcruntimed:undname.obj
 0001:0010a920       ?dbGetString@DName@@QEBAPEADXZ 000000003010b920 f   libvcruntimed:undname.obj
 0001:0010a960       ?doAccessSpecifiers@UnDecorator@@SAHXZ 000000003010b960 f i libvcruntimed:undname.obj
 0001:0010a9a0       ?doAllocationLanguage@UnDecorator@@SAHXZ 000000003010b9a0 f i libvcruntimed:undname.obj
 0001:0010a9e0       ?doAllocationModel@UnDecorator@@SAHXZ 000000003010b9e0 f i libvcruntimed:undname.obj
 0001:0010aa20       ?doEcsu@UnDecorator@@SAHXZ 000000003010ba20 f i libvcruntimed:undname.obj
 0001:0010aa60       ?doEllipsis@UnDecorator@@SAHXZ 000000003010ba60 f i libvcruntimed:undname.obj
 0001:0010aaa0       ?doFunctionReturns@UnDecorator@@SAHXZ 000000003010baa0 f i libvcruntimed:undname.obj
 0001:0010aae0       ?doMSKeywords@UnDecorator@@SAHXZ 000000003010bae0 f i libvcruntimed:undname.obj
 0001:0010ab20       ?doMemberTypes@UnDecorator@@SAHXZ 000000003010bb20 f i libvcruntimed:undname.obj
 0001:0010ab60       ?doNameOnly@UnDecorator@@SAHXZ 000000003010bb60 f i libvcruntimed:undname.obj
 0001:0010ab70       ?doNoIdentCharCheck@UnDecorator@@SAHXZ 000000003010bb70 f i libvcruntimed:undname.obj
 0001:0010ab80       ?doPchar@DName@@AEAAXD@Z   000000003010bb80 f   libvcruntimed:undname.obj
 0001:0010ac30       ?doPtr64@UnDecorator@@SAHXZ 000000003010bc30 f i libvcruntimed:undname.obj
 0001:0010ac70       ?doRestrictionSpec@UnDecorator@@SAHXZ 000000003010bc70 f i libvcruntimed:undname.obj
 0001:0010acb0       ?doThisTypes@UnDecorator@@SAHXZ 000000003010bcb0 f i libvcruntimed:undname.obj
 0001:0010acf0       ?doThrowTypes@UnDecorator@@SAHXZ 000000003010bcf0 f i libvcruntimed:undname.obj
 0001:0010ad30       ?doTypeOnly@UnDecorator@@SAHXZ 000000003010bd30 f i libvcruntimed:undname.obj
 0001:0010ad40       ?doUnderScore@UnDecorator@@SAHXZ 000000003010bd40 f i libvcruntimed:undname.obj
 0001:0010ad80       ?getArgumentList@UnDecorator@@CA?AVDName@@XZ 000000003010bd80 f   libvcruntimed:undname.obj
 0001:0010af80       ?getArgumentTypes@UnDecorator@@CA?AVDName@@XZ 000000003010bf80 f   libvcruntimed:undname.obj
 0001:0010b3b0       ?getArrayObject@UnDecorator@@CA?AVDName@@XZ 000000003010c3b0 f   libvcruntimed:undname.obj
 0001:0010b510       ?getArrayType@UnDecorator@@CA?AVDName@@AEBV2@@Z 000000003010c510 f i libvcruntimed:undname.obj
 0001:0010b9c0       ?getBasedType@UnDecorator@@CA?AVDName@@XZ 000000003010c9c0 f   libvcruntimed:undname.obj
 0001:0010bb90       ?getBasicDataType@UnDecorator@@CA?AVDName@@AEBV2@@Z 000000003010cb90 f   libvcruntimed:undname.obj
 0001:0010cb90       ?getCHPEName@UnDecorator@@QEAAPEADPEADH@Z 000000003010db90 f i libvcruntimed:undname.obj
 0001:0010cdd0       ?getCallIndex@UnDecorator@@CA?AVDName@@XZ 000000003010ddd0 f i libvcruntimed:undname.obj
 0001:0010ce00       ?getCallingConvention@UnDecorator@@CA?AVDName@@XZ 000000003010de00 f   libvcruntimed:undname.obj
 0001:0010d290       ?getDataIndirectType@UnDecorator@@CA?AVDName@@AEBV2@W4IndirectionKind@@0H@Z 000000003010e290 f   libvcruntimed:undname.obj
 0001:0010e250       ?getDataIndirectType@UnDecorator@@CA?AVDName@@XZ 000000003010f250 f i libvcruntimed:undname.obj
 0001:0010e2c0       ?getDataType@UnDecorator@@CA?AVDName@@PEAV2@@Z 000000003010f2c0 f   libvcruntimed:undname.obj
 0001:0010e510       ?getDecoratedName@UnDecorator@@CA?AVDName@@XZ 000000003010f510 f   libvcruntimed:undname.obj
 0001:0010eb40       ?getDimension@UnDecorator@@CA?AVDName@@_N@Z 000000003010fb40 f   libvcruntimed:undname.obj
 0001:0010ef10       ?getDispatchTarget@UnDecorator@@CA?AVDName@@XZ 000000003010ff10 f   libvcruntimed:undname.obj
 0001:0010f010       ?getDisplacement@UnDecorator@@CA?AVDName@@XZ 0000000030110010 f i libvcruntimed:undname.obj
 0001:0010f040       ?getECSUDataType@UnDecorator@@CA?AVDName@@XZ 0000000030110040 f   libvcruntimed:undname.obj
 0001:0010f4c0       ?getECSUName@UnDecorator@@CA?AVDName@@XZ 00000000301104c0 f i libvcruntimed:undname.obj
 0001:0010f4f0       ?getEnumType@UnDecorator@@CA?AVDName@@XZ 00000000301104f0 f i libvcruntimed:undname.obj
 0001:0010f820       ?getExtendedDataIndirectType@UnDecorator@@CA?AVDName@@AEAW4IndirectionKind@@AEA_NH@Z 0000000030110820 f   libvcruntimed:undname.obj
 0001:0010fc00       ?getExternalDataType@UnDecorator@@CA?AVDName@@AEBV2@@Z 0000000030110c00 f i libvcruntimed:undname.obj
 0001:0010fd10       ?getFloatingPoint@UnDecorator@@CA?AVDName@@H@Z 0000000030110d10 f   libvcruntimed:undname.obj
 0001:00110020       ?getFunctionIndirectType@UnDecorator@@CA?AVDName@@AEBV2@@Z 0000000030111020 f   libvcruntimed:undname.obj
 0001:001107e0       ?getGuardNumber@UnDecorator@@CA?AVDName@@XZ 00000000301117e0 f i libvcruntimed:undname.obj
 0001:00110810       ?getLastChar@DName@@QEBADXZ 0000000030111810 f i libvcruntimed:undname.obj
 0001:00110870       ?getLastChar@DNameStatusNode@@UEBADXZ 0000000030111870 f i libvcruntimed:undname.obj
 0001:001108c0       ?getLastChar@charNode@@UEBADXZ 00000000301118c0 f i libvcruntimed:undname.obj
 0001:001108e0       ?getLastChar@pDNameNode@@UEBADXZ 00000000301118e0 f i libvcruntimed:undname.obj
 0001:00110930       ?getLastChar@pairNode@@UEBADXZ 0000000030111930 f i libvcruntimed:undname.obj
 0001:001109d0       ?getLastChar@pcharNode@@UEBADXZ 00000000301119d0 f i libvcruntimed:undname.obj
 0001:00110a20       ?getLexicalFrame@UnDecorator@@CA?AVDName@@XZ 0000000030111a20 f i libvcruntimed:undname.obj
 0001:00110a80       ?getMemoryWithBuffer@_HeapManager@@QEAAPEAX_K@Z 0000000030111a80 f   libvcruntimed:undname.obj
 0001:00110c20       ?getMemoryWithoutBuffer@_HeapManager@@QEAAPEAX_K@Z 0000000030111c20 f   libvcruntimed:undname.obj
 0001:00110c80       ?getNoexcept@UnDecorator@@CA?AVDName@@XZ 0000000030111c80 f   libvcruntimed:undname.obj
 0001:00110d60       ?getNumberOfDimensions@UnDecorator@@CAHXZ 0000000030111d60 f   libvcruntimed:undname.obj
 0001:00110ed0       ?getOperatorName@UnDecorator@@CA?AVDName@@_NPEA_N@Z 0000000030111ed0 f i libvcruntimed:undname.obj
 0001:001121a0       ?getPointerType@UnDecorator@@CA?AVDName@@AEBV2@0@Z 00000000301131a0 f i libvcruntimed:undname.obj
 0001:001121f0       ?getPointerTypeArray@UnDecorator@@CA?AVDName@@AEBV2@0@Z 00000000301131f0 f i libvcruntimed:undname.obj
 0001:00112240       ?getPrimaryDataType@UnDecorator@@CA?AVDName@@AEBV2@@Z 0000000030113240 f   libvcruntimed:undname.obj
 0001:001129b0       ?getPtrRefDataType@UnDecorator@@CA?AVDName@@AEBV2@H@Z 00000000301139b0 f   libvcruntimed:undname.obj
 0001:00112ea0       ?getPtrRefType@UnDecorator@@CA?AVDName@@AEBV2@0W4IndirectionKind@@@Z 0000000030113ea0 f   libvcruntimed:undname.obj
 0001:00113160       ?getReferenceType@UnDecorator@@CA?AVDName@@AEBV2@0W4IndirectionKind@@@Z 0000000030114160 f i libvcruntimed:undname.obj
 0001:001131b0       ?getRestrictionSpec@UnDecorator@@CA?AVDName@@XZ 00000000301141b0 f   libvcruntimed:undname.obj
 0001:001134e0       ?getReturnType@UnDecorator@@CA?AVDName@@PEAV2@@Z 00000000301144e0 f   libvcruntimed:undname.obj
 0001:00113560       ?getScope@UnDecorator@@CA?AVDName@@XZ 0000000030114560 f   libvcruntimed:undname.obj
 0001:00113e90       ?getScopedName@UnDecorator@@CA?AVDName@@XZ 0000000030114e90 f   libvcruntimed:undname.obj
 0001:00114110       ?getSignedDimension@UnDecorator@@CA?AVDName@@XZ 0000000030115110 f   libvcruntimed:undname.obj
 0001:001141c0       ?getStorageConvention@UnDecorator@@CA?AVDName@@XZ 00000000301151c0 f i libvcruntimed:undname.obj
 0001:001141f0       ?getString@DName@@QEBAPEADPEAD0@Z 00000000301151f0 f i libvcruntimed:undname.obj
 0001:00114280       ?getString@DName@@QEBAPEADPEADH@Z 0000000030115280 f i libvcruntimed:undname.obj
 0001:00114360       ?getString@DNameStatusNode@@UEBAPEADPEAD0@Z 0000000030115360 f i libvcruntimed:undname.obj
 0001:001143c0       ?getString@charNode@@UEBAPEADPEAD0@Z 00000000301153c0 f i libvcruntimed:undname.obj
 0001:00114410       ?getString@pDNameNode@@UEBAPEADPEAD0@Z 0000000030115410 f i libvcruntimed:undname.obj
 0001:00114490       ?getString@pairNode@@UEBAPEADPEAD0@Z 0000000030115490 f i libvcruntimed:undname.obj
 0001:00114590       ?getString@pcharNode@@UEBAPEADPEAD0@Z 0000000030115590 f i libvcruntimed:undname.obj
 0001:001145e0       ?getStringEncoding@UnDecorator@@CA?AVDName@@W4PrefixKind@@H@Z 00000000301155e0 f   libvcruntimed:undname.obj
 0001:00114790       ?getStringHelper@@YAPEADPEADPEBD1H@Z 0000000030115790 f i libvcruntimed:undname.obj
 0001:00114810       ?getStringObject@UnDecorator@@CA?AVDName@@XZ 0000000030115810 f   libvcruntimed:undname.obj
 0001:00114920       ?getSymbolName@UnDecorator@@CA?AVDName@@XZ 0000000030115920 f i libvcruntimed:undname.obj
 0001:001149e0       ?getTemplateArgumentList@UnDecorator@@CA?AVDName@@XZ 00000000301159e0 f   libvcruntimed:undname.obj
 0001:00114dc0       ?getTemplateName@UnDecorator@@CA?AVDName@@_N@Z 0000000030115dc0 f   libvcruntimed:undname.obj
 0001:00115080       ?getTemplateNonTypeArgument@UnDecorator@@CA?AVDName@@XZ 0000000030116080 f   libvcruntimed:undname.obj
 0001:00115920       ?getTemplateTypeArgument@UnDecorator@@CA?AVDName@@XZ 0000000030116920 f   libvcruntimed:undname.obj
 0001:00115c30       ?getThisType@UnDecorator@@CA?AVDName@@XZ 0000000030116c30 f i libvcruntimed:undname.obj
 0001:00115ca0       ?getThrowTypes@UnDecorator@@CA?AVDName@@XZ 0000000030116ca0 f   libvcruntimed:undname.obj
 0001:00115d10       ?getTypeEncoding@UnDecorator@@CAHXZ 0000000030116d10 f i libvcruntimed:undname.obj
 0001:00116c50       ?getUndecoratedName@UnDecorator@@QEAAPEADPEADH@Z 0000000030117c50 f i libvcruntimed:undname.obj
 0001:00116ec0       ?getVCallThunkType@UnDecorator@@CA?AVDName@@XZ 0000000030117ec0 f i libvcruntimed:undname.obj
 0001:00116fa0       ?getValue@UnDecorator@@CA?AV?$optional@_K@std@@XZ 0000000030117fa0 f   libvcruntimed:undname.obj
 0001:001170a0       ?getValueObject@UnDecorator@@CA?AVDName@@XZ 00000000301180a0 f   libvcruntimed:undname.obj
 0001:001172c0       ?getVbTableType@UnDecorator@@CA?AVDName@@AEBV2@@Z 00000000301182c0 f i libvcruntimed:undname.obj
 0001:001172f0       ?getVdispMapType@UnDecorator@@CA?AVDName@@AEBV2@@Z 00000000301182f0 f i libvcruntimed:undname.obj
 0001:001173e0       ?getVfTableType@UnDecorator@@CA?AVDName@@AEBV2@@Z 00000000301183e0 f i libvcruntimed:undname.obj
 0001:00117730       ?getZName@UnDecorator@@CA?AVDName@@_N0@Z 0000000030118730 f   libvcruntimed:undname.obj
 0001:00117ce0       ?haveTemplateParameters@UnDecorator@@SAHXZ 0000000030118ce0 f i libvcruntimed:undname.obj
 0001:00117cf0       ?isArray@DName@@QEBAHXZ    0000000030118cf0 f i libvcruntimed:undname.obj
 0001:00117d10       ?isComArray@DName@@QEBAHXZ 0000000030118d10 f i libvcruntimed:undname.obj
 0001:00117d30       ?isEmpty@DName@@QEBAHXZ    0000000030118d30 f i libvcruntimed:undname.obj
 0001:00117d70       ?isFull@Replicator@@QEBAHXZ 0000000030118d70 f i libvcruntimed:undname.obj
 0001:00117db0       ?isNoTE@DName@@QEBAHXZ     0000000030118db0 f i libvcruntimed:undname.obj
 0001:00117dd0       ?isPinPtr@DName@@QEBAHXZ   0000000030118dd0 f i libvcruntimed:undname.obj
 0001:00117df0       ?isPtrRef@DName@@QEBAHXZ   0000000030118df0 f i libvcruntimed:undname.obj
 0001:00117e10       ?isUDC@DName@@QEBAHXZ      0000000030118e10 f i libvcruntimed:undname.obj
 0001:00117e70       ?isUDTThunk@DName@@QEBAHXZ 0000000030118e70 f i libvcruntimed:undname.obj
 0001:00117ed0       ?isVCallThunk@DName@@QEBAHXZ 0000000030118ed0 f i libvcruntimed:undname.obj
 0001:00117ef0       ?isValid@DName@@QEBAHXZ    0000000030118ef0 f i libvcruntimed:undname.obj
 0001:00117f40       ?length@DName@@QEBAHXZ     0000000030118f40 f i libvcruntimed:undname.obj
 0001:00117fa0       ?length@DNameStatusNode@@UEBAHXZ 0000000030118fa0 f i libvcruntimed:undname.obj
 0001:00117fc0       ?length@charNode@@UEBAHXZ  0000000030118fc0 f i libvcruntimed:undname.obj
 0001:00117fd0       ?length@pDNameNode@@UEBAHXZ 0000000030118fd0 f i libvcruntimed:undname.obj
 0001:00118020       ?length@pairNode@@UEBAHXZ  0000000030119020 f i libvcruntimed:undname.obj
 0001:001180d0       ?length@pcharNode@@UEBAHXZ 00000000301190d0 f i libvcruntimed:undname.obj
 0001:001180f0       ?make@DNameStatusNode@@SAPEBV1@W4DNameStatus@@@Z 00000000301190f0 f i libvcruntimed:undname.obj
 0001:00118150       ?parseDecoratedName@UnDecorator@@CA?AVDName@@XZ 0000000030119150 f   libvcruntimed:undname.obj
 0001:001183c0       ?raw_length@DNameStatusNode@@UEBAHXZ 00000000301193c0 f i libvcruntimed:undname.obj
 0001:001183e0       ?raw_length@charNode@@UEBAHXZ 00000000301193e0 f i libvcruntimed:undname.obj
 0001:00118400       ?raw_length@pDNameNode@@UEBAHXZ 0000000030119400 f i libvcruntimed:undname.obj
 0001:00118410       ?raw_length@pairNode@@UEBAHXZ 0000000030119410 f i libvcruntimed:undname.obj
 0001:00118430       ?raw_length@pcharNode@@UEBAHXZ 0000000030119430 f i libvcruntimed:undname.obj
 0001:00118450       ?setIsArray@DName@@QEAAXXZ 0000000030119450 f i libvcruntimed:undname.obj
 0001:00118470       ?setIsComArray@DName@@QEAAXXZ 0000000030119470 f i libvcruntimed:undname.obj
 0001:00118490       ?setIsNoTE@DName@@QEAAXXZ  0000000030119490 f i libvcruntimed:undname.obj
 0001:001184b0       ?setIsPinPtr@DName@@QEAAXXZ 00000000301194b0 f i libvcruntimed:undname.obj
 0001:001184d0       ?setIsUDC@DName@@QEAAXXZ   00000000301194d0 f i libvcruntimed:undname.obj
 0001:00118510       ?setIsVCallThunk@DName@@QEAAXXZ 0000000030119510 f i libvcruntimed:undname.obj
 0001:00118530       ?setPtrRef@DName@@QEAAAEAV1@XZ 0000000030119530 f i libvcruntimed:undname.obj
 0001:00118560       ?status@DName@@QEBA?AW4DNameStatus@@XZ 0000000030119560 f i libvcruntimed:undname.obj
 0001:001186d0       __unDName                  00000000301196d0 f   libvcruntimed:undname.obj
 0001:00118740       __unDNameEx                0000000030119740 f   libvcruntimed:undname.obj
 0001:00118830       _vsprintf_s_l              0000000030119830 f i libvcruntimed:undname.obj
 0001:001188c0       sprintf_s                  00000000301198c0 f i libvcruntimed:undname.obj
 0001:00118930       unDNameGenerateCHPE        0000000030119930 f   libvcruntimed:undname.obj
 0001:00118a00       ??$?RU__vcrt_ptd@@@__crt_internal_free_policy@@QEBAXQEBU__vcrt_ptd@@@Z 0000000030119a00 f i libvcruntimed:per_thread_data.obj
 0001:00118a30       ??0?$__crt_unique_heap_ptr@U__vcrt_ptd@@U__crt_internal_free_policy@@@@QEAA@QEAU__vcrt_ptd@@@Z 0000000030119a30 f i libvcruntimed:per_thread_data.obj
 0001:00118a90       ??1?$__crt_unique_heap_ptr@U__vcrt_ptd@@U__crt_internal_free_policy@@@@QEAA@XZ 0000000030119a90 f i libvcruntimed:per_thread_data.obj
 0001:00118ae0       ??B?$__crt_unique_heap_ptr@U__vcrt_ptd@@U__crt_internal_free_policy@@@@QEBA_NXZ 0000000030119ae0 f i libvcruntimed:per_thread_data.obj
 0001:00118b00       ?detach@?$__crt_unique_heap_ptr@U__vcrt_ptd@@U__crt_internal_free_policy@@@@QEAAPEAU__vcrt_ptd@@XZ 0000000030119b00 f i libvcruntimed:per_thread_data.obj
 0001:00118b40       ?get@?$__crt_unique_heap_ptr@U__vcrt_ptd@@U__crt_internal_free_policy@@@@QEBAPEAU__vcrt_ptd@@XZ 0000000030119b40 f i libvcruntimed:per_thread_data.obj
 0001:00118b60       ?is_valid@?$__crt_unique_heap_ptr@U__vcrt_ptd@@U__crt_internal_free_policy@@@@QEBA_NXZ 0000000030119b60 f i libvcruntimed:per_thread_data.obj
 0001:00118ba0       ?release@?$__crt_unique_heap_ptr@U__vcrt_ptd@@U__crt_internal_free_policy@@@@QEAAXXZ 0000000030119ba0 f i libvcruntimed:per_thread_data.obj
 0001:00118c30       __vcrt_freefls             0000000030119c30 f   libvcruntimed:per_thread_data.obj
 0001:00118c80       __vcrt_freeptd             0000000030119c80 f   libvcruntimed:per_thread_data.obj
 0001:00118d00       __vcrt_getptd              0000000030119d00 f   libvcruntimed:per_thread_data.obj
 0001:00118d30       __vcrt_getptd_noexit       0000000030119d30 f   libvcruntimed:per_thread_data.obj
 0001:00118f40       __vcrt_getptd_noinit       0000000030119f40 f   libvcruntimed:per_thread_data.obj
 0001:00118fc0       __vcrt_initialize_ptd      0000000030119fc0 f   libvcruntimed:per_thread_data.obj
 0001:00119020       __vcrt_uninitialize_ptd    000000003011a020 f   libvcruntimed:per_thread_data.obj
 0001:00119060       __vcrt_initialize_locks    000000003011a060 f   libvcruntimed:locks.obj
 0001:001190f0       __vcrt_lock                000000003011a0f0 f   libvcruntimed:locks.obj
 0001:00119130       __vcrt_uninitialize_locks  000000003011a130 f   libvcruntimed:locks.obj
 0001:001191a0       __vcrt_unlock              000000003011a1a0 f   libvcruntimed:locks.obj
 0001:001191e0       ??$__crt_interlocked_exchange_pointer@$$A6AXXZP6AXXZ@@YAP6AXXZPEDS6AXXZQ6AXXZ@Z 000000003011a1e0 f i libvcruntimed:purevirt.obj
 0001:00119200       ??$__crt_interlocked_read_pointer@$$A6AXXZ@@YAP6AXXZPEDS6AXXZ@Z 000000003011a200 f i libvcruntimed:purevirt.obj
 0001:00119220       _get_purecall_handler      000000003011a220 f   libvcruntimed:purevirt.obj
 0001:00119240       _purecall                  000000003011a240 f   libvcruntimed:purevirt.obj
 0001:00119290       _set_purecall_handler      000000003011a290 f   libvcruntimed:purevirt.obj
 0001:001192c0       ??$?0AEAViterator@TryBlockMap4@FH4@@AEAV012@$0A@@?$pair@Viterator@TryBlockMap4@FH4@@V123@@std@@QEAA@AEAViterator@TryBlockMap4@FH4@@0@Z 000000003011a2c0 f i libvcruntimed:risctrnsctrl.obj
 0001:00119330       ??$?0AEAViterator@TryBlockMap@__FrameHandler3@@AEAV012@$0A@@?$pair@Viterator@TryBlockMap@__FrameHandler3@@V123@@std@@QEAA@AEAViterator@TryBlockMap@__FrameHandler3@@0@Z 000000003011a330 f i libvcruntimed:risctrnsctrl.obj
 0001:00119570       ??$_CallSETranslator@V__FrameHandler3@@@@YAHPEAUEHExceptionRecord@@PEA_KPEAU_CONTEXT@@PEAU_xDISPATCHER_CONTEXT@@PEBU_s_FuncInfo@@K1H@Z 000000003011a570 f i libvcruntimed:risctrnsctrl.obj
 0001:00119630       ??$_CallSETranslator@V__FrameHandler4@@@@YAHPEAUEHExceptionRecord@@PEA_KPEAU_CONTEXT@@PEAU_xDISPATCHER_CONTEXT@@PEAUFuncInfo4@FH4@@K1H@Z 000000003011a630 f i libvcruntimed:risctrnsctrl.obj
 0001:001196f0       ??$forward@AEAViterator@TryBlockMap4@FH4@@@std@@YAAEAViterator@TryBlockMap4@FH4@@AEAV123@@Z 000000003011a6f0 f i libvcruntimed:risctrnsctrl.obj
 0001:00119700       ??$forward@AEAViterator@TryBlockMap@__FrameHandler3@@@std@@YAAEAViterator@TryBlockMap@__FrameHandler3@@AEAV123@@Z 000000003011a700 f i libvcruntimed:risctrnsctrl.obj
 0001:00119710       ??0FuncInfo4@FH4@@QEAA@XZ  000000003011a710 f i libvcruntimed:risctrnsctrl.obj
 0001:00119790       ??0FuncInfoHeader@FH4@@QEAA@XZ 000000003011a790 f i libvcruntimed:risctrnsctrl.obj
 0001:001197b0       ??0iterator@TryBlockMap4@FH4@@QEAA@AEAV12@I@Z 000000003011a7b0 f i libvcruntimed:risctrnsctrl.obj
 0001:001197f0       ??0iterator@TryBlockMap@__FrameHandler3@@QEAA@AEAV12@I@Z 000000003011a7f0 f i libvcruntimed:risctrnsctrl.obj
 0001:00119830       ??4iterator@TryBlockMap4@FH4@@QEAAAEAV012@AEBV012@@Z 000000003011a830 f i libvcruntimed:risctrnsctrl.obj
 0001:00119860       ??9iterator@TryBlockMap4@FH4@@QEBA_NAEBV012@@Z 000000003011a860 f i libvcruntimed:risctrnsctrl.obj
 0001:001198b0       ??Diterator@TryBlockMap4@FH4@@QEAA?AUTryBlockMapEntry4@2@XZ 000000003011a8b0 f i libvcruntimed:risctrnsctrl.obj
 0001:001198f0       ??Eiterator@TryBlockMap4@FH4@@QEAAAEAV012@XZ 000000003011a8f0 f i libvcruntimed:risctrnsctrl.obj
 0001:00119930       ?CatchTryBlock@__FrameHandler3@@SAPEBU_s_TryBlockMapEntry@@PEBU_s_FuncInfo@@H@Z 000000003011a930 f   libvcruntimed:risctrnsctrl.obj
 0001:001199e0       ?DecompFuncInfo@FH4@@YA_JPEAEAEAUFuncInfo4@1@_KH@Z 000000003011a9e0 f i libvcruntimed:risctrnsctrl.obj
 0001:00119a30       ?DecompFuncInfo@FH4@@YA_JPEAEAEAUFuncInfo4@1@_KH_N@Z 000000003011aa30 f i libvcruntimed:risctrnsctrl.obj
 0001:00119c80       ?DecompTryBlock@TryBlockMap4@FH4@@AEAAXXZ 000000003011ac80 f i libvcruntimed:risctrnsctrl.obj
 0001:00119d10       ?ExecutionInCatch@__FrameHandler3@@SA_NPEAU_xDISPATCHER_CONTEXT@@PEBU_s_FuncInfo@@@Z 000000003011ad10 f   libvcruntimed:risctrnsctrl.obj
 0001:00119d80       ?ExecutionInCatch@__FrameHandler4@@SA_NPEAU_xDISPATCHER_CONTEXT@@PEAUFuncInfo4@FH4@@@Z 000000003011ad80 f   libvcruntimed:risctrnsctrl.obj
 0001:00119da0       ?FrameUnwindToEmptyState@__FrameHandler3@@SAXPEA_KPEAU_xDISPATCHER_CONTEXT@@PEBU_s_FuncInfo@@@Z 000000003011ada0 f   libvcruntimed:risctrnsctrl.obj
 0001:00119e60       ?FrameUnwindToEmptyState@__FrameHandler4@@SAXPEA_KPEAU_xDISPATCHER_CONTEXT@@PEAUFuncInfo4@FH4@@@Z 000000003011ae60 f   libvcruntimed:risctrnsctrl.obj
 0001:00119ed0       ?GetEstablisherFrame@__FrameHandler3@@SAPEA_KPEA_KPEAU_xDISPATCHER_CONTEXT@@PEBU_s_FuncInfo@@0@Z 000000003011aed0 f   libvcruntimed:risctrnsctrl.obj
 0001:0011a0a0       ?GetEstablisherFrame@__FrameHandler4@@SAPEA_KPEA_KPEAU_xDISPATCHER_CONTEXT@@PEAUFuncInfo4@FH4@@0@Z 000000003011b0a0 f   libvcruntimed:risctrnsctrl.obj
 0001:0011a120       ?GetRangeOfTrysToCheck@__FrameHandler3@@SA?AU?$pair@Viterator@TryBlockMap@__FrameHandler3@@V123@@std@@AEAVTryBlockMap@1@HPEAU_xDISPATCHER_CONTEXT@@PEBU_s_FuncInfo@@H@Z 000000003011b120 f   libvcruntimed:risctrnsctrl.obj
 0001:0011a3f0       ?GetRangeOfTrysToCheck@__FrameHandler4@@SA?AU?$pair@Viterator@TryBlockMap4@FH4@@V123@@std@@AEAVTryBlockMap4@FH4@@HPEAU_xDISPATCHER_CONTEXT@@PEAUFuncInfo4@5@H@Z 000000003011b3f0 f   libvcruntimed:risctrnsctrl.obj
 0001:0011a610       ?ReadInt@FH4@@YAHPEAPEAE@Z 000000003011b610 f i libvcruntimed:risctrnsctrl.obj
 0001:0011a650       ?ReadUnsigned@FH4@@YAIPEAPEAE@Z 000000003011b650 f i libvcruntimed:risctrnsctrl.obj
 0001:0011a700       ?UnwindNestedFrames@__FrameHandler3@@SAXPEA_KPEAUEHExceptionRecord@@PEAU_CONTEXT@@0PEAXPEBU_s_FuncInfo@@HHPEBU_s_HandlerType@@PEAU_xDISPATCHER_CONTEXT@@E@Z 000000003011b700 f   libvcruntimed:risctrnsctrl.obj
 0001:0011a8d0       ?UnwindNestedFrames@__FrameHandler4@@SAXPEA_KPEAUEHExceptionRecord@@PEAU_CONTEXT@@0PEAXPEAUFuncInfo4@FH4@@HHPEAUHandlerType4@5@PEAU_xDISPATCHER_CONTEXT@@E@Z 000000003011b8d0 f   libvcruntimed:risctrnsctrl.obj
 0001:0011ab10       ?begin@TryBlockMap4@FH4@@QEAA?AViterator@12@XZ 000000003011bb10 f i libvcruntimed:risctrnsctrl.obj
 0001:0011ab50       ?end@TryBlockMap4@FH4@@QEAA?AViterator@12@XZ 000000003011bb50 f i libvcruntimed:risctrnsctrl.obj
 0001:0011ab90       ?imageRelToByteBuffer@FH4@@YAPEAE_KH@Z 000000003011bb90 f i libvcruntimed:risctrnsctrl.obj
 0001:0011abb0       ?incrementToSentinel@iterator@TryBlockMap4@FH4@@QEAAXXZ 000000003011bbb0 f i libvcruntimed:risctrnsctrl.obj
 0001:0011abd0       ?setBuffer@TryBlockMap4@FH4@@QEAAXViterator@12@@Z 000000003011bbd0 f i libvcruntimed:risctrnsctrl.obj
 0001:0011ac60       _CreateFrameInfo           000000003011bc60 f   libvcruntimed:risctrnsctrl.obj
 0001:0011acf0       _FindAndUnlinkFrame        000000003011bcf0 f   libvcruntimed:risctrnsctrl.obj
 0001:0011ad90       _GetImageBase              000000003011bd90 f   libvcruntimed:risctrnsctrl.obj
 0001:0011adb0       _GetThrowImageBase         000000003011bdb0 f   libvcruntimed:risctrnsctrl.obj
 0001:0011add0       _SetImageBase              000000003011bdd0 f   libvcruntimed:risctrnsctrl.obj
 0001:0011ae00       _SetThrowImageBase         000000003011be00 f   libvcruntimed:risctrnsctrl.obj
 0001:0011ae30       __CxxFrameHandler          000000003011be30 f   libvcruntimed:risctrnsctrl.obj
 0001:0011ae80       __CxxFrameHandler2         000000003011be80 f   libvcruntimed:risctrnsctrl.obj
 0001:0011aed0       __CxxFrameHandler3         000000003011bed0 f   libvcruntimed:risctrnsctrl.obj
 0001:0011afe0       __CxxFrameHandler4         000000003011bfe0 f   libvcruntimed:risctrnsctrl.obj
 0001:0011b130       ??$__crt_interlocked_exchange_pointer@UHINSTANCE__@@PEAU1@@@YAPEAUHINSTANCE__@@PEDSEAU0@QEAU0@@Z 000000003011c130 f i libvcruntimed:winapi_downlevel.obj
 0001:0011b150       ??$__crt_interlocked_exchange_pointer@UHINSTANCE__@@PEAX@@YAPEAUHINSTANCE__@@PEDSEAU0@QEAX@Z 000000003011c150 f i libvcruntimed:winapi_downlevel.obj
 0001:0011b170       ??$__crt_interlocked_exchange_pointer@XPEAX@@YAPEAXPEDSEAXQEAX@Z 000000003011c170 f i libvcruntimed:winapi_downlevel.obj
 0001:0011b190       ??$__crt_interlocked_read_pointer@UHINSTANCE__@@@@YAPEAUHINSTANCE__@@PEDSEAU0@@Z 000000003011c190 f i libvcruntimed:winapi_downlevel.obj
 0001:0011b1b0       ??$__crt_interlocked_read_pointer@X@@YAPEAXPEDSEAX@Z 000000003011c1b0 f i libvcruntimed:winapi_downlevel.obj
 0001:0011b810       __vcrt_FlsAlloc            000000003011c810 f   libvcruntimed:winapi_downlevel.obj
 0001:0011b870       __vcrt_FlsFree             000000003011c870 f   libvcruntimed:winapi_downlevel.obj
 0001:0011b8e0       __vcrt_FlsGetValue         000000003011c8e0 f   libvcruntimed:winapi_downlevel.obj
 0001:0011b950       __vcrt_FlsSetValue         000000003011c950 f   libvcruntimed:winapi_downlevel.obj
 0001:0011b9d0       __vcrt_InitializeCriticalSectionEx 000000003011c9d0 f   libvcruntimed:winapi_downlevel.obj
 0001:0011ba50       ?GetCurrentState@__FrameHandler3@@SAHPEA_KPEAU_xDISPATCHER_CONTEXT@@PEBU_s_FuncInfo@@@Z 000000003011ca50 f   libvcruntimed:ehstate.obj
 0001:0011bac0       ?GetUnwindTryBlock@__FrameHandler3@@SAHPEA_KPEAU_xDISPATCHER_CONTEXT@@PEBU_s_FuncInfo@@@Z 000000003011cac0 f   libvcruntimed:ehstate.obj
 0001:0011bb20       ?SetState@__FrameHandler3@@SAXPEA_KPEBU_s_FuncInfo@@H@Z 000000003011cb20 f   libvcruntimed:ehstate.obj
 0001:0011bb60       ?SetUnwindTryBlock@__FrameHandler3@@SAXPEA_KPEAU_xDISPATCHER_CONTEXT@@PEBU_s_FuncInfo@@H@Z 000000003011cb60 f   libvcruntimed:ehstate.obj
 0001:0011bbf0       ?StateFromControlPc@__FrameHandler3@@SAHPEBU_s_FuncInfo@@PEAU_xDISPATCHER_CONTEXT@@@Z 000000003011cbf0 f   libvcruntimed:ehstate.obj
 0001:0011bc40       ?StateFromControlPc@__FrameHandler4@@SAHPEAUFuncInfo4@FH4@@PEAU_xDISPATCHER_CONTEXT@@@Z 000000003011cc40 f   libvcruntimed:ehstate.obj
 0001:0011bc90       ?StateFromIp@__FrameHandler3@@SAHPEBU_s_FuncInfo@@PEAU_xDISPATCHER_CONTEXT@@_K@Z 000000003011cc90 f   libvcruntimed:ehstate.obj
 0001:0011bdc0       ?StateFromIp@__FrameHandler4@@SAHPEAUFuncInfo4@FH4@@PEAU_xDISPATCHER_CONTEXT@@_K@Z 000000003011cdc0 f   libvcruntimed:ehstate.obj
 0001:0011bee0       ?__FuncRelToRealOffset@@YA_KPEAU_xDISPATCHER_CONTEXT@@I@Z 000000003011cee0 f i libvcruntimed:ehstate.obj
 0001:0011bf20       ?__RVAtoRealOffset@@YA_KPEAU_xDISPATCHER_CONTEXT@@H@Z 000000003011cf20 f i libvcruntimed:ehstate.obj
 0001:0011ea40       ??$TypeMatchHelper@V__FrameHandler3@@@@YAHPEBU_s_HandlerType@@PEBU_s_CatchableType@@PEBU_s_ThrowInfo@@@Z 000000003011fa40 f i libvcruntimed:frame.obj
 0001:0011ecc0       ??$TypeMatchHelper@V__FrameHandler4@@@@YAHPEAUHandlerType4@FH4@@PEBU_s_CatchableType@@PEBU_s_ThrowInfo@@@Z 000000003011fcc0 f i libvcruntimed:frame.obj
 0001:0011ef50       ??$__InternalCxxFrameHandler@V__FrameHandler3@@@@YA?AW4_EXCEPTION_DISPOSITION@@PEAUEHExceptionRecord@@PEA_KPEAU_CONTEXT@@PEAU_xDISPATCHER_CONTEXT@@PEBU_s_FuncInfo@@H1E@Z 000000003011ff50 f i libvcruntimed:frame.obj
 0001:0011f4e0       ??$__InternalCxxFrameHandler@V__FrameHandler4@@@@YA?AW4_EXCEPTION_DISPOSITION@@PEAUEHExceptionRecord@@PEA_KPEAU_CONTEXT@@PEAU_xDISPATCHER_CONTEXT@@PEAUFuncInfo4@FH4@@H1E@Z 00000000301204e0 f i libvcruntimed:frame.obj
 0001:0011faa0       ??0HandlerMap4@FH4@@QEAA@PEBUTryBlockMapEntry4@1@_KH@Z 0000000030120aa0 f i libvcruntimed:frame.obj
 0001:0011fb90       ??0HandlerMap@__FrameHandler3@@QEAA@PEBU_s_TryBlockMapEntry@@_KI@Z 0000000030120b90 f i libvcruntimed:frame.obj
 0001:0011fbf0       ??0HandlerType4@FH4@@QEAA@XZ 0000000030120bf0 f i libvcruntimed:frame.obj
 0001:0011fc20       ??0TryBlockMap4@FH4@@QEAA@PEBUFuncInfo4@1@_K@Z 0000000030120c20 f i libvcruntimed:frame.obj
 0001:0011fcd0       ??0TryBlockMap@__FrameHandler3@@QEAA@PEBU_s_FuncInfo@@_K@Z 0000000030120cd0 f i libvcruntimed:frame.obj
 0001:0011fd10       ??0UWMap4@FH4@@QEAA@PEBUFuncInfo4@1@_K@Z 0000000030120d10 f i libvcruntimed:frame.obj
 0001:0011fda0       ??0bad_exception@std@@QEAA@AEBV01@@Z 0000000030120da0 f i libvcruntimed:frame.obj
 0001:0011fdf0       ??0bad_exception@std@@QEAA@XZ 0000000030120df0 f i libvcruntimed:frame.obj
 0001:0011fe40       ??0exception@std@@QEAA@AEBV01@@Z 0000000030120e40 f i libvcruntimed:frame.obj
 0001:0011feb0       ??0exception@std@@QEAA@QEBDH@Z 0000000030120eb0 f i libvcruntimed:frame.obj
 0001:0011ff10       ??0iterator@HandlerMap4@FH4@@QEAA@AEAV12@I@Z 0000000030120f10 f i libvcruntimed:frame.obj
 0001:0011ff50       ??0iterator@HandlerMap@__FrameHandler3@@QEAA@AEAV12@I@Z 0000000030120f50 f i libvcruntimed:frame.obj
 0001:0011ff90       ??0iterator@UWMap4@FH4@@QEAA@AEAV12@PEAE@Z 0000000030120f90 f i libvcruntimed:frame.obj
 0001:0011ffd0       ??1bad_exception@std@@UEAA@XZ 0000000030120fd0 f i libvcruntimed:frame.obj
 0001:0011fff0       ??1exception@std@@UEAA@XZ  0000000030120ff0 f i libvcruntimed:frame.obj
 0001:00120030       ??4iterator@UWMap4@FH4@@QEAAAEAV012@AEBV012@@Z 0000000030121030 f i libvcruntimed:frame.obj
 0001:00120090       ??8iterator@HandlerMap4@FH4@@QEBA_NAEBV012@@Z 0000000030121090 f i libvcruntimed:frame.obj
 0001:001200e0       ??8iterator@HandlerMap@__FrameHandler3@@QEBA_NAEBV012@@Z 00000000301210e0 f i libvcruntimed:frame.obj
 0001:00120130       ??8type_info@@QEBA_NAEBV0@@Z 0000000030121130 f i libvcruntimed:frame.obj
 0001:00120190       ??9iterator@HandlerMap4@FH4@@QEBA_NAEBV012@@Z 0000000030121190 f i libvcruntimed:frame.obj
 0001:001201e0       ??9iterator@HandlerMap@__FrameHandler3@@QEBA_NAEBV012@@Z 00000000301211e0 f i libvcruntimed:frame.obj
 0001:00120230       ??Diterator@HandlerMap4@FH4@@QEAA?AUHandlerType4@2@XZ 0000000030121230 f i libvcruntimed:frame.obj
 0001:00120270       ??Diterator@HandlerMap@__FrameHandler3@@QEAA?BU_s_HandlerType@@XZ 0000000030121270 f i libvcruntimed:frame.obj
 0001:001202c0       ??Diterator@TryBlockMap@__FrameHandler3@@QEAA?BU_s_TryBlockMapEntry@@XZ 00000000301212c0 f i libvcruntimed:frame.obj
 0001:00120330       ??Diterator@UWMap4@FH4@@QEAA?AUUnwindMapEntry4@2@XZ 0000000030121330 f i libvcruntimed:frame.obj
 0001:001203c0       ??Eiterator@HandlerMap4@FH4@@QEAAAEAV012@XZ 00000000301213c0 f i libvcruntimed:frame.obj
 0001:00120400       ??Eiterator@HandlerMap@__FrameHandler3@@QEAAAEAV012@XZ 0000000030121400 f i libvcruntimed:frame.obj
 0001:00120430       ??Eiterator@TryBlockMap@__FrameHandler3@@QEAAAEAV012@XZ 0000000030121430 f i libvcruntimed:frame.obj
 0001:00120460       ??Eiterator@UWMap4@FH4@@QEAAAEAV012@XZ 0000000030121460 f i libvcruntimed:frame.obj
 0001:001204b0       ??Giterator@UWMap4@FH4@@QEBA_JAEBV012@@Z 00000000301214b0 f i libvcruntimed:frame.obj
 0001:001204e0       ??Miterator@TryBlockMap4@FH4@@QEBA_NAEBV012@@Z 00000000301214e0 f i libvcruntimed:frame.obj
 0001:00120530       ??Miterator@TryBlockMap@__FrameHandler3@@QEBA_NAEBV012@@Z 0000000030121530 f i libvcruntimed:frame.obj
 0001:00120580       ??Oiterator@UWMap4@FH4@@QEBA_NAEBV012@@Z 0000000030121580 f i libvcruntimed:frame.obj
 0001:001205d0       ??Piterator@UWMap4@FH4@@QEBA_NAEBV012@@Z 00000000301215d0 f i libvcruntimed:frame.obj
 0001:00120620       ??_Gbad_exception@std@@UEAAPEAXI@Z 0000000030121620 f i libvcruntimed:frame.obj
 0001:00120620       ??_Ebad_exception@std@@UEAAPEAXI@Z 0000000030121620 f i libvcruntimed:frame.obj
 0001:00120670       ??_Eexception@std@@UEAAPEAXI@Z 0000000030121670 f i libvcruntimed:frame.obj
 0001:00120670       ??_Gexception@std@@UEAAPEAXI@Z 0000000030121670 f i libvcruntimed:frame.obj
 0001:001206c0       ?BuildCatchObject@__FrameHandler3@@SAXPEAUEHExceptionRecord@@PEAXPEBU_s_HandlerType@@PEBU_s_CatchableType@@@Z 00000000301216c0 f   libvcruntimed:frame.obj
 0001:00120710       ?BuildCatchObject@__FrameHandler4@@SAXPEAUEHExceptionRecord@@PEAXPEAUHandlerType4@FH4@@PEBU_s_CatchableType@@@Z 0000000030121710 f   libvcruntimed:frame.obj
 0001:00120760       ?BuildCatchObjectHelper@__FrameHandler3@@SAHPEAUEHExceptionRecord@@PEAXPEBU_s_HandlerType@@PEBU_s_CatchableType@@@Z 0000000030121760 f   libvcruntimed:frame.obj
 0001:001207b0       ?BuildCatchObjectHelper@__FrameHandler4@@SAHPEAUEHExceptionRecord@@PEAXPEAUHandlerType4@FH4@@PEBU_s_CatchableType@@@Z 00000000301217b0 f   libvcruntimed:frame.obj
 0001:00120800       ?CxxCallCatchBlock@__FrameHandler3@@SAPEAXPEAU_EXCEPTION_RECORD@@@Z 0000000030121800 f   libvcruntimed:frame.obj
 0001:00120af0       ?CxxCallCatchBlock@__FrameHandler4@@SAPEAXPEAU_EXCEPTION_RECORD@@@Z 0000000030121af0 f   libvcruntimed:frame.obj
 0001:00120ee0       ?DecompHandler@HandlerMap4@FH4@@AEAAXXZ 0000000030121ee0 f i libvcruntimed:frame.obj
 0001:00121390       ?FrameUnwindToState@__FrameHandler3@@SAXPEA_KPEAU_xDISPATCHER_CONTEXT@@PEBU_s_FuncInfo@@H@Z 0000000030122390 f   libvcruntimed:frame.obj
 0001:00121670       ?FrameUnwindToState@__FrameHandler4@@SAXPEA_KPEAU_xDISPATCHER_CONTEXT@@PEAUFuncInfo4@FH4@@H@Z 0000000030122670 f   libvcruntimed:frame.obj
 0001:00121a40       ?GetHandlerSearchState@__FrameHandler3@@SAHPEA_KPEAU_xDISPATCHER_CONTEXT@@PEBU_s_FuncInfo@@@Z 0000000030122a40 f i libvcruntimed:frame.obj
 0001:00121b20       ?GetHandlerSearchState@__FrameHandler4@@SAHPEA_KPEAU_xDISPATCHER_CONTEXT@@PEAUFuncInfo4@FH4@@@Z 0000000030122b20 f i libvcruntimed:frame.obj
 0001:00121bc0       ?GetMaxState@__FrameHandler3@@SAHPEAU_xDISPATCHER_CONTEXT@@PEBU_s_FuncInfo@@@Z 0000000030122bc0 f i libvcruntimed:frame.obj
 0001:00121be0       ?GetMaxState@__FrameHandler4@@SAHPEAU_xDISPATCHER_CONTEXT@@PEAUFuncInfo4@FH4@@@Z 0000000030122be0 f i libvcruntimed:frame.obj
 0001:00121e90       ?ReadEntry@UWMap4@FH4@@AEAAXPEAPEAE@Z 0000000030122e90 f i libvcruntimed:frame.obj
 0001:00121f60       ?TypeMatch@__FrameHandler3@@SAHPEBU_s_HandlerType@@PEBU_s_CatchableType@@PEBU_s_ThrowInfo@@@Z 0000000030122f60 f   libvcruntimed:frame.obj
 0001:00121fa0       ?TypeMatch@__FrameHandler4@@SAHPEAUHandlerType4@FH4@@PEBU_s_CatchableType@@PEBU_s_ThrowInfo@@@Z 0000000030122fa0 f   libvcruntimed:frame.obj
 0001:00121fe0       ?WalkBack@UWMap4@FH4@@AEAAXPEAPEAE@Z 0000000030122fe0 f i libvcruntimed:frame.obj
 0001:00122040       ?WalkBack@iterator@UWMap4@FH4@@QEAAXXZ 0000000030123040 f i libvcruntimed:frame.obj
 0001:00122080       ?WalkForward@UWMap4@FH4@@AEAAXPEAPEAE@Z 0000000030123080 f i libvcruntimed:frame.obj
 0001:001220b0       ?_CallMemberFunction1@@YAXQEAX00@Z 00000000301230b0 f i libvcruntimed:frame.obj
 0001:00122100       ?_CallMemberFunction2@@YAXQEAX00H@Z 0000000030123100 f i libvcruntimed:frame.obj
 0001:001221b0       ?begin@HandlerMap4@FH4@@QEAA?AViterator@12@XZ 00000000301231b0 f i libvcruntimed:frame.obj
 0001:001221f0       ?begin@HandlerMap@__FrameHandler3@@QEAA?AViterator@12@XZ 00000000301231f0 f i libvcruntimed:frame.obj
 0001:00122230       ?begin@UWMap4@FH4@@QEAA?AViterator@12@XZ 0000000030123230 f i libvcruntimed:frame.obj
 0001:00122270       ?end@HandlerMap4@FH4@@QEAA?AViterator@12@XZ 0000000030123270 f i libvcruntimed:frame.obj
 0001:001222b0       ?end@HandlerMap@__FrameHandler3@@QEAA?AViterator@12@XZ 00000000301232b0 f i libvcruntimed:frame.obj
 0001:001222f0       ?getESTypes@__FrameHandler3@@SAPEBU_s_ESTypeList@@PEBU_s_FuncInfo@@@Z 00000000301232f0 f i libvcruntimed:frame.obj
 0001:00122340       ?getESTypes@__FrameHandler4@@SAPEBU_s_ESTypeList@@PEAUFuncInfo4@FH4@@@Z 0000000030123340 f i libvcruntimed:frame.obj
 0001:00122350       ?getLastEntry@HandlerMap4@FH4@@QEAAPEAUHandlerType4@2@XZ 0000000030123350 f i libvcruntimed:frame.obj
 0001:001223a0       ?getLastEntry@HandlerMap@__FrameHandler3@@QEAAPEBU_s_HandlerType@@XZ 00000000301233a0 f i libvcruntimed:frame.obj
 0001:001223d0       ?getMagicNum@__FrameHandler3@@SAIPEBU_s_FuncInfo@@@Z 00000000301233d0 f i libvcruntimed:frame.obj
 0001:001223f0       ?getMagicNum@__FrameHandler4@@SAIPEAUFuncInfo4@FH4@@@Z 00000000301233f0 f i libvcruntimed:frame.obj
 0001:00122400       ?getNumTryBlocks@TryBlockMap4@FH4@@QEAAIXZ 0000000030123400 f i libvcruntimed:frame.obj
 0001:00122410       ?getNumTryBlocks@TryBlockMap@__FrameHandler3@@QEAAIXZ 0000000030123410 f i libvcruntimed:frame.obj
 0001:00122430       ?getStartStop@UWMap4@FH4@@QEAAXHHAEAViterator@12@0@Z 0000000030123430 f i libvcruntimed:frame.obj
 0001:00122590       ?getStateFromIterators@UWMap4@FH4@@SAHAEBViterator@12@H0H0@Z 0000000030123590 f i libvcruntimed:frame.obj
 0001:00122720       ?isEHs@__FrameHandler3@@SA_NPEBU_s_FuncInfo@@@Z 0000000030123720 f i libvcruntimed:frame.obj
 0001:00122760       ?isEHs@__FrameHandler4@@SA_NPEAUFuncInfo4@FH4@@@Z 0000000030123760 f i libvcruntimed:frame.obj
 0001:00122780       ?isNoExcept@__FrameHandler3@@SA_NPEBU_s_FuncInfo@@@Z 0000000030123780 f i libvcruntimed:frame.obj
 0001:001227c0       ?isNoExcept@__FrameHandler4@@SA_NPEAUFuncInfo4@FH4@@@Z 00000000301237c0 f i libvcruntimed:frame.obj
 0001:001227e0       ?reset@HandlerType4@FH4@@QEAAXXZ 00000000301237e0 f i libvcruntimed:frame.obj
 0001:00122860       ?resetBuffer@HandlerMap4@FH4@@QEAAXXZ 0000000030123860 f i libvcruntimed:frame.obj
 0001:00122880       ?setBuffer@HandlerMap4@FH4@@QEAAXI@Z 0000000030123880 f i libvcruntimed:frame.obj
 0001:001228f0       ?what@exception@std@@UEBAPEBDXZ 00000000301238f0 f i libvcruntimed:frame.obj
 0001:00122940       __BuildCatchObject         0000000030123940 f   libvcruntimed:frame.obj
 0001:00122990       __BuildCatchObjectHelper   0000000030123990 f   libvcruntimed:frame.obj
 0001:001229e0       __TypeMatch                00000000301239e0 f   libvcruntimed:frame.obj
 0001:00122a20       __vcrt_EncodePointer       0000000030123a20 f i libvcruntimed:frame.obj
 0001:00122a50       _CallSettingFrame          0000000030123a50 f   libvcruntimed:handlers.obj
 0001:00122aa0       _CallSettingFrame_LookupContinuationIndex 0000000030123aa0 f   libvcruntimed:handlers.obj
 0001:00122ad0       _CallSettingFrame_NotifyContinuationAddr 0000000030123ad0 f   libvcruntimed:handlers.obj
 0001:00122b00       _CallSettingFrameEncoded   0000000030123b00 f   libvcruntimed:handlers.obj
 0001:00122b90       ??$?RD@__crt_public_free_policy@@QEBAXQEBD@Z 0000000030123b90 f i libvcruntimed:std_exception.obj
 0001:00122bc0       ??0?$__crt_unique_heap_ptr@DU__crt_public_free_policy@@@@QEAA@QEAD@Z 0000000030123bc0 f i libvcruntimed:std_exception.obj
 0001:00122bf0       ??1?$__crt_unique_heap_ptr@DU__crt_public_free_policy@@@@QEAA@XZ 0000000030123bf0 f i libvcruntimed:std_exception.obj
 0001:00122c10       ??B?$__crt_unique_heap_ptr@DU__crt_public_free_policy@@@@QEBA_NXZ 0000000030123c10 f i libvcruntimed:std_exception.obj
 0001:00122c30       ?detach@?$__crt_unique_heap_ptr@DU__crt_public_free_policy@@@@QEAAPEADXZ 0000000030123c30 f i libvcruntimed:std_exception.obj
 0001:00122c70       ?get@?$__crt_unique_heap_ptr@DU__crt_public_free_policy@@@@QEBAPEADXZ 0000000030123c70 f i libvcruntimed:std_exception.obj
 0001:00122c90       ?is_valid@?$__crt_unique_heap_ptr@DU__crt_public_free_policy@@@@QEBA_NXZ 0000000030123c90 f i libvcruntimed:std_exception.obj
 0001:00122cd0       ?release@?$__crt_unique_heap_ptr@DU__crt_public_free_policy@@@@QEAAXXZ 0000000030123cd0 f i libvcruntimed:std_exception.obj
 0001:00122d10       __std_exception_copy       0000000030123d10 f   libvcruntimed:std_exception.obj
 0001:00122ea0       __std_exception_destroy    0000000030123ea0 f   libvcruntimed:std_exception.obj
 0001:00122ef0       _CxxThrowException         0000000030123ef0 f   libvcruntimed:throw.obj
 0001:00123070       ??$?0AEBV?$stream_output_adapter@D@__crt_stdio_output@@AEB_KAEBQEBDAEBQEAU__crt_locale_pointers@@AEBQEAD@?$format_validation_base@DV?$stream_output_adapter@D@__crt_stdio_output@@@__crt_stdio_output@@IEAA@AEBV?$stream_output_adapter@D@1@AEB_KAEBQEBDAEBQEAU__crt_locale_pointers@@AEBQEAD@Z 0000000030124070 f i libucrtd:output.obj
 0001:001230e0       ??$?0AEBV?$stream_output_adapter@D@__crt_stdio_output@@AEB_KAEBQEBDAEBQEAU__crt_locale_pointers@@AEBQEAD@?$positional_parameter_base@DV?$stream_output_adapter@D@__crt_stdio_output@@@__crt_stdio_output@@IEAA@AEBV?$stream_output_adapter@D@1@AEB_KAEBQEBDAEBQEAU__crt_locale_pointers@@AEBQEAD@Z 00000000301240e0 f i libucrtd:output.obj
 0001:001231b0       ??$?0AEBV?$stream_output_adapter@D@__crt_stdio_output@@AEB_KAEBQEBDAEBQEAU__crt_locale_pointers@@AEBQEAD@?$standard_base@DV?$stream_output_adapter@D@__crt_stdio_output@@@__crt_stdio_output@@IEAA@AEBV?$stream_output_adapter@D@1@AEB_KAEBQEBDAEBQEAU__crt_locale_pointers@@AEBQEAD@Z 00000000301241b0 f i libucrtd:output.obj
 0001:00123240       ??$?0AEBV?$stream_output_adapter@_W@__crt_stdio_output@@AEB_KAEBQEB_WAEBQEAU__crt_locale_pointers@@AEBQEAD@?$format_validation_base@_WV?$stream_output_adapter@_W@__crt_stdio_output@@@__crt_stdio_output@@IEAA@AEBV?$stream_output_adapter@_W@1@AEB_KAEBQEB_WAEBQEAU__crt_locale_pointers@@AEBQEAD@Z 0000000030124240 f i libucrtd:output.obj
 0001:001232b0       ??$?0AEBV?$stream_output_adapter@_W@__crt_stdio_output@@AEB_KAEBQEB_WAEBQEAU__crt_locale_pointers@@AEBQEAD@?$positional_parameter_base@_WV?$stream_output_adapter@_W@__crt_stdio_output@@@__crt_stdio_output@@IEAA@AEBV?$stream_output_adapter@_W@1@AEB_KAEBQEB_WAEBQEAU__crt_locale_pointers@@AEBQEAD@Z 00000000301242b0 f i libucrtd:output.obj
 0001:00123380       ??$?0AEBV?$stream_output_adapter@_W@__crt_stdio_output@@AEB_KAEBQEB_WAEBQEAU__crt_locale_pointers@@AEBQEAD@?$standard_base@_WV?$stream_output_adapter@_W@__crt_stdio_output@@@__crt_stdio_output@@IEAA@AEBV?$stream_output_adapter@_W@1@AEB_KAEBQEB_WAEBQEAU__crt_locale_pointers@@AEBQEAD@Z 0000000030124380 f i libucrtd:output.obj
 0001:00123410       ??$?0AEBV?$string_output_adapter@D@__crt_stdio_output@@AEB_KAEBQEBDAEBQEAU__crt_locale_pointers@@AEBQEAD@?$format_validation_base@DV?$string_output_adapter@D@__crt_stdio_output@@@__crt_stdio_output@@IEAA@AEBV?$string_output_adapter@D@1@AEB_KAEBQEBDAEBQEAU__crt_locale_pointers@@AEBQEAD@Z 0000000030124410 f i libucrtd:output.obj
 0001:00123480       ??$?0AEBV?$string_output_adapter@D@__crt_stdio_output@@AEB_KAEBQEBDAEBQEAU__crt_locale_pointers@@AEBQEAD@?$positional_parameter_base@DV?$string_output_adapter@D@__crt_stdio_output@@@__crt_stdio_output@@IEAA@AEBV?$string_output_adapter@D@1@AEB_KAEBQEBDAEBQEAU__crt_locale_pointers@@AEBQEAD@Z 0000000030124480 f i libucrtd:output.obj
 0001:00123550       ??$?0AEBV?$string_output_adapter@D@__crt_stdio_output@@AEB_KAEBQEBDAEBQEAU__crt_locale_pointers@@AEBQEAD@?$standard_base@DV?$string_output_adapter@D@__crt_stdio_output@@@__crt_stdio_output@@IEAA@AEBV?$string_output_adapter@D@1@AEB_KAEBQEBDAEBQEAU__crt_locale_pointers@@AEBQEAD@Z 0000000030124550 f i libucrtd:output.obj
 0001:001235e0       ??$?0AEBV?$string_output_adapter@_W@__crt_stdio_output@@AEB_KAEBQEB_WAEBQEAU__crt_locale_pointers@@AEBQEAD@?$format_validation_base@_WV?$string_output_adapter@_W@__crt_stdio_output@@@__crt_stdio_output@@IEAA@AEBV?$string_output_adapter@_W@1@AEB_KAEBQEB_WAEBQEAU__crt_locale_pointers@@AEBQEAD@Z 00000000301245e0 f i libucrtd:output.obj
 0001:00123650       ??$?0AEBV?$string_output_adapter@_W@__crt_stdio_output@@AEB_KAEBQEB_WAEBQEAU__crt_locale_pointers@@AEBQEAD@?$positional_parameter_base@_WV?$string_output_adapter@_W@__crt_stdio_output@@@__crt_stdio_output@@IEAA@AEBV?$string_output_adapter@_W@1@AEB_KAEBQEB_WAEBQEAU__crt_locale_pointers@@AEBQEAD@Z 0000000030124650 f i libucrtd:output.obj
 0001:00123720       ??$?0AEBV?$string_output_adapter@_W@__crt_stdio_output@@AEB_KAEBQEB_WAEBQEAU__crt_locale_pointers@@AEBQEAD@?$standard_base@_WV?$string_output_adapter@_W@__crt_stdio_output@@@__crt_stdio_output@@IEAA@AEBV?$string_output_adapter@_W@1@AEB_KAEBQEB_WAEBQEAU__crt_locale_pointers@@AEBQEAD@Z 0000000030124720 f i libucrtd:output.obj
 0001:00123c90       ??$__crt_interlocked_read@J@@YAJPEDJ@Z 0000000030124c90 f i libucrtd:output.obj
 0001:00128600       ??$count@D@formatting_buffer@__crt_stdio_output@@QEBA_KXZ 0000000030129600 f i libucrtd:output.obj
 0001:00128660       ??$count@_W@formatting_buffer@__crt_stdio_output@@QEBA_KXZ 0000000030129660 f i libucrtd:output.obj
 0001:001286d0       ??$data@D@formatting_buffer@__crt_stdio_output@@QEAAPEADXZ 00000000301296d0 f i libucrtd:output.obj
 0001:00128730       ??$data@_W@formatting_buffer@__crt_stdio_output@@QEAAPEA_WXZ 0000000030129730 f i libucrtd:output.obj
 0001:00128790       ??$ensure_buffer_is_big_enough@D@formatting_buffer@__crt_stdio_output@@QEAA_N_K@Z 0000000030129790 f i libucrtd:output.obj
 0001:00128900       ??$ensure_buffer_is_big_enough@_W@formatting_buffer@__crt_stdio_output@@QEAA_N_K@Z 0000000030129900 f i libucrtd:output.obj
 0001:00128a80       ??$extract_argument_from_va_list@C_J@?$positional_parameter_base@DV?$stream_output_adapter@D@__crt_stdio_output@@@__crt_stdio_output@@IEAA_NAEA_J@Z 0000000030129a80 f i libucrtd:output.obj
 0001:00128c60       ??$extract_argument_from_va_list@C_J@?$positional_parameter_base@DV?$string_output_adapter@D@__crt_stdio_output@@@__crt_stdio_output@@IEAA_NAEA_J@Z 0000000030129c60 f i libucrtd:output.obj
 0001:00128e40       ??$extract_argument_from_va_list@C_J@?$positional_parameter_base@_WV?$stream_output_adapter@_W@__crt_stdio_output@@@__crt_stdio_output@@IEAA_NAEA_J@Z 0000000030129e40 f i libucrtd:output.obj
 0001:00129020       ??$extract_argument_from_va_list@C_J@?$positional_parameter_base@_WV?$string_output_adapter@_W@__crt_stdio_output@@@__crt_stdio_output@@IEAA_NAEA_J@Z 000000003012a020 f i libucrtd:output.obj
 0001:00129200       ??$extract_argument_from_va_list@C_J@?$standard_base@DV?$stream_output_adapter@D@__crt_stdio_output@@@__crt_stdio_output@@IEAA_NAEA_J@Z 000000003012a200 f i libucrtd:output.obj
 0001:00129240       ??$extract_argument_from_va_list@C_J@?$standard_base@DV?$string_output_adapter@D@__crt_stdio_output@@@__crt_stdio_output@@IEAA_NAEA_J@Z 000000003012a240 f i libucrtd:output.obj
 0001:00129280       ??$extract_argument_from_va_list@C_J@?$standard_base@_WV?$stream_output_adapter@_W@__crt_stdio_output@@@__crt_stdio_output@@IEAA_NAEA_J@Z 000000003012a280 f i libucrtd:output.obj
 0001:001292c0       ??$extract_argument_from_va_list@C_J@?$standard_base@_WV?$string_output_adapter@_W@__crt_stdio_output@@@__crt_stdio_output@@IEAA_NAEA_J@Z 000000003012a2c0 f i libucrtd:output.obj
 0001:00129300       ??$extract_argument_from_va_list@E_J@?$positional_parameter_base@DV?$stream_output_adapter@D@__crt_stdio_output@@@__crt_stdio_output@@IEAA_NAEA_J@Z 000000003012a300 f i libucrtd:output.obj
 0001:001294e0       ??$extract_argument_from_va_list@E_J@?$positional_parameter_base@DV?$string_output_adapter@D@__crt_stdio_output@@@__crt_stdio_output@@IEAA_NAEA_J@Z 000000003012a4e0 f i libucrtd:output.obj
 0001:001296c0       ??$extract_argument_from_va_list@E_J@?$positional_parameter_base@_WV?$stream_output_adapter@_W@__crt_stdio_output@@@__crt_stdio_output@@IEAA_NAEA_J@Z 000000003012a6c0 f i libucrtd:output.obj
 0001:001298a0       ??$extract_argument_from_va_list@E_J@?$positional_parameter_base@_WV?$string_output_adapter@_W@__crt_stdio_output@@@__crt_stdio_output@@IEAA_NAEA_J@Z 000000003012a8a0 f i libucrtd:output.obj
 0001:00129a80       ??$extract_argument_from_va_list@E_J@?$standard_base@DV?$stream_output_adapter@D@__crt_stdio_output@@@__crt_stdio_output@@IEAA_NAEA_J@Z 000000003012aa80 f i libucrtd:output.obj
 0001:00129ac0       ??$extract_argument_from_va_list@E_J@?$standard_base@DV?$string_output_adapter@D@__crt_stdio_output@@@__crt_stdio_output@@IEAA_NAEA_J@Z 000000003012aac0 f i libucrtd:output.obj
 0001:00129b00       ??$extract_argument_from_va_list@E_J@?$standard_base@_WV?$stream_output_adapter@_W@__crt_stdio_output@@@__crt_stdio_output@@IEAA_NAEA_J@Z 000000003012ab00 f i libucrtd:output.obj
 0001:00129b40       ??$extract_argument_from_va_list@E_J@?$standard_base@_WV?$string_output_adapter@_W@__crt_stdio_output@@@__crt_stdio_output@@IEAA_NAEA_J@Z 000000003012ab40 f i libucrtd:output.obj
 0001:00129b80       ??$extract_argument_from_va_list@F_J@?$positional_parameter_base@DV?$stream_output_adapter@D@__crt_stdio_output@@@__crt_stdio_output@@IEAA_NAEA_J@Z 000000003012ab80 f i libucrtd:output.obj
 0001:00129d60       ??$extract_argument_from_va_list@F_J@?$positional_parameter_base@DV?$string_output_adapter@D@__crt_stdio_output@@@__crt_stdio_output@@IEAA_NAEA_J@Z 000000003012ad60 f i libucrtd:output.obj
 0001:00129f40       ??$extract_argument_from_va_list@F_J@?$positional_parameter_base@_WV?$stream_output_adapter@_W@__crt_stdio_output@@@__crt_stdio_output@@IEAA_NAEA_J@Z 000000003012af40 f i libucrtd:output.obj
 0001:0012a120       ??$extract_argument_from_va_list@F_J@?$positional_parameter_base@_WV?$string_output_adapter@_W@__crt_stdio_output@@@__crt_stdio_output@@IEAA_NAEA_J@Z 000000003012b120 f i libucrtd:output.obj
 0001:0012a300       ??$extract_argument_from_va_list@F_J@?$standard_base@DV?$stream_output_adapter@D@__crt_stdio_output@@@__crt_stdio_output@@IEAA_NAEA_J@Z 000000003012b300 f i libucrtd:output.obj
 0001:0012a340       ??$extract_argument_from_va_list@F_J@?$standard_base@DV?$string_output_adapter@D@__crt_stdio_output@@@__crt_stdio_output@@IEAA_NAEA_J@Z 000000003012b340 f i libucrtd:output.obj
 0001:0012a380       ??$extract_argument_from_va_list@F_J@?$standard_base@_WV?$stream_output_adapter@_W@__crt_stdio_output@@@__crt_stdio_output@@IEAA_NAEA_J@Z 000000003012b380 f i libucrtd:output.obj
 0001:0012a3c0       ??$extract_argument_from_va_list@F_J@?$standard_base@_WV?$string_output_adapter@_W@__crt_stdio_output@@@__crt_stdio_output@@IEAA_NAEA_J@Z 000000003012b3c0 f i libucrtd:output.obj
 0001:0012a400       ??$extract_argument_from_va_list@GD@?$positional_parameter_base@DV?$stream_output_adapter@D@__crt_stdio_output@@@__crt_stdio_output@@IEAA_NAEAD@Z 000000003012b400 f i libucrtd:output.obj
 0001:0012a5e0       ??$extract_argument_from_va_list@GD@?$positional_parameter_base@DV?$string_output_adapter@D@__crt_stdio_output@@@__crt_stdio_output@@IEAA_NAEAD@Z 000000003012b5e0 f i libucrtd:output.obj
 0001:0012a7c0       ??$extract_argument_from_va_list@GD@?$standard_base@DV?$stream_output_adapter@D@__crt_stdio_output@@@__crt_stdio_output@@IEAA_NAEAD@Z 000000003012b7c0 f i libucrtd:output.obj
 0001:0012a800       ??$extract_argument_from_va_list@GD@?$standard_base@DV?$string_output_adapter@D@__crt_stdio_output@@@__crt_stdio_output@@IEAA_NAEAD@Z 000000003012b800 f i libucrtd:output.obj
 0001:0012a840       ??$extract_argument_from_va_list@G_J@?$positional_parameter_base@DV?$stream_output_adapter@D@__crt_stdio_output@@@__crt_stdio_output@@IEAA_NAEA_J@Z 000000003012b840 f i libucrtd:output.obj
 0001:0012aa20       ??$extract_argument_from_va_list@G_J@?$positional_parameter_base@DV?$string_output_adapter@D@__crt_stdio_output@@@__crt_stdio_output@@IEAA_NAEA_J@Z 000000003012ba20 f i libucrtd:output.obj
 0001:0012ac00       ??$extract_argument_from_va_list@G_J@?$positional_parameter_base@_WV?$stream_output_adapter@_W@__crt_stdio_output@@@__crt_stdio_output@@IEAA_NAEA_J@Z 000000003012bc00 f i libucrtd:output.obj
 0001:0012ade0       ??$extract_argument_from_va_list@G_J@?$positional_parameter_base@_WV?$string_output_adapter@_W@__crt_stdio_output@@@__crt_stdio_output@@IEAA_NAEA_J@Z 000000003012bde0 f i libucrtd:output.obj
 0001:0012afc0       ??$extract_argument_from_va_list@G_J@?$standard_base@DV?$stream_output_adapter@D@__crt_stdio_output@@@__crt_stdio_output@@IEAA_NAEA_J@Z 000000003012bfc0 f i libucrtd:output.obj
 0001:0012b000       ??$extract_argument_from_va_list@G_J@?$standard_base@DV?$string_output_adapter@D@__crt_stdio_output@@@__crt_stdio_output@@IEAA_NAEA_J@Z 000000003012c000 f i libucrtd:output.obj
 0001:0012b040       ??$extract_argument_from_va_list@G_J@?$standard_base@_WV?$stream_output_adapter@_W@__crt_stdio_output@@@__crt_stdio_output@@IEAA_NAEA_J@Z 000000003012c040 f i libucrtd:output.obj
 0001:0012b080       ??$extract_argument_from_va_list@G_J@?$standard_base@_WV?$string_output_adapter@_W@__crt_stdio_output@@@__crt_stdio_output@@IEAA_NAEA_J@Z 000000003012c080 f i libucrtd:output.obj
 0001:0012b0c0       ??$extract_argument_from_va_list@H_J@?$positional_parameter_base@DV?$stream_output_adapter@D@__crt_stdio_output@@@__crt_stdio_output@@IEAA_NAEA_J@Z 000000003012c0c0 f i libucrtd:output.obj
 0001:0012b2a0       ??$extract_argument_from_va_list@H_J@?$positional_parameter_base@DV?$string_output_adapter@D@__crt_stdio_output@@@__crt_stdio_output@@IEAA_NAEA_J@Z 000000003012c2a0 f i libucrtd:output.obj
 0001:0012b480       ??$extract_argument_from_va_list@H_J@?$positional_parameter_base@_WV?$stream_output_adapter@_W@__crt_stdio_output@@@__crt_stdio_output@@IEAA_NAEA_J@Z 000000003012c480 f i libucrtd:output.obj
 0001:0012b660       ??$extract_argument_from_va_list@H_J@?$positional_parameter_base@_WV?$string_output_adapter@_W@__crt_stdio_output@@@__crt_stdio_output@@IEAA_NAEA_J@Z 000000003012c660 f i libucrtd:output.obj
 0001:0012b840       ??$extract_argument_from_va_list@H_J@?$standard_base@DV?$stream_output_adapter@D@__crt_stdio_output@@@__crt_stdio_output@@IEAA_NAEA_J@Z 000000003012c840 f i libucrtd:output.obj
 0001:0012b880       ??$extract_argument_from_va_list@H_J@?$standard_base@DV?$string_output_adapter@D@__crt_stdio_output@@@__crt_stdio_output@@IEAA_NAEA_J@Z 000000003012c880 f i libucrtd:output.obj
 0001:0012b8c0       ??$extract_argument_from_va_list@H_J@?$standard_base@_WV?$stream_output_adapter@_W@__crt_stdio_output@@@__crt_stdio_output@@IEAA_NAEA_J@Z 000000003012c8c0 f i libucrtd:output.obj
 0001:0012b900       ??$extract_argument_from_va_list@H_J@?$standard_base@_WV?$string_output_adapter@_W@__crt_stdio_output@@@__crt_stdio_output@@IEAA_NAEA_J@Z 000000003012c900 f i libucrtd:output.obj
 0001:0012b940       ??$extract_argument_from_va_list@I_J@?$positional_parameter_base@DV?$stream_output_adapter@D@__crt_stdio_output@@@__crt_stdio_output@@IEAA_NAEA_J@Z 000000003012c940 f i libucrtd:output.obj
 0001:0012bb20       ??$extract_argument_from_va_list@I_J@?$positional_parameter_base@DV?$string_output_adapter@D@__crt_stdio_output@@@__crt_stdio_output@@IEAA_NAEA_J@Z 000000003012cb20 f i libucrtd:output.obj
 0001:0012bd00       ??$extract_argument_from_va_list@I_J@?$positional_parameter_base@_WV?$stream_output_adapter@_W@__crt_stdio_output@@@__crt_stdio_output@@IEAA_NAEA_J@Z 000000003012cd00 f i libucrtd:output.obj
 0001:0012bee0       ??$extract_argument_from_va_list@I_J@?$positional_parameter_base@_WV?$string_output_adapter@_W@__crt_stdio_output@@@__crt_stdio_output@@IEAA_NAEA_J@Z 000000003012cee0 f i libucrtd:output.obj
 0001:0012c0c0       ??$extract_argument_from_va_list@I_J@?$standard_base@DV?$stream_output_adapter@D@__crt_stdio_output@@@__crt_stdio_output@@IEAA_NAEA_J@Z 000000003012d0c0 f i libucrtd:output.obj
 0001:0012c100       ??$extract_argument_from_va_list@I_J@?$standard_base@DV?$string_output_adapter@D@__crt_stdio_output@@@__crt_stdio_output@@IEAA_NAEA_J@Z 000000003012d100 f i libucrtd:output.obj
 0001:0012c140       ??$extract_argument_from_va_list@I_J@?$standard_base@_WV?$stream_output_adapter@_W@__crt_stdio_output@@@__crt_stdio_output@@IEAA_NAEA_J@Z 000000003012d140 f i libucrtd:output.obj
 0001:0012c180       ??$extract_argument_from_va_list@I_J@?$standard_base@_WV?$string_output_adapter@_W@__crt_stdio_output@@@__crt_stdio_output@@IEAA_NAEA_J@Z 000000003012d180 f i libucrtd:output.obj
 0001:0012c1c0       ??$extract_argument_from_va_list@PEADPEAD@?$positional_parameter_base@DV?$stream_output_adapter@D@__crt_stdio_output@@@__crt_stdio_output@@IEAA_NAEAPEAD@Z 000000003012d1c0 f i libucrtd:output.obj
 0001:0012c3a0       ??$extract_argument_from_va_list@PEADPEAD@?$positional_parameter_base@DV?$string_output_adapter@D@__crt_stdio_output@@@__crt_stdio_output@@IEAA_NAEAPEAD@Z 000000003012d3a0 f i libucrtd:output.obj
 0001:0012c580       ??$extract_argument_from_va_list@PEADPEAD@?$positional_parameter_base@_WV?$stream_output_adapter@_W@__crt_stdio_output@@@__crt_stdio_output@@IEAA_NAEAPEAD@Z 000000003012d580 f i libucrtd:output.obj
 0001:0012c760       ??$extract_argument_from_va_list@PEADPEAD@?$positional_parameter_base@_WV?$string_output_adapter@_W@__crt_stdio_output@@@__crt_stdio_output@@IEAA_NAEAPEAD@Z 000000003012d760 f i libucrtd:output.obj
 0001:0012c940       ??$extract_argument_from_va_list@PEADPEAD@?$standard_base@DV?$stream_output_adapter@D@__crt_stdio_output@@@__crt_stdio_output@@IEAA_NAEAPEAD@Z 000000003012d940 f i libucrtd:output.obj
 0001:0012c980       ??$extract_argument_from_va_list@PEADPEAD@?$standard_base@DV?$string_output_adapter@D@__crt_stdio_output@@@__crt_stdio_output@@IEAA_NAEAPEAD@Z 000000003012d980 f i libucrtd:output.obj
 0001:0012c9c0       ??$extract_argument_from_va_list@PEADPEAD@?$standard_base@_WV?$stream_output_adapter@_W@__crt_stdio_output@@@__crt_stdio_output@@IEAA_NAEAPEAD@Z 000000003012d9c0 f i libucrtd:output.obj
 0001:0012ca00       ??$extract_argument_from_va_list@PEADPEAD@?$standard_base@_WV?$string_output_adapter@_W@__crt_stdio_output@@@__crt_stdio_output@@IEAA_NAEAPEAD@Z 000000003012da00 f i libucrtd:output.obj
 0001:0012d4c0       ??$extract_argument_from_va_list@PEAXPEAX@?$positional_parameter_base@DV?$stream_output_adapter@D@__crt_stdio_output@@@__crt_stdio_output@@IEAA_NAEAPEAX@Z 000000003012e4c0 f i libucrtd:output.obj
 0001:0012d6a0       ??$extract_argument_from_va_list@PEAXPEAX@?$positional_parameter_base@DV?$string_output_adapter@D@__crt_stdio_output@@@__crt_stdio_output@@IEAA_NAEAPEAX@Z 000000003012e6a0 f i libucrtd:output.obj
 0001:0012d880       ??$extract_argument_from_va_list@PEAXPEAX@?$positional_parameter_base@_WV?$stream_output_adapter@_W@__crt_stdio_output@@@__crt_stdio_output@@IEAA_NAEAPEAX@Z 000000003012e880 f i libucrtd:output.obj
 0001:0012da60       ??$extract_argument_from_va_list@PEAXPEAX@?$positional_parameter_base@_WV?$string_output_adapter@_W@__crt_stdio_output@@@__crt_stdio_output@@IEAA_NAEAPEAX@Z 000000003012ea60 f i libucrtd:output.obj
 0001:0012dc40       ??$extract_argument_from_va_list@PEAXPEAX@?$standard_base@DV?$stream_output_adapter@D@__crt_stdio_output@@@__crt_stdio_output@@IEAA_NAEAPEAX@Z 000000003012ec40 f i libucrtd:output.obj
 0001:0012dc80       ??$extract_argument_from_va_list@PEAXPEAX@?$standard_base@DV?$string_output_adapter@D@__crt_stdio_output@@@__crt_stdio_output@@IEAA_NAEAPEAX@Z 000000003012ec80 f i libucrtd:output.obj
 0001:0012dcc0       ??$extract_argument_from_va_list@PEAXPEAX@?$standard_base@_WV?$stream_output_adapter@_W@__crt_stdio_output@@@__crt_stdio_output@@IEAA_NAEAPEAX@Z 000000003012ecc0 f i libucrtd:output.obj
 0001:0012dd00       ??$extract_argument_from_va_list@PEAXPEAX@?$standard_base@_WV?$string_output_adapter@_W@__crt_stdio_output@@@__crt_stdio_output@@IEAA_NAEAPEAX@Z 000000003012ed00 f i libucrtd:output.obj
 0001:0012dd40       ??$extract_argument_from_va_list@U_CRT_DOUBLE@@U1@@?$positional_parameter_base@DV?$stream_output_adapter@D@__crt_stdio_output@@@__crt_stdio_output@@IEAA_NAEAU_CRT_DOUBLE@@@Z 000000003012ed40 f i libucrtd:output.obj
 0001:0012df50       ??$extract_argument_from_va_list@U_CRT_DOUBLE@@U1@@?$positional_parameter_base@DV?$string_output_adapter@D@__crt_stdio_output@@@__crt_stdio_output@@IEAA_NAEAU_CRT_DOUBLE@@@Z 000000003012ef50 f i libucrtd:output.obj
 0001:0012e160       ??$extract_argument_from_va_list@U_CRT_DOUBLE@@U1@@?$positional_parameter_base@_WV?$stream_output_adapter@_W@__crt_stdio_output@@@__crt_stdio_output@@IEAA_NAEAU_CRT_DOUBLE@@@Z 000000003012f160 f i libucrtd:output.obj
 0001:0012e370       ??$extract_argument_from_va_list@U_CRT_DOUBLE@@U1@@?$positional_parameter_base@_WV?$string_output_adapter@_W@__crt_stdio_output@@@__crt_stdio_output@@IEAA_NAEAU_CRT_DOUBLE@@@Z 000000003012f370 f i libucrtd:output.obj
 0001:0012e580       ??$extract_argument_from_va_list@U_CRT_DOUBLE@@U1@@?$standard_base@DV?$stream_output_adapter@D@__crt_stdio_output@@@__crt_stdio_output@@IEAA_NAEAU_CRT_DOUBLE@@@Z 000000003012f580 f i libucrtd:output.obj
 0001:0012e5e0       ??$extract_argument_from_va_list@U_CRT_DOUBLE@@U1@@?$standard_base@DV?$string_output_adapter@D@__crt_stdio_output@@@__crt_stdio_output@@IEAA_NAEAU_CRT_DOUBLE@@@Z 000000003012f5e0 f i libucrtd:output.obj
 0001:0012e640       ??$extract_argument_from_va_list@U_CRT_DOUBLE@@U1@@?$standard_base@_WV?$stream_output_adapter@_W@__crt_stdio_output@@@__crt_stdio_output@@IEAA_NAEAU_CRT_DOUBLE@@@Z 000000003012f640 f i libucrtd:output.obj
 0001:0012e6a0       ??$extract_argument_from_va_list@U_CRT_DOUBLE@@U1@@?$standard_base@_WV?$string_output_adapter@_W@__crt_stdio_output@@@__crt_stdio_output@@IEAA_NAEAU_CRT_DOUBLE@@@Z 000000003012f6a0 f i libucrtd:output.obj
 0001:0012e700       ??$extract_argument_from_va_list@_J_J@?$positional_parameter_base@DV?$stream_output_adapter@D@__crt_stdio_output@@@__crt_stdio_output@@IEAA_NAEA_J@Z 000000003012f700 f i libucrtd:output.obj
 0001:0012e8e0       ??$extract_argument_from_va_list@_J_J@?$positional_parameter_base@DV?$string_output_adapter@D@__crt_stdio_output@@@__crt_stdio_output@@IEAA_NAEA_J@Z 000000003012f8e0 f i libucrtd:output.obj
 0001:0012eac0       ??$extract_argument_from_va_list@_J_J@?$positional_parameter_base@_WV?$stream_output_adapter@_W@__crt_stdio_output@@@__crt_stdio_output@@IEAA_NAEA_J@Z 000000003012fac0 f i libucrtd:output.obj
 0001:0012eca0       ??$extract_argument_from_va_list@_J_J@?$positional_parameter_base@_WV?$string_output_adapter@_W@__crt_stdio_output@@@__crt_stdio_output@@IEAA_NAEA_J@Z 000000003012fca0 f i libucrtd:output.obj
 0001:0012ee80       ??$extract_argument_from_va_list@_J_J@?$standard_base@DV?$stream_output_adapter@D@__crt_stdio_output@@@__crt_stdio_output@@IEAA_NAEA_J@Z 000000003012fe80 f i libucrtd:output.obj
 0001:0012eec0       ??$extract_argument_from_va_list@_J_J@?$standard_base@DV?$string_output_adapter@D@__crt_stdio_output@@@__crt_stdio_output@@IEAA_NAEA_J@Z 000000003012fec0 f i libucrtd:output.obj
 0001:0012ef00       ??$extract_argument_from_va_list@_J_J@?$standard_base@_WV?$stream_output_adapter@_W@__crt_stdio_output@@@__crt_stdio_output@@IEAA_NAEA_J@Z 000000003012ff00 f i libucrtd:output.obj
 0001:0012ef40       ??$extract_argument_from_va_list@_J_J@?$standard_base@_WV?$string_output_adapter@_W@__crt_stdio_output@@@__crt_stdio_output@@IEAA_NAEA_J@Z 000000003012ff40 f i libucrtd:output.obj
 0001:0012ef80       ??$extract_argument_from_va_list@_K_J@?$positional_parameter_base@DV?$stream_output_adapter@D@__crt_stdio_output@@@__crt_stdio_output@@IEAA_NAEA_J@Z 000000003012ff80 f i libucrtd:output.obj
 0001:0012f160       ??$extract_argument_from_va_list@_K_J@?$positional_parameter_base@DV?$string_output_adapter@D@__crt_stdio_output@@@__crt_stdio_output@@IEAA_NAEA_J@Z 0000000030130160 f i libucrtd:output.obj
 0001:0012f340       ??$extract_argument_from_va_list@_K_J@?$positional_parameter_base@_WV?$stream_output_adapter@_W@__crt_stdio_output@@@__crt_stdio_output@@IEAA_NAEA_J@Z 0000000030130340 f i libucrtd:output.obj
 0001:0012f520       ??$extract_argument_from_va_list@_K_J@?$positional_parameter_base@_WV?$string_output_adapter@_W@__crt_stdio_output@@@__crt_stdio_output@@IEAA_NAEA_J@Z 0000000030130520 f i libucrtd:output.obj
 0001:0012f700       ??$extract_argument_from_va_list@_K_J@?$standard_base@DV?$stream_output_adapter@D@__crt_stdio_output@@@__crt_stdio_output@@IEAA_NAEA_J@Z 0000000030130700 f i libucrtd:output.obj
 0001:0012f740       ??$extract_argument_from_va_list@_K_J@?$standard_base@DV?$string_output_adapter@D@__crt_stdio_output@@@__crt_stdio_output@@IEAA_NAEA_J@Z 0000000030130740 f i libucrtd:output.obj
 0001:0012f780       ??$extract_argument_from_va_list@_K_J@?$standard_base@_WV?$stream_output_adapter@_W@__crt_stdio_output@@@__crt_stdio_output@@IEAA_NAEA_J@Z 0000000030130780 f i libucrtd:output.obj
 0001:0012f7c0       ??$extract_argument_from_va_list@_K_J@?$standard_base@_WV?$string_output_adapter@_W@__crt_stdio_output@@@__crt_stdio_output@@IEAA_NAEA_J@Z 00000000301307c0 f i libucrtd:output.obj
 0001:0012f800       ??$extract_argument_from_va_list@_W_W@?$positional_parameter_base@DV?$stream_output_adapter@D@__crt_stdio_output@@@__crt_stdio_output@@IEAA_NAEA_W@Z 0000000030130800 f i libucrtd:output.obj
 0001:0012f9e0       ??$extract_argument_from_va_list@_W_W@?$positional_parameter_base@DV?$string_output_adapter@D@__crt_stdio_output@@@__crt_stdio_output@@IEAA_NAEA_W@Z 00000000301309e0 f i libucrtd:output.obj
 0001:0012fbc0       ??$extract_argument_from_va_list@_W_W@?$positional_parameter_base@_WV?$stream_output_adapter@_W@__crt_stdio_output@@@__crt_stdio_output@@IEAA_NAEA_W@Z 0000000030130bc0 f i libucrtd:output.obj
 0001:0012fda0       ??$extract_argument_from_va_list@_W_W@?$positional_parameter_base@_WV?$string_output_adapter@_W@__crt_stdio_output@@@__crt_stdio_output@@IEAA_NAEA_W@Z 0000000030130da0 f i libucrtd:output.obj
 0001:0012ff80       ??$extract_argument_from_va_list@_W_W@?$standard_base@DV?$stream_output_adapter@D@__crt_stdio_output@@@__crt_stdio_output@@IEAA_NAEA_W@Z 0000000030130f80 f i libucrtd:output.obj
 0001:0012ffc0       ??$extract_argument_from_va_list@_W_W@?$standard_base@DV?$string_output_adapter@D@__crt_stdio_output@@@__crt_stdio_output@@IEAA_NAEA_W@Z 0000000030130fc0 f i libucrtd:output.obj
 0001:00130000       ??$extract_argument_from_va_list@_W_W@?$standard_base@_WV?$stream_output_adapter@_W@__crt_stdio_output@@@__crt_stdio_output@@IEAA_NAEA_W@Z 0000000030131000 f i libucrtd:output.obj
 0001:00130040       ??$extract_argument_from_va_list@_W_W@?$standard_base@_WV?$string_output_adapter@_W@__crt_stdio_output@@@__crt_stdio_output@@IEAA_NAEA_W@Z 0000000030131040 f i libucrtd:output.obj
 0001:00130080       ??$get_parameter_type@D@?$positional_parameter_base@DV?$stream_output_adapter@D@__crt_stdio_output@@@__crt_stdio_output@@CA?AW4parameter_type@01@PEAD@Z 0000000030131080 f i libucrtd:output.obj
 0001:00130090       ??$get_parameter_type@D@?$positional_parameter_base@DV?$string_output_adapter@D@__crt_stdio_output@@@__crt_stdio_output@@CA?AW4parameter_type@01@PEAD@Z 0000000030131090 f i libucrtd:output.obj
 0001:001300a0       ??$get_parameter_type@D@?$positional_parameter_base@_WV?$stream_output_adapter@_W@__crt_stdio_output@@@__crt_stdio_output@@CA?AW4parameter_type@01@PEAD@Z 00000000301310a0 f i libucrtd:output.obj
 0001:001300b0       ??$get_parameter_type@D@?$positional_parameter_base@_WV?$string_output_adapter@_W@__crt_stdio_output@@@__crt_stdio_output@@CA?AW4parameter_type@01@PEAD@Z 00000000301310b0 f i libucrtd:output.obj
 0001:00130100       ??$get_parameter_type@X@?$positional_parameter_base@DV?$stream_output_adapter@D@__crt_stdio_output@@@__crt_stdio_output@@CA?AW4parameter_type@01@PEAX@Z 0000000030131100 f i libucrtd:output.obj
 0001:00130110       ??$get_parameter_type@X@?$positional_parameter_base@DV?$string_output_adapter@D@__crt_stdio_output@@@__crt_stdio_output@@CA?AW4parameter_type@01@PEAX@Z 0000000030131110 f i libucrtd:output.obj
 0001:00130120       ??$get_parameter_type@X@?$positional_parameter_base@_WV?$stream_output_adapter@_W@__crt_stdio_output@@@__crt_stdio_output@@CA?AW4parameter_type@01@PEAX@Z 0000000030131120 f i libucrtd:output.obj
 0001:00130130       ??$get_parameter_type@X@?$positional_parameter_base@_WV?$string_output_adapter@_W@__crt_stdio_output@@@__crt_stdio_output@@CA?AW4parameter_type@01@PEAX@Z 0000000030131130 f i libucrtd:output.obj
 0001:00130140       ??$is_character_specifier@D@?$positional_parameter_base@DV?$stream_output_adapter@D@__crt_stdio_output@@@__crt_stdio_output@@CA_ND@Z 0000000030131140 f i libucrtd:output.obj
 0001:00130190       ??$is_character_specifier@D@?$positional_parameter_base@DV?$string_output_adapter@D@__crt_stdio_output@@@__crt_stdio_output@@CA_ND@Z 0000000030131190 f i libucrtd:output.obj
 0001:001301e0       ??$is_character_specifier@_W@?$positional_parameter_base@_WV?$stream_output_adapter@_W@__crt_stdio_output@@@__crt_stdio_output@@CA_N_W@Z 00000000301311e0 f i libucrtd:output.obj
 0001:00130230       ??$is_character_specifier@_W@?$positional_parameter_base@_WV?$string_output_adapter@_W@__crt_stdio_output@@@__crt_stdio_output@@CA_N_W@Z 0000000030131230 f i libucrtd:output.obj
 0001:00130280       ??$is_integral_specifier@D@?$positional_parameter_base@DV?$stream_output_adapter@D@__crt_stdio_output@@@__crt_stdio_output@@CA_ND@Z 0000000030131280 f i libucrtd:output.obj
 0001:00130300       ??$is_integral_specifier@D@?$positional_parameter_base@DV?$string_output_adapter@D@__crt_stdio_output@@@__crt_stdio_output@@CA_ND@Z 0000000030131300 f i libucrtd:output.obj
 0001:00130380       ??$is_integral_specifier@_W@?$positional_parameter_base@_WV?$stream_output_adapter@_W@__crt_stdio_output@@@__crt_stdio_output@@CA_N_W@Z 0000000030131380 f i libucrtd:output.obj
 0001:00130410       ??$is_integral_specifier@_W@?$positional_parameter_base@_WV?$string_output_adapter@_W@__crt_stdio_output@@@__crt_stdio_output@@CA_N_W@Z 0000000030131410 f i libucrtd:output.obj
 0001:001304a0       ??$is_pointer_specifier@D@?$positional_parameter_base@DV?$stream_output_adapter@D@__crt_stdio_output@@@__crt_stdio_output@@CA_ND@Z 00000000301314a0 f i libucrtd:output.obj
 0001:001304e0       ??$is_pointer_specifier@D@?$positional_parameter_base@DV?$string_output_adapter@D@__crt_stdio_output@@@__crt_stdio_output@@CA_ND@Z 00000000301314e0 f i libucrtd:output.obj
 0001:00130520       ??$is_pointer_specifier@_W@?$positional_parameter_base@_WV?$stream_output_adapter@_W@__crt_stdio_output@@@__crt_stdio_output@@CA_N_W@Z 0000000030131520 f i libucrtd:output.obj
 0001:00130560       ??$is_pointer_specifier@_W@?$positional_parameter_base@_WV?$string_output_adapter@_W@__crt_stdio_output@@@__crt_stdio_output@@CA_N_W@Z 0000000030131560 f i libucrtd:output.obj
 0001:001305a0       ??$is_string_specifier@D@?$positional_parameter_base@DV?$stream_output_adapter@D@__crt_stdio_output@@@__crt_stdio_output@@CA_ND@Z 00000000301315a0 f i libucrtd:output.obj
 0001:001305f0       ??$is_string_specifier@D@?$positional_parameter_base@DV?$string_output_adapter@D@__crt_stdio_output@@@__crt_stdio_output@@CA_ND@Z 00000000301315f0 f i libucrtd:output.obj
 0001:00130640       ??$is_string_specifier@_W@?$positional_parameter_base@_WV?$stream_output_adapter@_W@__crt_stdio_output@@@__crt_stdio_output@@CA_N_W@Z 0000000030131640 f i libucrtd:output.obj
 0001:00130690       ??$is_string_specifier@_W@?$positional_parameter_base@_WV?$string_output_adapter@_W@__crt_stdio_output@@@__crt_stdio_output@@CA_N_W@Z 0000000030131690 f i libucrtd:output.obj
 0001:001306e0       ??$is_wide_character_specifier@D@__crt_stdio_output@@YA_N_KDW4length_modifier@0@@Z 00000000301316e0 f i libucrtd:output.obj
 0001:001307a0       ??$is_wide_character_specifier@_W@__crt_stdio_output@@YA_N_K_WW4length_modifier@0@@Z 00000000301317a0 f i libucrtd:output.obj
 0001:001308a0       ??$peek_va_arg@C@__crt_stdio_output@@YACPEAD@Z 00000000301318a0 f i libucrtd:output.obj
 0001:00130910       ??$peek_va_arg@E@__crt_stdio_output@@YAEPEAD@Z 0000000030131910 f i libucrtd:output.obj
 0001:00130980       ??$peek_va_arg@F@__crt_stdio_output@@YAFPEAD@Z 0000000030131980 f i libucrtd:output.obj
 0001:001309f0       ??$peek_va_arg@G@__crt_stdio_output@@YAGPEAD@Z 00000000301319f0 f i libucrtd:output.obj
 0001:00130a60       ??$peek_va_arg@H@__crt_stdio_output@@YAHPEAD@Z 0000000030131a60 f i libucrtd:output.obj
 0001:00130ad0       ??$peek_va_arg@I@__crt_stdio_output@@YAIPEAD@Z 0000000030131ad0 f i libucrtd:output.obj
 0001:00130b40       ??$peek_va_arg@PEAD@__crt_stdio_output@@YAPEADPEAD@Z 0000000030131b40 f i libucrtd:output.obj
 0001:00130d70       ??$peek_va_arg@PEAX@__crt_stdio_output@@YAPEAXPEAD@Z 0000000030131d70 f i libucrtd:output.obj
 0001:00130de0       ??$peek_va_arg@U_CRT_DOUBLE@@@__crt_stdio_output@@YA?AU_CRT_DOUBLE@@PEAD@Z 0000000030131de0 f i libucrtd:output.obj
 0001:00130e50       ??$peek_va_arg@_J@__crt_stdio_output@@YA_JPEAD@Z 0000000030131e50 f i libucrtd:output.obj
 0001:00130ec0       ??$peek_va_arg@_K@__crt_stdio_output@@YA_KPEAD@Z 0000000030131ec0 f i libucrtd:output.obj
 0001:00130f30       ??$peek_va_arg@_W@__crt_stdio_output@@YA_WPEAD@Z 0000000030131f30 f i libucrtd:output.obj
 0001:00130fa0       ??$puttc_nolock@AEBDPEAU_iobuf@@@?$__crt_char_traits@D@@SAHAEBD$$QEAPEAU_iobuf@@@Z 0000000030131fa0 f i libucrtd:output.obj
 0001:00130fe0       ??$puttc_nolock@AEB_WPEAU_iobuf@@@?$__crt_char_traits@_W@@SAGAEB_W$$QEAPEAU_iobuf@@@Z 0000000030131fe0 f i libucrtd:output.obj
 0001:00131020       ??$read_va_arg@C@__crt_stdio_output@@YACAEAPEAD@Z 0000000030132020 f i libucrtd:output.obj
 0001:001310a0       ??$read_va_arg@E@__crt_stdio_output@@YAEAEAPEAD@Z 00000000301320a0 f i libucrtd:output.obj
 0001:00131120       ??$read_va_arg@F@__crt_stdio_output@@YAFAEAPEAD@Z 0000000030132120 f i libucrtd:output.obj
 0001:001311a0       ??$read_va_arg@G@__crt_stdio_output@@YAGAEAPEAD@Z 00000000301321a0 f i libucrtd:output.obj
 0001:00131220       ??$read_va_arg@H@__crt_stdio_output@@YAHAEAPEAD@Z 0000000030132220 f i libucrtd:output.obj
 0001:001312a0       ??$read_va_arg@I@__crt_stdio_output@@YAIAEAPEAD@Z 00000000301322a0 f i libucrtd:output.obj
 0001:00131320       ??$read_va_arg@PEAD@__crt_stdio_output@@YAPEADAEAPEAD@Z 0000000030132320 f i libucrtd:output.obj
 0001:001319a0       ??$read_va_arg@PEAX@__crt_stdio_output@@YAPEAXAEAPEAD@Z 00000000301329a0 f i libucrtd:output.obj
 0001:00131a20       ??$read_va_arg@U_CRT_DOUBLE@@@__crt_stdio_output@@YA?AU_CRT_DOUBLE@@AEAPEAD@Z 0000000030132a20 f i libucrtd:output.obj
 0001:00131aa0       ??$read_va_arg@_J@__crt_stdio_output@@YA_JAEAPEAD@Z 0000000030132aa0 f i libucrtd:output.obj
 0001:00131b20       ??$read_va_arg@_K@__crt_stdio_output@@YA_KAEAPEAD@Z 0000000030132b20 f i libucrtd:output.obj
 0001:00131ba0       ??$read_va_arg@_W@__crt_stdio_output@@YA_WAEAPEAD@Z 0000000030132ba0 f i libucrtd:output.obj
 0001:00131c20       ??$scratch_count@D@formatting_buffer@__crt_stdio_output@@QEBA_KXZ 0000000030132c20 f i libucrtd:output.obj
 0001:00131c40       ??$scratch_data@D@formatting_buffer@__crt_stdio_output@@QEAAPEADXZ 0000000030132c40 f i libucrtd:output.obj
 0001:00131cd0       ??$tcstol@AEAPEBDPEAPEADH@?$__crt_char_traits@D@@SAJAEAPEBD$$QEAPEAPEAD$$QEAH@Z 0000000030132cd0 f i libucrtd:output.obj
 0001:00131d20       ??$tcstol@AEAPEB_WPEAPEA_WH@?$__crt_char_traits@_W@@SAJAEAPEB_W$$QEAPEAPEA_W$$QEAH@Z 0000000030132d20 f i libucrtd:output.obj
 0001:00131d70       ??$tcstol@PEBDPEAPEADH@?$__crt_char_traits@D@@SAJ$$QEAPEBD$$QEAPEAPEAD$$QEAH@Z 0000000030132d70 f i libucrtd:output.obj
 0001:00131dc0       ??$tcstol@PEB_WPEAPEA_WH@?$__crt_char_traits@_W@@SAJ$$QEAPEB_W$$QEAPEAPEA_W$$QEAH@Z 0000000030132dc0 f i libucrtd:output.obj
 0001:00131e10       ??$type_case_integer_parse_into_buffer@I@?$output_processor@DV?$stream_output_adapter@D@__crt_stdio_output@@V?$format_validation_base@DV?$stream_output_adapter@D@__crt_stdio_output@@@2@@__crt_stdio_output@@AEAAXII_N@Z 0000000030132e10 f i libucrtd:output.obj
 0001:00131f80       ??$type_case_integer_parse_into_buffer@I@?$output_processor@DV?$stream_output_adapter@D@__crt_stdio_output@@V?$positional_parameter_base@DV?$stream_output_adapter@D@__crt_stdio_output@@@2@@__crt_stdio_output@@AEAAXII_N@Z 0000000030132f80 f i libucrtd:output.obj
 0001:001320f0       ??$type_case_integer_parse_into_buffer@I@?$output_processor@DV?$stream_output_adapter@D@__crt_stdio_output@@V?$standard_base@DV?$stream_output_adapter@D@__crt_stdio_output@@@2@@__crt_stdio_output@@AEAAXII_N@Z 00000000301330f0 f i libucrtd:output.obj
 0001:00132260       ??$type_case_integer_parse_into_buffer@I@?$output_processor@DV?$string_output_adapter@D@__crt_stdio_output@@V?$format_validation_base@DV?$string_output_adapter@D@__crt_stdio_output@@@2@@__crt_stdio_output@@AEAAXII_N@Z 0000000030133260 f i libucrtd:output.obj
 0001:001323d0       ??$type_case_integer_parse_into_buffer@I@?$output_processor@DV?$string_output_adapter@D@__crt_stdio_output@@V?$positional_parameter_base@DV?$string_output_adapter@D@__crt_stdio_output@@@2@@__crt_stdio_output@@AEAAXII_N@Z 00000000301333d0 f i libucrtd:output.obj
 0001:00132540       ??$type_case_integer_parse_into_buffer@I@?$output_processor@DV?$string_output_adapter@D@__crt_stdio_output@@V?$standard_base@DV?$string_output_adapter@D@__crt_stdio_output@@@2@@__crt_stdio_output@@AEAAXII_N@Z 0000000030133540 f i libucrtd:output.obj
 0001:001326b0       ??$type_case_integer_parse_into_buffer@I@?$output_processor@_WV?$stream_output_adapter@_W@__crt_stdio_output@@V?$format_validation_base@_WV?$stream_output_adapter@_W@__crt_stdio_output@@@2@@__crt_stdio_output@@AEAAXII_N@Z 00000000301336b0 f i libucrtd:output.obj
 0001:00132840       ??$type_case_integer_parse_into_buffer@I@?$output_processor@_WV?$stream_output_adapter@_W@__crt_stdio_output@@V?$positional_parameter_base@_WV?$stream_output_adapter@_W@__crt_stdio_output@@@2@@__crt_stdio_output@@AEAAXII_N@Z 0000000030133840 f i libucrtd:output.obj
 0001:001329d0       ??$type_case_integer_parse_into_buffer@I@?$output_processor@_WV?$stream_output_adapter@_W@__crt_stdio_output@@V?$standard_base@_WV?$stream_output_adapter@_W@__crt_stdio_output@@@2@@__crt_stdio_output@@AEAAXII_N@Z 00000000301339d0 f i libucrtd:output.obj
 0001:00132b60       ??$type_case_integer_parse_into_buffer@I@?$output_processor@_WV?$string_output_adapter@_W@__crt_stdio_output@@V?$format_validation_base@_WV?$string_output_adapter@_W@__crt_stdio_output@@@2@@__crt_stdio_output@@AEAAXII_N@Z 0000000030133b60 f i libucrtd:output.obj
 0001:00132cf0       ??$type_case_integer_parse_into_buffer@I@?$output_processor@_WV?$string_output_adapter@_W@__crt_stdio_output@@V?$positional_parameter_base@_WV?$string_output_adapter@_W@__crt_stdio_output@@@2@@__crt_stdio_output@@AEAAXII_N@Z 0000000030133cf0 f i libucrtd:output.obj
 0001:00132e80       ??$type_case_integer_parse_into_buffer@I@?$output_processor@_WV?$string_output_adapter@_W@__crt_stdio_output@@V?$standard_base@_WV?$string_output_adapter@_W@__crt_stdio_output@@@2@@__crt_stdio_output@@AEAAXII_N@Z 0000000030133e80 f i libucrtd:output.obj
 0001:00133010       ??$type_case_integer_parse_into_buffer@_K@?$output_processor@DV?$stream_output_adapter@D@__crt_stdio_output@@V?$format_validation_base@DV?$stream_output_adapter@D@__crt_stdio_output@@@2@@__crt_stdio_output@@AEAAX_KI_N@Z 0000000030134010 f i libucrtd:output.obj
 0001:001331b0       ??$type_case_integer_parse_into_buffer@_K@?$output_processor@DV?$stream_output_adapter@D@__crt_stdio_output@@V?$positional_parameter_base@DV?$stream_output_adapter@D@__crt_stdio_output@@@2@@__crt_stdio_output@@AEAAX_KI_N@Z 00000000301341b0 f i libucrtd:output.obj
 0001:00133350       ??$type_case_integer_parse_into_buffer@_K@?$output_processor@DV?$stream_output_adapter@D@__crt_stdio_output@@V?$standard_base@DV?$stream_output_adapter@D@__crt_stdio_output@@@2@@__crt_stdio_output@@AEAAX_KI_N@Z 0000000030134350 f i libucrtd:output.obj
 0001:001334f0       ??$type_case_integer_parse_into_buffer@_K@?$output_processor@DV?$string_output_adapter@D@__crt_stdio_output@@V?$format_validation_base@DV?$string_output_adapter@D@__crt_stdio_output@@@2@@__crt_stdio_output@@AEAAX_KI_N@Z 00000000301344f0 f i libucrtd:output.obj
 0001:00133690       ??$type_case_integer_parse_into_buffer@_K@?$output_processor@DV?$string_output_adapter@D@__crt_stdio_output@@V?$positional_parameter_base@DV?$string_output_adapter@D@__crt_stdio_output@@@2@@__crt_stdio_output@@AEAAX_KI_N@Z 0000000030134690 f i libucrtd:output.obj
 0001:00133830       ??$type_case_integer_parse_into_buffer@_K@?$output_processor@DV?$string_output_adapter@D@__crt_stdio_output@@V?$standard_base@DV?$string_output_adapter@D@__crt_stdio_output@@@2@@__crt_stdio_output@@AEAAX_KI_N@Z 0000000030134830 f i libucrtd:output.obj
 0001:001339d0       ??$type_case_integer_parse_into_buffer@_K@?$output_processor@_WV?$stream_output_adapter@_W@__crt_stdio_output@@V?$format_validation_base@_WV?$stream_output_adapter@_W@__crt_stdio_output@@@2@@__crt_stdio_output@@AEAAX_KI_N@Z 00000000301349d0 f i libucrtd:output.obj
 0001:00133b80       ??$type_case_integer_parse_into_buffer@_K@?$output_processor@_WV?$stream_output_adapter@_W@__crt_stdio_output@@V?$positional_parameter_base@_WV?$stream_output_adapter@_W@__crt_stdio_output@@@2@@__crt_stdio_output@@AEAAX_KI_N@Z 0000000030134b80 f i libucrtd:output.obj
 0001:00133d30       ??$type_case_integer_parse_into_buffer@_K@?$output_processor@_WV?$stream_output_adapter@_W@__crt_stdio_output@@V?$standard_base@_WV?$stream_output_adapter@_W@__crt_stdio_output@@@2@@__crt_stdio_output@@AEAAX_KI_N@Z 0000000030134d30 f i libucrtd:output.obj
 0001:00133ee0       ??$type_case_integer_parse_into_buffer@_K@?$output_processor@_WV?$string_output_adapter@_W@__crt_stdio_output@@V?$format_validation_base@_WV?$string_output_adapter@_W@__crt_stdio_output@@@2@@__crt_stdio_output@@AEAAX_KI_N@Z 0000000030134ee0 f i libucrtd:output.obj
 0001:00134090       ??$type_case_integer_parse_into_buffer@_K@?$output_processor@_WV?$string_output_adapter@_W@__crt_stdio_output@@V?$positional_parameter_base@_WV?$string_output_adapter@_W@__crt_stdio_output@@@2@@__crt_stdio_output@@AEAAX_KI_N@Z 0000000030135090 f i libucrtd:output.obj
 0001:00134240       ??$type_case_integer_parse_into_buffer@_K@?$output_processor@_WV?$string_output_adapter@_W@__crt_stdio_output@@V?$standard_base@_WV?$string_output_adapter@_W@__crt_stdio_output@@@2@@__crt_stdio_output@@AEAAX_KI_N@Z 0000000030135240 f i libucrtd:output.obj
 0001:001343f0       ??$write_multiple_characters@V?$stream_output_adapter@D@__crt_stdio_output@@D@__crt_stdio_output@@YAXAEBV?$stream_output_adapter@D@0@DHQEAH@Z 00000000301353f0 f i libucrtd:output.obj
 0001:00134470       ??$write_multiple_characters@V?$stream_output_adapter@_W@__crt_stdio_output@@D@__crt_stdio_output@@YAXAEBV?$stream_output_adapter@_W@0@DHQEAH@Z 0000000030135470 f i libucrtd:output.obj
 0001:001344f0       ??$write_multiple_characters@V?$string_output_adapter@D@__crt_stdio_output@@D@__crt_stdio_output@@YAXAEBV?$string_output_adapter@D@0@DHQEAH@Z 00000000301354f0 f i libucrtd:output.obj
 0001:00134570       ??$write_multiple_characters@V?$string_output_adapter@_W@__crt_stdio_output@@D@__crt_stdio_output@@YAXAEBV?$string_output_adapter@_W@0@DHQEAH@Z 0000000030135570 f i libucrtd:output.obj
 0001:00134b30       ??0?$common_data@D@__crt_stdio_output@@IEAA@XZ 0000000030135b30 f i libucrtd:output.obj
 0001:00134c30       ??0?$common_data@_W@__crt_stdio_output@@IEAA@XZ 0000000030135c30 f i libucrtd:output.obj
 0001:00134d30       ??0?$output_adapter_data@DV?$stream_output_adapter@D@__crt_stdio_output@@@__crt_stdio_output@@IEAA@AEBV?$stream_output_adapter@D@1@_KQEBDQEAU__crt_locale_pointers@@QEAD@Z 0000000030135d30 f i libucrtd:output.obj
 0001:00134dd0       ??0?$output_adapter_data@DV?$string_output_adapter@D@__crt_stdio_output@@@__crt_stdio_output@@IEAA@AEBV?$string_output_adapter@D@1@_KQEBDQEAU__crt_locale_pointers@@QEAD@Z 0000000030135dd0 f i libucrtd:output.obj
 0001:00134e70       ??0?$output_adapter_data@_WV?$stream_output_adapter@_W@__crt_stdio_output@@@__crt_stdio_output@@IEAA@AEBV?$stream_output_adapter@_W@1@_KQEB_WQEAU__crt_locale_pointers@@QEAD@Z 0000000030135e70 f i libucrtd:output.obj
 0001:00134f10       ??0?$output_adapter_data@_WV?$string_output_adapter@_W@__crt_stdio_output@@@__crt_stdio_output@@IEAA@AEBV?$string_output_adapter@_W@1@_KQEB_WQEAU__crt_locale_pointers@@QEAD@Z 0000000030135f10 f i libucrtd:output.obj
 0001:00134fb0       ??0?$output_processor@DV?$stream_output_adapter@D@__crt_stdio_output@@V?$format_validation_base@DV?$stream_output_adapter@D@__crt_stdio_output@@@2@@__crt_stdio_output@@QEAA@AEBV?$stream_output_adapter@D@1@_KQEBDQEAU__crt_locale_pointers@@QEAD@Z 0000000030135fb0 f i libucrtd:output.obj
 0001:00135020       ??0?$output_processor@DV?$stream_output_adapter@D@__crt_stdio_output@@V?$positional_parameter_base@DV?$stream_output_adapter@D@__crt_stdio_output@@@2@@__crt_stdio_output@@QEAA@AEBV?$stream_output_adapter@D@1@_KQEBDQEAU__crt_locale_pointers@@QEAD@Z 0000000030136020 f i libucrtd:output.obj
 0001:00135090       ??0?$output_processor@DV?$stream_output_adapter@D@__crt_stdio_output@@V?$standard_base@DV?$stream_output_adapter@D@__crt_stdio_output@@@2@@__crt_stdio_output@@QEAA@AEBV?$stream_output_adapter@D@1@_KQEBDQEAU__crt_locale_pointers@@QEAD@Z 0000000030136090 f i libucrtd:output.obj
 0001:00135100       ??0?$output_processor@DV?$string_output_adapter@D@__crt_stdio_output@@V?$format_validation_base@DV?$string_output_adapter@D@__crt_stdio_output@@@2@@__crt_stdio_output@@QEAA@AEBV?$string_output_adapter@D@1@_KQEBDQEAU__crt_locale_pointers@@QEAD@Z 0000000030136100 f i libucrtd:output.obj
 0001:00135170       ??0?$output_processor@DV?$string_output_adapter@D@__crt_stdio_output@@V?$positional_parameter_base@DV?$string_output_adapter@D@__crt_stdio_output@@@2@@__crt_stdio_output@@QEAA@AEBV?$string_output_adapter@D@1@_KQEBDQEAU__crt_locale_pointers@@QEAD@Z 0000000030136170 f i libucrtd:output.obj
 0001:001351e0       ??0?$output_processor@DV?$string_output_adapter@D@__crt_stdio_output@@V?$standard_base@DV?$string_output_adapter@D@__crt_stdio_output@@@2@@__crt_stdio_output@@QEAA@AEBV?$string_output_adapter@D@1@_KQEBDQEAU__crt_locale_pointers@@QEAD@Z 00000000301361e0 f i libucrtd:output.obj
 0001:00135250       ??0?$output_processor@_WV?$stream_output_adapter@_W@__crt_stdio_output@@V?$format_validation_base@_WV?$stream_output_adapter@_W@__crt_stdio_output@@@2@@__crt_stdio_output@@QEAA@AEBV?$stream_output_adapter@_W@1@_KQEB_WQEAU__crt_locale_pointers@@QEAD@Z 0000000030136250 f i libucrtd:output.obj
 0001:001352c0       ??0?$output_processor@_WV?$stream_output_adapter@_W@__crt_stdio_output@@V?$positional_parameter_base@_WV?$stream_output_adapter@_W@__crt_stdio_output@@@2@@__crt_stdio_output@@QEAA@AEBV?$stream_output_adapter@_W@1@_KQEB_WQEAU__crt_locale_pointers@@QEAD@Z 00000000301362c0 f i libucrtd:output.obj
 0001:00135330       ??0?$output_processor@_WV?$stream_output_adapter@_W@__crt_stdio_output@@V?$standard_base@_WV?$stream_output_adapter@_W@__crt_stdio_output@@@2@@__crt_stdio_output@@QEAA@AEBV?$stream_output_adapter@_W@1@_KQEB_WQEAU__crt_locale_pointers@@QEAD@Z 0000000030136330 f i libucrtd:output.obj
 0001:001353a0       ??0?$output_processor@_WV?$string_output_adapter@_W@__crt_stdio_output@@V?$format_validation_base@_WV?$string_output_adapter@_W@__crt_stdio_output@@@2@@__crt_stdio_output@@QEAA@AEBV?$string_output_adapter@_W@1@_KQEB_WQEAU__crt_locale_pointers@@QEAD@Z 00000000301363a0 f i libucrtd:output.obj
 0001:00135410       ??0?$output_processor@_WV?$string_output_adapter@_W@__crt_stdio_output@@V?$positional_parameter_base@_WV?$string_output_adapter@_W@__crt_stdio_output@@@2@@__crt_stdio_output@@QEAA@AEBV?$string_output_adapter@_W@1@_KQEB_WQEAU__crt_locale_pointers@@QEAD@Z 0000000030136410 f i libucrtd:output.obj
 0001:00135480       ??0?$output_processor@_WV?$string_output_adapter@_W@__crt_stdio_output@@V?$standard_base@_WV?$string_output_adapter@_W@__crt_stdio_output@@@2@@__crt_stdio_output@@QEAA@AEBV?$string_output_adapter@_W@1@_KQEB_WQEAU__crt_locale_pointers@@QEAD@Z 0000000030136480 f i libucrtd:output.obj
 0001:001354f0       ??0?$stream_output_adapter@D@__crt_stdio_output@@QEAA@QEAU_iobuf@@@Z 00000000301364f0 f i libucrtd:output.obj
 0001:00135530       ??0?$stream_output_adapter@_W@__crt_stdio_output@@QEAA@QEAU_iobuf@@@Z 0000000030136530 f i libucrtd:output.obj
 0001:00135570       ??0?$string_output_adapter@D@__crt_stdio_output@@QEAA@QEAU?$string_output_adapter_context@D@1@@Z 0000000030136570 f i libucrtd:output.obj
 0001:001355a0       ??0?$string_output_adapter@_W@__crt_stdio_output@@QEAA@QEAU?$string_output_adapter_context@_W@1@@Z 00000000301365a0 f i libucrtd:output.obj
 0001:001355d0       ??0_LocaleUpdate@@QEAA@QEAU__crt_locale_pointers@@@Z 00000000301365d0 f i libucrtd:output.obj
 0001:00135740       ??0__acrt_stdio_temporary_buffering_guard@@QEAA@QEAU_iobuf@@@Z 0000000030136740 f i libucrtd:output.obj
 0001:00135790       ??0__crt_deferred_errno_cache@@QEAA@XZ 0000000030136790 f i libucrtd:output.obj
 0001:001357b0       ??0__crt_errno_guard@@QEAA@QEAH@Z 00000000301367b0 f i libucrtd:output.obj
 0001:00135800       ??0__crt_stdio_stream@@QEAA@QEAU_iobuf@@@Z 0000000030136800 f i libucrtd:output.obj
 0001:00135830       ??0formatting_buffer@__crt_stdio_output@@QEAA@XZ 0000000030136830 f i libucrtd:output.obj
 0001:00135880       ??1?$common_data@D@__crt_stdio_output@@QEAA@XZ 0000000030136880 f i libucrtd:output.obj
 0001:001358b0       ??1?$common_data@_W@__crt_stdio_output@@QEAA@XZ 00000000301368b0 f i libucrtd:output.obj
 0001:001358e0       ??1?$format_validation_base@DV?$stream_output_adapter@D@__crt_stdio_output@@@__crt_stdio_output@@QEAA@XZ 00000000301368e0 f i libucrtd:output.obj
 0001:00135900       ??1?$format_validation_base@DV?$string_output_adapter@D@__crt_stdio_output@@@__crt_stdio_output@@QEAA@XZ 0000000030136900 f i libucrtd:output.obj
 0001:00135920       ??1?$format_validation_base@_WV?$stream_output_adapter@_W@__crt_stdio_output@@@__crt_stdio_output@@QEAA@XZ 0000000030136920 f i libucrtd:output.obj
 0001:00135940       ??1?$format_validation_base@_WV?$string_output_adapter@_W@__crt_stdio_output@@@__crt_stdio_output@@QEAA@XZ 0000000030136940 f i libucrtd:output.obj
 0001:00135960       ??1?$output_adapter_data@DV?$stream_output_adapter@D@__crt_stdio_output@@@__crt_stdio_output@@QEAA@XZ 0000000030136960 f i libucrtd:output.obj
 0001:00135980       ??1?$output_adapter_data@DV?$string_output_adapter@D@__crt_stdio_output@@@__crt_stdio_output@@QEAA@XZ 0000000030136980 f i libucrtd:output.obj
 0001:001359a0       ??1?$output_adapter_data@_WV?$stream_output_adapter@_W@__crt_stdio_output@@@__crt_stdio_output@@QEAA@XZ 00000000301369a0 f i libucrtd:output.obj
 0001:001359c0       ??1?$output_adapter_data@_WV?$string_output_adapter@_W@__crt_stdio_output@@@__crt_stdio_output@@QEAA@XZ 00000000301369c0 f i libucrtd:output.obj
 0001:001359e0       ??1?$output_processor@DV?$stream_output_adapter@D@__crt_stdio_output@@V?$format_validation_base@DV?$stream_output_adapter@D@__crt_stdio_output@@@2@@__crt_stdio_output@@QEAA@XZ 00000000301369e0 f i libucrtd:output.obj
 0001:00135a00       ??1?$output_processor@DV?$stream_output_adapter@D@__crt_stdio_output@@V?$positional_parameter_base@DV?$stream_output_adapter@D@__crt_stdio_output@@@2@@__crt_stdio_output@@QEAA@XZ 0000000030136a00 f i libucrtd:output.obj
 0001:00135a20       ??1?$output_processor@DV?$stream_output_adapter@D@__crt_stdio_output@@V?$standard_base@DV?$stream_output_adapter@D@__crt_stdio_output@@@2@@__crt_stdio_output@@QEAA@XZ 0000000030136a20 f i libucrtd:output.obj
 0001:00135a40       ??1?$output_processor@DV?$string_output_adapter@D@__crt_stdio_output@@V?$format_validation_base@DV?$string_output_adapter@D@__crt_stdio_output@@@2@@__crt_stdio_output@@QEAA@XZ 0000000030136a40 f i libucrtd:output.obj
 0001:00135a60       ??1?$output_processor@DV?$string_output_adapter@D@__crt_stdio_output@@V?$positional_parameter_base@DV?$string_output_adapter@D@__crt_stdio_output@@@2@@__crt_stdio_output@@QEAA@XZ 0000000030136a60 f i libucrtd:output.obj
 0001:00135a80       ??1?$output_processor@DV?$string_output_adapter@D@__crt_stdio_output@@V?$standard_base@DV?$string_output_adapter@D@__crt_stdio_output@@@2@@__crt_stdio_output@@QEAA@XZ 0000000030136a80 f i libucrtd:output.obj
 0001:00135aa0       ??1?$output_processor@_WV?$stream_output_adapter@_W@__crt_stdio_output@@V?$format_validation_base@_WV?$stream_output_adapter@_W@__crt_stdio_output@@@2@@__crt_stdio_output@@QEAA@XZ 0000000030136aa0 f i libucrtd:output.obj
 0001:00135ac0       ??1?$output_processor@_WV?$stream_output_adapter@_W@__crt_stdio_output@@V?$positional_parameter_base@_WV?$stream_output_adapter@_W@__crt_stdio_output@@@2@@__crt_stdio_output@@QEAA@XZ 0000000030136ac0 f i libucrtd:output.obj
 0001:00135ae0       ??1?$output_processor@_WV?$stream_output_adapter@_W@__crt_stdio_output@@V?$standard_base@_WV?$stream_output_adapter@_W@__crt_stdio_output@@@2@@__crt_stdio_output@@QEAA@XZ 0000000030136ae0 f i libucrtd:output.obj
 0001:00135b00       ??1?$output_processor@_WV?$string_output_adapter@_W@__crt_stdio_output@@V?$format_validation_base@_WV?$string_output_adapter@_W@__crt_stdio_output@@@2@@__crt_stdio_output@@QEAA@XZ 0000000030136b00 f i libucrtd:output.obj
 0001:00135b20       ??1?$output_processor@_WV?$string_output_adapter@_W@__crt_stdio_output@@V?$positional_parameter_base@_WV?$string_output_adapter@_W@__crt_stdio_output@@@2@@__crt_stdio_output@@QEAA@XZ 0000000030136b20 f i libucrtd:output.obj
 0001:00135b40       ??1?$output_processor@_WV?$string_output_adapter@_W@__crt_stdio_output@@V?$standard_base@_WV?$string_output_adapter@_W@__crt_stdio_output@@@2@@__crt_stdio_output@@QEAA@XZ 0000000030136b40 f i libucrtd:output.obj
 0001:00135b60       ??1?$positional_parameter_base@DV?$stream_output_adapter@D@__crt_stdio_output@@@__crt_stdio_output@@QEAA@XZ 0000000030136b60 f i libucrtd:output.obj
 0001:00135b80       ??1?$positional_parameter_base@DV?$string_output_adapter@D@__crt_stdio_output@@@__crt_stdio_output@@QEAA@XZ 0000000030136b80 f i libucrtd:output.obj
 0001:00135ba0       ??1?$positional_parameter_base@_WV?$stream_output_adapter@_W@__crt_stdio_output@@@__crt_stdio_output@@QEAA@XZ 0000000030136ba0 f i libucrtd:output.obj
 0001:00135bc0       ??1?$positional_parameter_base@_WV?$string_output_adapter@_W@__crt_stdio_output@@@__crt_stdio_output@@QEAA@XZ 0000000030136bc0 f i libucrtd:output.obj
 0001:00135be0       ??1?$standard_base@DV?$stream_output_adapter@D@__crt_stdio_output@@@__crt_stdio_output@@QEAA@XZ 0000000030136be0 f i libucrtd:output.obj
 0001:00135c00       ??1?$standard_base@DV?$string_output_adapter@D@__crt_stdio_output@@@__crt_stdio_output@@QEAA@XZ 0000000030136c00 f i libucrtd:output.obj
 0001:00135c20       ??1?$standard_base@_WV?$stream_output_adapter@_W@__crt_stdio_output@@@__crt_stdio_output@@QEAA@XZ 0000000030136c20 f i libucrtd:output.obj
 0001:00135c40       ??1?$standard_base@_WV?$string_output_adapter@_W@__crt_stdio_output@@@__crt_stdio_output@@QEAA@XZ 0000000030136c40 f i libucrtd:output.obj
 0001:00135c60       ??1_LocaleUpdate@@QEAA@XZ  0000000030136c60 f i libucrtd:output.obj
 0001:00135ca0       ??1__acrt_stdio_temporary_buffering_guard@@QEAA@XZ 0000000030136ca0 f i libucrtd:output.obj
 0001:00135cd0       ??1__crt_errno_guard@@QEAA@XZ 0000000030136cd0 f i libucrtd:output.obj
 0001:00135d10       ??1formatting_buffer@__crt_stdio_output@@QEAA@XZ 0000000030136d10 f i libucrtd:output.obj
 0001:00135d40       ??4?$__crt_unique_heap_ptr@DU__crt_internal_free_policy@@@@QEAAAEAV0@$$QEAV0@@Z 0000000030136d40 f i libucrtd:output.obj
 0001:00135d90       ??C__crt_stdio_stream@@QEBAPEAU__crt_stdio_stream_data@@XZ 0000000030136d90 f i libucrtd:output.obj
 0001:001368f0       ?GetLocaleT@_LocaleUpdate@@QEAAPEAU__crt_locale_pointers@@XZ 00000000301378f0 f i libucrtd:output.obj
 0001:00136910       ?__crt_interlocked_read_32@@YAHPEDH@Z 0000000030137910 f i libucrtd:output.obj
 0001:00136940       ?adjust_hexit@?$output_processor@DV?$stream_output_adapter@D@__crt_stdio_output@@V?$format_validation_base@DV?$stream_output_adapter@D@__crt_stdio_output@@@2@@__crt_stdio_output@@CADH_N@Z 0000000030137940 f i libucrtd:output.obj
 0001:001369a0       ?adjust_hexit@?$output_processor@DV?$stream_output_adapter@D@__crt_stdio_output@@V?$positional_parameter_base@DV?$stream_output_adapter@D@__crt_stdio_output@@@2@@__crt_stdio_output@@CADH_N@Z 00000000301379a0 f i libucrtd:output.obj
 0001:00136a00       ?adjust_hexit@?$output_processor@DV?$stream_output_adapter@D@__crt_stdio_output@@V?$standard_base@DV?$stream_output_adapter@D@__crt_stdio_output@@@2@@__crt_stdio_output@@CADH_N@Z 0000000030137a00 f i libucrtd:output.obj
 0001:00136a60       ?adjust_hexit@?$output_processor@DV?$string_output_adapter@D@__crt_stdio_output@@V?$format_validation_base@DV?$string_output_adapter@D@__crt_stdio_output@@@2@@__crt_stdio_output@@CADH_N@Z 0000000030137a60 f i libucrtd:output.obj
 0001:00136ac0       ?adjust_hexit@?$output_processor@DV?$string_output_adapter@D@__crt_stdio_output@@V?$positional_parameter_base@DV?$string_output_adapter@D@__crt_stdio_output@@@2@@__crt_stdio_output@@CADH_N@Z 0000000030137ac0 f i libucrtd:output.obj
 0001:00136b20       ?adjust_hexit@?$output_processor@DV?$string_output_adapter@D@__crt_stdio_output@@V?$standard_base@DV?$string_output_adapter@D@__crt_stdio_output@@@2@@__crt_stdio_output@@CADH_N@Z 0000000030137b20 f i libucrtd:output.obj
 0001:00136b80       ?adjust_hexit@?$output_processor@_WV?$stream_output_adapter@_W@__crt_stdio_output@@V?$format_validation_base@_WV?$stream_output_adapter@_W@__crt_stdio_output@@@2@@__crt_stdio_output@@CADH_N@Z 0000000030137b80 f i libucrtd:output.obj
 0001:00136be0       ?adjust_hexit@?$output_processor@_WV?$stream_output_adapter@_W@__crt_stdio_output@@V?$positional_parameter_base@_WV?$stream_output_adapter@_W@__crt_stdio_output@@@2@@__crt_stdio_output@@CADH_N@Z 0000000030137be0 f i libucrtd:output.obj
 0001:00136c40       ?adjust_hexit@?$output_processor@_WV?$stream_output_adapter@_W@__crt_stdio_output@@V?$standard_base@_WV?$stream_output_adapter@_W@__crt_stdio_output@@@2@@__crt_stdio_output@@CADH_N@Z 0000000030137c40 f i libucrtd:output.obj
 0001:00136ca0       ?adjust_hexit@?$output_processor@_WV?$string_output_adapter@_W@__crt_stdio_output@@V?$format_validation_base@_WV?$string_output_adapter@_W@__crt_stdio_output@@@2@@__crt_stdio_output@@CADH_N@Z 0000000030137ca0 f i libucrtd:output.obj
 0001:00136d00       ?adjust_hexit@?$output_processor@_WV?$string_output_adapter@_W@__crt_stdio_output@@V?$positional_parameter_base@_WV?$string_output_adapter@_W@__crt_stdio_output@@@2@@__crt_stdio_output@@CADH_N@Z 0000000030137d00 f i libucrtd:output.obj
 0001:00136d60       ?adjust_hexit@?$output_processor@_WV?$string_output_adapter@_W@__crt_stdio_output@@V?$standard_base@_WV?$string_output_adapter@_W@__crt_stdio_output@@@2@@__crt_stdio_output@@CADH_N@Z 0000000030137d60 f i libucrtd:output.obj
 0001:00136dc0       ?advance_to_next_pass@?$positional_parameter_base@DV?$stream_output_adapter@D@__crt_stdio_output@@@__crt_stdio_output@@IEAA_NXZ 0000000030137dc0 f i libucrtd:output.obj
 0001:00136ea0       ?advance_to_next_pass@?$positional_parameter_base@DV?$string_output_adapter@D@__crt_stdio_output@@@__crt_stdio_output@@IEAA_NXZ 0000000030137ea0 f i libucrtd:output.obj
 0001:00136f80       ?advance_to_next_pass@?$positional_parameter_base@_WV?$stream_output_adapter@_W@__crt_stdio_output@@@__crt_stdio_output@@IEAA_NXZ 0000000030137f80 f i libucrtd:output.obj
 0001:00137060       ?advance_to_next_pass@?$positional_parameter_base@_WV?$string_output_adapter@_W@__crt_stdio_output@@@__crt_stdio_output@@IEAA_NXZ 0000000030138060 f i libucrtd:output.obj
 0001:00137140       ?advance_to_next_pass@?$standard_base@DV?$stream_output_adapter@D@__crt_stdio_output@@@__crt_stdio_output@@IEAA_NXZ 0000000030138140 f i libucrtd:output.obj
 0001:001371a0       ?advance_to_next_pass@?$standard_base@DV?$string_output_adapter@D@__crt_stdio_output@@@__crt_stdio_output@@IEAA_NXZ 00000000301381a0 f i libucrtd:output.obj
 0001:00137200       ?advance_to_next_pass@?$standard_base@_WV?$stream_output_adapter@_W@__crt_stdio_output@@@__crt_stdio_output@@IEAA_NXZ 0000000030138200 f i libucrtd:output.obj
 0001:00137260       ?advance_to_next_pass@?$standard_base@_WV?$string_output_adapter@_W@__crt_stdio_output@@@__crt_stdio_output@@IEAA_NXZ 0000000030138260 f i libucrtd:output.obj
 0001:001372c0       ?crop_zeroes@__crt_stdio_output@@YAXPEADQEAU__crt_locale_pointers@@@Z 00000000301382c0 f i libucrtd:output.obj
 0001:00137450       ?find_next_state@?$output_processor@DV?$stream_output_adapter@D@__crt_stdio_output@@V?$format_validation_base@DV?$stream_output_adapter@D@__crt_stdio_output@@@2@@__crt_stdio_output@@AEBA?AW4state@2@DW432@@Z 0000000030138450 f i libucrtd:output.obj
 0001:00137510       ?find_next_state@?$output_processor@DV?$stream_output_adapter@D@__crt_stdio_output@@V?$positional_parameter_base@DV?$stream_output_adapter@D@__crt_stdio_output@@@2@@__crt_stdio_output@@AEBA?AW4state@2@DW432@@Z 0000000030138510 f i libucrtd:output.obj
 0001:001375d0       ?find_next_state@?$output_processor@DV?$stream_output_adapter@D@__crt_stdio_output@@V?$standard_base@DV?$stream_output_adapter@D@__crt_stdio_output@@@2@@__crt_stdio_output@@AEBA?AW4state@2@DW432@@Z 00000000301385d0 f i libucrtd:output.obj
 0001:00137690       ?find_next_state@?$output_processor@DV?$string_output_adapter@D@__crt_stdio_output@@V?$format_validation_base@DV?$string_output_adapter@D@__crt_stdio_output@@@2@@__crt_stdio_output@@AEBA?AW4state@2@DW432@@Z 0000000030138690 f i libucrtd:output.obj
 0001:00137750       ?find_next_state@?$output_processor@DV?$string_output_adapter@D@__crt_stdio_output@@V?$positional_parameter_base@DV?$string_output_adapter@D@__crt_stdio_output@@@2@@__crt_stdio_output@@AEBA?AW4state@2@DW432@@Z 0000000030138750 f i libucrtd:output.obj
 0001:00137810       ?find_next_state@?$output_processor@DV?$string_output_adapter@D@__crt_stdio_output@@V?$standard_base@DV?$string_output_adapter@D@__crt_stdio_output@@@2@@__crt_stdio_output@@AEBA?AW4state@2@DW432@@Z 0000000030138810 f i libucrtd:output.obj
 0001:001378d0       ?find_next_state@?$output_processor@_WV?$stream_output_adapter@_W@__crt_stdio_output@@V?$format_validation_base@_WV?$stream_output_adapter@_W@__crt_stdio_output@@@2@@__crt_stdio_output@@AEBA?AW4state@2@_WW432@@Z 00000000301388d0 f i libucrtd:output.obj
 0001:00137990       ?find_next_state@?$output_processor@_WV?$stream_output_adapter@_W@__crt_stdio_output@@V?$positional_parameter_base@_WV?$stream_output_adapter@_W@__crt_stdio_output@@@2@@__crt_stdio_output@@AEBA?AW4state@2@_WW432@@Z 0000000030138990 f i libucrtd:output.obj
 0001:00137a50       ?find_next_state@?$output_processor@_WV?$stream_output_adapter@_W@__crt_stdio_output@@V?$standard_base@_WV?$stream_output_adapter@_W@__crt_stdio_output@@@2@@__crt_stdio_output@@AEBA?AW4state@2@_WW432@@Z 0000000030138a50 f i libucrtd:output.obj
 0001:00137b10       ?find_next_state@?$output_processor@_WV?$string_output_adapter@_W@__crt_stdio_output@@V?$format_validation_base@_WV?$string_output_adapter@_W@__crt_stdio_output@@@2@@__crt_stdio_output@@AEBA?AW4state@2@_WW432@@Z 0000000030138b10 f i libucrtd:output.obj
 0001:00137bd0       ?find_next_state@?$output_processor@_WV?$string_output_adapter@_W@__crt_stdio_output@@V?$positional_parameter_base@_WV?$string_output_adapter@_W@__crt_stdio_output@@@2@@__crt_stdio_output@@AEBA?AW4state@2@_WW432@@Z 0000000030138bd0 f i libucrtd:output.obj
 0001:00137c90       ?find_next_state@?$output_processor@_WV?$string_output_adapter@_W@__crt_stdio_output@@V?$standard_base@_WV?$string_output_adapter@_W@__crt_stdio_output@@@2@@__crt_stdio_output@@AEBA?AW4state@2@_WW432@@Z 0000000030138c90 f i libucrtd:output.obj
 0001:00137d50       ?force_decimal_point@__crt_stdio_output@@YAXPEADQEAU__crt_locale_pointers@@@Z 0000000030138d50 f i libucrtd:output.obj
 0001:00137e80       ?get@__crt_deferred_errno_cache@@QEAAAEAHXZ 0000000030138e80 f i libucrtd:output.obj
 0001:00137ec0       ?get_flags@__crt_stdio_stream@@QEBAJXZ 0000000030138ec0 f i libucrtd:output.obj
 0001:00137ef0       ?get_parameter_type@?$positional_parameter_base@DV?$stream_output_adapter@D@__crt_stdio_output@@@__crt_stdio_output@@CA?AW4parameter_type@12@F@Z 0000000030138ef0 f i libucrtd:output.obj
 0001:00137f00       ?get_parameter_type@?$positional_parameter_base@DV?$stream_output_adapter@D@__crt_stdio_output@@@__crt_stdio_output@@CA?AW4parameter_type@12@G@Z 0000000030138f00 f i libucrtd:output.obj
 0001:00137f10       ?get_parameter_type@?$positional_parameter_base@DV?$stream_output_adapter@D@__crt_stdio_output@@@__crt_stdio_output@@CA?AW4parameter_type@12@H@Z 0000000030138f10 f i libucrtd:output.obj
 0001:00137f20       ?get_parameter_type@?$positional_parameter_base@DV?$stream_output_adapter@D@__crt_stdio_output@@@__crt_stdio_output@@CA?AW4parameter_type@12@I@Z 0000000030138f20 f i libucrtd:output.obj
 0001:00137f30       ?get_parameter_type@?$positional_parameter_base@DV?$stream_output_adapter@D@__crt_stdio_output@@@__crt_stdio_output@@CA?AW4parameter_type@12@U_CRT_DOUBLE@@@Z 0000000030138f30 f i libucrtd:output.obj
 0001:00137f40       ?get_parameter_type@?$positional_parameter_base@DV?$stream_output_adapter@D@__crt_stdio_output@@@__crt_stdio_output@@CA?AW4parameter_type@12@_J@Z 0000000030138f40 f i libucrtd:output.obj
 0001:00137f50       ?get_parameter_type@?$positional_parameter_base@DV?$stream_output_adapter@D@__crt_stdio_output@@@__crt_stdio_output@@CA?AW4parameter_type@12@_K@Z 0000000030138f50 f i libucrtd:output.obj
 0001:00137f60       ?get_parameter_type@?$positional_parameter_base@DV?$stream_output_adapter@D@__crt_stdio_output@@@__crt_stdio_output@@CA?AW4parameter_type@12@_W@Z 0000000030138f60 f i libucrtd:output.obj
 0001:00137f70       ?get_parameter_type@?$positional_parameter_base@DV?$string_output_adapter@D@__crt_stdio_output@@@__crt_stdio_output@@CA?AW4parameter_type@12@F@Z 0000000030138f70 f i libucrtd:output.obj
 0001:00137f80       ?get_parameter_type@?$positional_parameter_base@DV?$string_output_adapter@D@__crt_stdio_output@@@__crt_stdio_output@@CA?AW4parameter_type@12@G@Z 0000000030138f80 f i libucrtd:output.obj
 0001:00137f90       ?get_parameter_type@?$positional_parameter_base@DV?$string_output_adapter@D@__crt_stdio_output@@@__crt_stdio_output@@CA?AW4parameter_type@12@H@Z 0000000030138f90 f i libucrtd:output.obj
 0001:00137fa0       ?get_parameter_type@?$positional_parameter_base@DV?$string_output_adapter@D@__crt_stdio_output@@@__crt_stdio_output@@CA?AW4parameter_type@12@I@Z 0000000030138fa0 f i libucrtd:output.obj
 0001:00137fb0       ?get_parameter_type@?$positional_parameter_base@DV?$string_output_adapter@D@__crt_stdio_output@@@__crt_stdio_output@@CA?AW4parameter_type@12@U_CRT_DOUBLE@@@Z 0000000030138fb0 f i libucrtd:output.obj
 0001:00137fc0       ?get_parameter_type@?$positional_parameter_base@DV?$string_output_adapter@D@__crt_stdio_output@@@__crt_stdio_output@@CA?AW4parameter_type@12@_J@Z 0000000030138fc0 f i libucrtd:output.obj
 0001:00137fd0       ?get_parameter_type@?$positional_parameter_base@DV?$string_output_adapter@D@__crt_stdio_output@@@__crt_stdio_output@@CA?AW4parameter_type@12@_K@Z 0000000030138fd0 f i libucrtd:output.obj
 0001:00137fe0       ?get_parameter_type@?$positional_parameter_base@DV?$string_output_adapter@D@__crt_stdio_output@@@__crt_stdio_output@@CA?AW4parameter_type@12@_W@Z 0000000030138fe0 f i libucrtd:output.obj
 0001:00137ff0       ?get_parameter_type@?$positional_parameter_base@_WV?$stream_output_adapter@_W@__crt_stdio_output@@@__crt_stdio_output@@CA?AW4parameter_type@12@F@Z 0000000030138ff0 f i libucrtd:output.obj
 0001:00138000       ?get_parameter_type@?$positional_parameter_base@_WV?$stream_output_adapter@_W@__crt_stdio_output@@@__crt_stdio_output@@CA?AW4parameter_type@12@G@Z 0000000030139000 f i libucrtd:output.obj
 0001:00138010       ?get_parameter_type@?$positional_parameter_base@_WV?$stream_output_adapter@_W@__crt_stdio_output@@@__crt_stdio_output@@CA?AW4parameter_type@12@H@Z 0000000030139010 f i libucrtd:output.obj
 0001:00138020       ?get_parameter_type@?$positional_parameter_base@_WV?$stream_output_adapter@_W@__crt_stdio_output@@@__crt_stdio_output@@CA?AW4parameter_type@12@I@Z 0000000030139020 f i libucrtd:output.obj
 0001:00138030       ?get_parameter_type@?$positional_parameter_base@_WV?$stream_output_adapter@_W@__crt_stdio_output@@@__crt_stdio_output@@CA?AW4parameter_type@12@U_CRT_DOUBLE@@@Z 0000000030139030 f i libucrtd:output.obj
 0001:00138040       ?get_parameter_type@?$positional_parameter_base@_WV?$stream_output_adapter@_W@__crt_stdio_output@@@__crt_stdio_output@@CA?AW4parameter_type@12@_J@Z 0000000030139040 f i libucrtd:output.obj
 0001:00138050       ?get_parameter_type@?$positional_parameter_base@_WV?$stream_output_adapter@_W@__crt_stdio_output@@@__crt_stdio_output@@CA?AW4parameter_type@12@_K@Z 0000000030139050 f i libucrtd:output.obj
 0001:00138060       ?get_parameter_type@?$positional_parameter_base@_WV?$stream_output_adapter@_W@__crt_stdio_output@@@__crt_stdio_output@@CA?AW4parameter_type@12@_W@Z 0000000030139060 f i libucrtd:output.obj
 0001:00138070       ?get_parameter_type@?$positional_parameter_base@_WV?$string_output_adapter@_W@__crt_stdio_output@@@__crt_stdio_output@@CA?AW4parameter_type@12@F@Z 0000000030139070 f i libucrtd:output.obj
 0001:00138080       ?get_parameter_type@?$positional_parameter_base@_WV?$string_output_adapter@_W@__crt_stdio_output@@@__crt_stdio_output@@CA?AW4parameter_type@12@G@Z 0000000030139080 f i libucrtd:output.obj
 0001:00138090       ?get_parameter_type@?$positional_parameter_base@_WV?$string_output_adapter@_W@__crt_stdio_output@@@__crt_stdio_output@@CA?AW4parameter_type@12@H@Z 0000000030139090 f i libucrtd:output.obj
 0001:001380a0       ?get_parameter_type@?$positional_parameter_base@_WV?$string_output_adapter@_W@__crt_stdio_output@@@__crt_stdio_output@@CA?AW4parameter_type@12@I@Z 00000000301390a0 f i libucrtd:output.obj
 0001:001380b0       ?get_parameter_type@?$positional_parameter_base@_WV?$string_output_adapter@_W@__crt_stdio_output@@@__crt_stdio_output@@CA?AW4parameter_type@12@U_CRT_DOUBLE@@@Z 00000000301390b0 f i libucrtd:output.obj
 0001:001380c0       ?get_parameter_type@?$positional_parameter_base@_WV?$string_output_adapter@_W@__crt_stdio_output@@@__crt_stdio_output@@CA?AW4parameter_type@12@_J@Z 00000000301390c0 f i libucrtd:output.obj
 0001:001380d0       ?get_parameter_type@?$positional_parameter_base@_WV?$string_output_adapter@_W@__crt_stdio_output@@@__crt_stdio_output@@CA?AW4parameter_type@12@_K@Z 00000000301390d0 f i libucrtd:output.obj
 0001:001380e0       ?get_parameter_type@?$positional_parameter_base@_WV?$string_output_adapter@_W@__crt_stdio_output@@@__crt_stdio_output@@CA?AW4parameter_type@12@_W@Z 00000000301390e0 f i libucrtd:output.obj
 0001:001380f0       ?has_flag@?$output_processor@DV?$stream_output_adapter@D@__crt_stdio_output@@V?$format_validation_base@DV?$stream_output_adapter@D@__crt_stdio_output@@@2@@__crt_stdio_output@@AEBA_NI@Z 00000000301390f0 f i libucrtd:output.obj
 0001:00138140       ?has_flag@?$output_processor@DV?$stream_output_adapter@D@__crt_stdio_output@@V?$positional_parameter_base@DV?$stream_output_adapter@D@__crt_stdio_output@@@2@@__crt_stdio_output@@AEBA_NI@Z 0000000030139140 f i libucrtd:output.obj
 0001:00138190       ?has_flag@?$output_processor@DV?$stream_output_adapter@D@__crt_stdio_output@@V?$standard_base@DV?$stream_output_adapter@D@__crt_stdio_output@@@2@@__crt_stdio_output@@AEBA_NI@Z 0000000030139190 f i libucrtd:output.obj
 0001:001381e0       ?has_flag@?$output_processor@DV?$string_output_adapter@D@__crt_stdio_output@@V?$format_validation_base@DV?$string_output_adapter@D@__crt_stdio_output@@@2@@__crt_stdio_output@@AEBA_NI@Z 00000000301391e0 f i libucrtd:output.obj
 0001:00138230       ?has_flag@?$output_processor@DV?$string_output_adapter@D@__crt_stdio_output@@V?$positional_parameter_base@DV?$string_output_adapter@D@__crt_stdio_output@@@2@@__crt_stdio_output@@AEBA_NI@Z 0000000030139230 f i libucrtd:output.obj
 0001:00138280       ?has_flag@?$output_processor@DV?$string_output_adapter@D@__crt_stdio_output@@V?$standard_base@DV?$string_output_adapter@D@__crt_stdio_output@@@2@@__crt_stdio_output@@AEBA_NI@Z 0000000030139280 f i libucrtd:output.obj
 0001:001382d0       ?has_flag@?$output_processor@_WV?$stream_output_adapter@_W@__crt_stdio_output@@V?$format_validation_base@_WV?$stream_output_adapter@_W@__crt_stdio_output@@@2@@__crt_stdio_output@@AEBA_NI@Z 00000000301392d0 f i libucrtd:output.obj
 0001:00138320       ?has_flag@?$output_processor@_WV?$stream_output_adapter@_W@__crt_stdio_output@@V?$positional_parameter_base@_WV?$stream_output_adapter@_W@__crt_stdio_output@@@2@@__crt_stdio_output@@AEBA_NI@Z 0000000030139320 f i libucrtd:output.obj
 0001:00138370       ?has_flag@?$output_processor@_WV?$stream_output_adapter@_W@__crt_stdio_output@@V?$standard_base@_WV?$stream_output_adapter@_W@__crt_stdio_output@@@2@@__crt_stdio_output@@AEBA_NI@Z 0000000030139370 f i libucrtd:output.obj
 0001:001383c0       ?has_flag@?$output_processor@_WV?$string_output_adapter@_W@__crt_stdio_output@@V?$format_validation_base@_WV?$string_output_adapter@_W@__crt_stdio_output@@@2@@__crt_stdio_output@@AEBA_NI@Z 00000000301393c0 f i libucrtd:output.obj
 0001:00138410       ?has_flag@?$output_processor@_WV?$string_output_adapter@_W@__crt_stdio_output@@V?$positional_parameter_base@_WV?$string_output_adapter@_W@__crt_stdio_output@@@2@@__crt_stdio_output@@AEBA_NI@Z 0000000030139410 f i libucrtd:output.obj
 0001:00138460       ?has_flag@?$output_processor@_WV?$string_output_adapter@_W@__crt_stdio_output@@V?$standard_base@_WV?$string_output_adapter@_W@__crt_stdio_output@@@2@@__crt_stdio_output@@AEBA_NI@Z 0000000030139460 f i libucrtd:output.obj
 0001:001384b0       ?is_positional_parameter_reappearance_consistent@?$positional_parameter_base@DV?$stream_output_adapter@D@__crt_stdio_output@@@__crt_stdio_output@@AEAA_NAEBUparameter_data@12@W4parameter_type@12@DW4length_modifier@2@@Z 00000000301394b0 f i libucrtd:output.obj
 0001:001387a0       ?is_positional_parameter_reappearance_consistent@?$positional_parameter_base@DV?$string_output_adapter@D@__crt_stdio_output@@@__crt_stdio_output@@AEAA_NAEBUparameter_data@12@W4parameter_type@12@DW4length_modifier@2@@Z 00000000301397a0 f i libucrtd:output.obj
 0001:00138a90       ?is_positional_parameter_reappearance_consistent@?$positional_parameter_base@_WV?$stream_output_adapter@_W@__crt_stdio_output@@@__crt_stdio_output@@AEAA_NAEBUparameter_data@12@W4parameter_type@12@_WW4length_modifier@2@@Z 0000000030139a90 f i libucrtd:output.obj
 0001:00138d80       ?is_positional_parameter_reappearance_consistent@?$positional_parameter_base@_WV?$string_output_adapter@_W@__crt_stdio_output@@@__crt_stdio_output@@AEAA_NAEBUparameter_data@12@W4parameter_type@12@_WW4length_modifier@2@@Z 0000000030139d80 f i libucrtd:output.obj
 0001:00139070       ?is_string_backed@__crt_stdio_stream@@QEBA_NXZ 000000003013a070 f i libucrtd:output.obj
 0001:001390c0       ?narrow_null_string@?$output_processor@DV?$stream_output_adapter@D@__crt_stdio_output@@V?$format_validation_base@DV?$stream_output_adapter@D@__crt_stdio_output@@@2@@__crt_stdio_output@@CAPEADXZ 000000003013a0c0 f i libucrtd:output.obj
 0001:001390d0       ?narrow_null_string@?$output_processor@DV?$stream_output_adapter@D@__crt_stdio_output@@V?$positional_parameter_base@DV?$stream_output_adapter@D@__crt_stdio_output@@@2@@__crt_stdio_output@@CAPEADXZ 000000003013a0d0 f i libucrtd:output.obj
 0001:001390e0       ?narrow_null_string@?$output_processor@DV?$stream_output_adapter@D@__crt_stdio_output@@V?$standard_base@DV?$stream_output_adapter@D@__crt_stdio_output@@@2@@__crt_stdio_output@@CAPEADXZ 000000003013a0e0 f i libucrtd:output.obj
 0001:001390f0       ?narrow_null_string@?$output_processor@DV?$string_output_adapter@D@__crt_stdio_output@@V?$format_validation_base@DV?$string_output_adapter@D@__crt_stdio_output@@@2@@__crt_stdio_output@@CAPEADXZ 000000003013a0f0 f i libucrtd:output.obj
 0001:00139100       ?narrow_null_string@?$output_processor@DV?$string_output_adapter@D@__crt_stdio_output@@V?$positional_parameter_base@DV?$string_output_adapter@D@__crt_stdio_output@@@2@@__crt_stdio_output@@CAPEADXZ 000000003013a100 f i libucrtd:output.obj
 0001:00139110       ?narrow_null_string@?$output_processor@DV?$string_output_adapter@D@__crt_stdio_output@@V?$standard_base@DV?$string_output_adapter@D@__crt_stdio_output@@@2@@__crt_stdio_output@@CAPEADXZ 000000003013a110 f i libucrtd:output.obj
 0001:00139120       ?narrow_null_string@?$output_processor@_WV?$stream_output_adapter@_W@__crt_stdio_output@@V?$format_validation_base@_WV?$stream_output_adapter@_W@__crt_stdio_output@@@2@@__crt_stdio_output@@CAPEADXZ 000000003013a120 f i libucrtd:output.obj
 0001:00139130       ?narrow_null_string@?$output_processor@_WV?$stream_output_adapter@_W@__crt_stdio_output@@V?$positional_parameter_base@_WV?$stream_output_adapter@_W@__crt_stdio_output@@@2@@__crt_stdio_output@@CAPEADXZ 000000003013a130 f i libucrtd:output.obj
 0001:00139140       ?narrow_null_string@?$output_processor@_WV?$stream_output_adapter@_W@__crt_stdio_output@@V?$standard_base@_WV?$stream_output_adapter@_W@__crt_stdio_output@@@2@@__crt_stdio_output@@CAPEADXZ 000000003013a140 f i libucrtd:output.obj
 0001:00139150       ?narrow_null_string@?$output_processor@_WV?$string_output_adapter@_W@__crt_stdio_output@@V?$format_validation_base@_WV?$string_output_adapter@_W@__crt_stdio_output@@@2@@__crt_stdio_output@@CAPEADXZ 000000003013a150 f i libucrtd:output.obj
 0001:00139160       ?narrow_null_string@?$output_processor@_WV?$string_output_adapter@_W@__crt_stdio_output@@V?$positional_parameter_base@_WV?$string_output_adapter@_W@__crt_stdio_output@@@2@@__crt_stdio_output@@CAPEADXZ 000000003013a160 f i libucrtd:output.obj
 0001:00139170       ?narrow_null_string@?$output_processor@_WV?$string_output_adapter@_W@__crt_stdio_output@@V?$standard_base@_WV?$string_output_adapter@_W@__crt_stdio_output@@@2@@__crt_stdio_output@@CAPEADXZ 000000003013a170 f i libucrtd:output.obj
 0001:00139180       ?parse_int_from_format_string@?$output_processor@DV?$stream_output_adapter@D@__crt_stdio_output@@V?$format_validation_base@DV?$stream_output_adapter@D@__crt_stdio_output@@@2@@__crt_stdio_output@@AEAA_NQEAH@Z 000000003013a180 f i libucrtd:output.obj
 0001:001392b0       ?parse_int_from_format_string@?$output_processor@DV?$stream_output_adapter@D@__crt_stdio_output@@V?$positional_parameter_base@DV?$stream_output_adapter@D@__crt_stdio_output@@@2@@__crt_stdio_output@@AEAA_NQEAH@Z 000000003013a2b0 f i libucrtd:output.obj
 0001:001393e0       ?parse_int_from_format_string@?$output_processor@DV?$stream_output_adapter@D@__crt_stdio_output@@V?$standard_base@DV?$stream_output_adapter@D@__crt_stdio_output@@@2@@__crt_stdio_output@@AEAA_NQEAH@Z 000000003013a3e0 f i libucrtd:output.obj
 0001:00139510       ?parse_int_from_format_string@?$output_processor@DV?$string_output_adapter@D@__crt_stdio_output@@V?$format_validation_base@DV?$string_output_adapter@D@__crt_stdio_output@@@2@@__crt_stdio_output@@AEAA_NQEAH@Z 000000003013a510 f i libucrtd:output.obj
 0001:00139640       ?parse_int_from_format_string@?$output_processor@DV?$string_output_adapter@D@__crt_stdio_output@@V?$positional_parameter_base@DV?$string_output_adapter@D@__crt_stdio_output@@@2@@__crt_stdio_output@@AEAA_NQEAH@Z 000000003013a640 f i libucrtd:output.obj
 0001:00139770       ?parse_int_from_format_string@?$output_processor@DV?$string_output_adapter@D@__crt_stdio_output@@V?$standard_base@DV?$string_output_adapter@D@__crt_stdio_output@@@2@@__crt_stdio_output@@AEAA_NQEAH@Z 000000003013a770 f i libucrtd:output.obj
 0001:001398a0       ?parse_int_from_format_string@?$output_processor@_WV?$stream_output_adapter@_W@__crt_stdio_output@@V?$format_validation_base@_WV?$stream_output_adapter@_W@__crt_stdio_output@@@2@@__crt_stdio_output@@AEAA_NQEAH@Z 000000003013a8a0 f i libucrtd:output.obj
 0001:001399d0       ?parse_int_from_format_string@?$output_processor@_WV?$stream_output_adapter@_W@__crt_stdio_output@@V?$positional_parameter_base@_WV?$stream_output_adapter@_W@__crt_stdio_output@@@2@@__crt_stdio_output@@AEAA_NQEAH@Z 000000003013a9d0 f i libucrtd:output.obj
 0001:00139b00       ?parse_int_from_format_string@?$output_processor@_WV?$stream_output_adapter@_W@__crt_stdio_output@@V?$standard_base@_WV?$stream_output_adapter@_W@__crt_stdio_output@@@2@@__crt_stdio_output@@AEAA_NQEAH@Z 000000003013ab00 f i libucrtd:output.obj
 0001:00139c30       ?parse_int_from_format_string@?$output_processor@_WV?$string_output_adapter@_W@__crt_stdio_output@@V?$format_validation_base@_WV?$string_output_adapter@_W@__crt_stdio_output@@@2@@__crt_stdio_output@@AEAA_NQEAH@Z 000000003013ac30 f i libucrtd:output.obj
 0001:00139d60       ?parse_int_from_format_string@?$output_processor@_WV?$string_output_adapter@_W@__crt_stdio_output@@V?$positional_parameter_base@_WV?$string_output_adapter@_W@__crt_stdio_output@@@2@@__crt_stdio_output@@AEAA_NQEAH@Z 000000003013ad60 f i libucrtd:output.obj
 0001:00139e90       ?parse_int_from_format_string@?$output_processor@_WV?$string_output_adapter@_W@__crt_stdio_output@@V?$standard_base@_WV?$string_output_adapter@_W@__crt_stdio_output@@@2@@__crt_stdio_output@@AEAA_NQEAH@Z 000000003013ae90 f i libucrtd:output.obj
 0001:00139fc0       ?process@?$output_processor@DV?$stream_output_adapter@D@__crt_stdio_output@@V?$format_validation_base@DV?$stream_output_adapter@D@__crt_stdio_output@@@2@@__crt_stdio_output@@QEAAHXZ 000000003013afc0 f i libucrtd:output.obj
 0001:0013a400       ?process@?$output_processor@DV?$stream_output_adapter@D@__crt_stdio_output@@V?$positional_parameter_base@DV?$stream_output_adapter@D@__crt_stdio_output@@@2@@__crt_stdio_output@@QEAAHXZ 000000003013b400 f i libucrtd:output.obj
 0001:0013a840       ?process@?$output_processor@DV?$stream_output_adapter@D@__crt_stdio_output@@V?$standard_base@DV?$stream_output_adapter@D@__crt_stdio_output@@@2@@__crt_stdio_output@@QEAAHXZ 000000003013b840 f i libucrtd:output.obj
 0001:0013ac80       ?process@?$output_processor@DV?$string_output_adapter@D@__crt_stdio_output@@V?$format_validation_base@DV?$string_output_adapter@D@__crt_stdio_output@@@2@@__crt_stdio_output@@QEAAHXZ 000000003013bc80 f i libucrtd:output.obj
 0001:0013b0c0       ?process@?$output_processor@DV?$string_output_adapter@D@__crt_stdio_output@@V?$positional_parameter_base@DV?$string_output_adapter@D@__crt_stdio_output@@@2@@__crt_stdio_output@@QEAAHXZ 000000003013c0c0 f i libucrtd:output.obj
 0001:0013b500       ?process@?$output_processor@DV?$string_output_adapter@D@__crt_stdio_output@@V?$standard_base@DV?$string_output_adapter@D@__crt_stdio_output@@@2@@__crt_stdio_output@@QEAAHXZ 000000003013c500 f i libucrtd:output.obj
 0001:0013b940       ?process@?$output_processor@_WV?$stream_output_adapter@_W@__crt_stdio_output@@V?$format_validation_base@_WV?$stream_output_adapter@_W@__crt_stdio_output@@@2@@__crt_stdio_output@@QEAAHXZ 000000003013c940 f i libucrtd:output.obj
 0001:0013bd80       ?process@?$output_processor@_WV?$stream_output_adapter@_W@__crt_stdio_output@@V?$positional_parameter_base@_WV?$stream_output_adapter@_W@__crt_stdio_output@@@2@@__crt_stdio_output@@QEAAHXZ 000000003013cd80 f i libucrtd:output.obj
 0001:0013c1c0       ?process@?$output_processor@_WV?$stream_output_adapter@_W@__crt_stdio_output@@V?$standard_base@_WV?$stream_output_adapter@_W@__crt_stdio_output@@@2@@__crt_stdio_output@@QEAAHXZ 000000003013d1c0 f i libucrtd:output.obj
 0001:0013c600       ?process@?$output_processor@_WV?$string_output_adapter@_W@__crt_stdio_output@@V?$format_validation_base@_WV?$string_output_adapter@_W@__crt_stdio_output@@@2@@__crt_stdio_output@@QEAAHXZ 000000003013d600 f i libucrtd:output.obj
 0001:0013ca40       ?process@?$output_processor@_WV?$string_output_adapter@_W@__crt_stdio_output@@V?$positional_parameter_base@_WV?$string_output_adapter@_W@__crt_stdio_output@@@2@@__crt_stdio_output@@QEAAHXZ 000000003013da40 f i libucrtd:output.obj
 0001:0013ce80       ?process@?$output_processor@_WV?$string_output_adapter@_W@__crt_stdio_output@@V?$standard_base@_WV?$string_output_adapter@_W@__crt_stdio_output@@@2@@__crt_stdio_output@@QEAAHXZ 000000003013de80 f i libucrtd:output.obj
 0001:0013d2c0       ?public_stream@__crt_stdio_stream@@QEBAPEAU_iobuf@@XZ 000000003013e2c0 f i libucrtd:output.obj
 0001:0013d2e0       ?set_flag@?$output_processor@DV?$stream_output_adapter@D@__crt_stdio_output@@V?$format_validation_base@DV?$stream_output_adapter@D@__crt_stdio_output@@@2@@__crt_stdio_output@@AEAAXI@Z 000000003013e2e0 f i libucrtd:output.obj
 0001:0013d310       ?set_flag@?$output_processor@DV?$stream_output_adapter@D@__crt_stdio_output@@V?$positional_parameter_base@DV?$stream_output_adapter@D@__crt_stdio_output@@@2@@__crt_stdio_output@@AEAAXI@Z 000000003013e310 f i libucrtd:output.obj
 0001:0013d340       ?set_flag@?$output_processor@DV?$stream_output_adapter@D@__crt_stdio_output@@V?$standard_base@DV?$stream_output_adapter@D@__crt_stdio_output@@@2@@__crt_stdio_output@@AEAAXI@Z 000000003013e340 f i libucrtd:output.obj
 0001:0013d370       ?set_flag@?$output_processor@DV?$string_output_adapter@D@__crt_stdio_output@@V?$format_validation_base@DV?$string_output_adapter@D@__crt_stdio_output@@@2@@__crt_stdio_output@@AEAAXI@Z 000000003013e370 f i libucrtd:output.obj
 0001:0013d3a0       ?set_flag@?$output_processor@DV?$string_output_adapter@D@__crt_stdio_output@@V?$positional_parameter_base@DV?$string_output_adapter@D@__crt_stdio_output@@@2@@__crt_stdio_output@@AEAAXI@Z 000000003013e3a0 f i libucrtd:output.obj
 0001:0013d3d0       ?set_flag@?$output_processor@DV?$string_output_adapter@D@__crt_stdio_output@@V?$standard_base@DV?$string_output_adapter@D@__crt_stdio_output@@@2@@__crt_stdio_output@@AEAAXI@Z 000000003013e3d0 f i libucrtd:output.obj
 0001:0013d400       ?set_flag@?$output_processor@_WV?$stream_output_adapter@_W@__crt_stdio_output@@V?$format_validation_base@_WV?$stream_output_adapter@_W@__crt_stdio_output@@@2@@__crt_stdio_output@@AEAAXI@Z 000000003013e400 f i libucrtd:output.obj
 0001:0013d430       ?set_flag@?$output_processor@_WV?$stream_output_adapter@_W@__crt_stdio_output@@V?$positional_parameter_base@_WV?$stream_output_adapter@_W@__crt_stdio_output@@@2@@__crt_stdio_output@@AEAAXI@Z 000000003013e430 f i libucrtd:output.obj
 0001:0013d460       ?set_flag@?$output_processor@_WV?$stream_output_adapter@_W@__crt_stdio_output@@V?$standard_base@_WV?$stream_output_adapter@_W@__crt_stdio_output@@@2@@__crt_stdio_output@@AEAAXI@Z 000000003013e460 f i libucrtd:output.obj
 0001:0013d490       ?set_flag@?$output_processor@_WV?$string_output_adapter@_W@__crt_stdio_output@@V?$format_validation_base@_WV?$string_output_adapter@_W@__crt_stdio_output@@@2@@__crt_stdio_output@@AEAAXI@Z 000000003013e490 f i libucrtd:output.obj
 0001:0013d4c0       ?set_flag@?$output_processor@_WV?$string_output_adapter@_W@__crt_stdio_output@@V?$positional_parameter_base@_WV?$string_output_adapter@_W@__crt_stdio_output@@@2@@__crt_stdio_output@@AEAAXI@Z 000000003013e4c0 f i libucrtd:output.obj
 0001:0013d4f0       ?set_flag@?$output_processor@_WV?$string_output_adapter@_W@__crt_stdio_output@@V?$standard_base@_WV?$string_output_adapter@_W@__crt_stdio_output@@@2@@__crt_stdio_output@@AEAAXI@Z 000000003013e4f0 f i libucrtd:output.obj
 0001:0013d520       ?should_format@?$positional_parameter_base@DV?$stream_output_adapter@D@__crt_stdio_output@@@__crt_stdio_output@@IEAA_NXZ 000000003013e520 f i libucrtd:output.obj
 0001:0013d570       ?should_format@?$positional_parameter_base@DV?$string_output_adapter@D@__crt_stdio_output@@@__crt_stdio_output@@IEAA_NXZ 000000003013e570 f i libucrtd:output.obj
 0001:0013d5c0       ?should_format@?$positional_parameter_base@_WV?$stream_output_adapter@_W@__crt_stdio_output@@@__crt_stdio_output@@IEAA_NXZ 000000003013e5c0 f i libucrtd:output.obj
 0001:0013d610       ?should_format@?$positional_parameter_base@_WV?$string_output_adapter@_W@__crt_stdio_output@@@__crt_stdio_output@@IEAA_NXZ 000000003013e610 f i libucrtd:output.obj
 0001:0013d660       ?should_format@?$standard_base@DV?$stream_output_adapter@D@__crt_stdio_output@@@__crt_stdio_output@@IEAA_NXZ 000000003013e660 f i libucrtd:output.obj
 0001:0013d670       ?should_format@?$standard_base@DV?$string_output_adapter@D@__crt_stdio_output@@@__crt_stdio_output@@IEAA_NXZ 000000003013e670 f i libucrtd:output.obj
 0001:0013d680       ?should_format@?$standard_base@_WV?$stream_output_adapter@_W@__crt_stdio_output@@@__crt_stdio_output@@IEAA_NXZ 000000003013e680 f i libucrtd:output.obj
 0001:0013d690       ?should_format@?$standard_base@_WV?$string_output_adapter@_W@__crt_stdio_output@@@__crt_stdio_output@@IEAA_NXZ 000000003013e690 f i libucrtd:output.obj
 0001:0013d6a0       ?should_skip_normal_state_processing@?$positional_parameter_base@DV?$stream_output_adapter@D@__crt_stdio_output@@@__crt_stdio_output@@IEAA_NXZ 000000003013e6a0 f i libucrtd:output.obj
 0001:0013d700       ?should_skip_normal_state_processing@?$positional_parameter_base@DV?$string_output_adapter@D@__crt_stdio_output@@@__crt_stdio_output@@IEAA_NXZ 000000003013e700 f i libucrtd:output.obj
 0001:0013d760       ?should_skip_normal_state_processing@?$positional_parameter_base@_WV?$stream_output_adapter@_W@__crt_stdio_output@@@__crt_stdio_output@@IEAA_NXZ 000000003013e760 f i libucrtd:output.obj
 0001:0013d7c0       ?should_skip_normal_state_processing@?$positional_parameter_base@_WV?$string_output_adapter@_W@__crt_stdio_output@@@__crt_stdio_output@@IEAA_NXZ 000000003013e7c0 f i libucrtd:output.obj
 0001:0013d820       ?should_skip_normal_state_processing@?$standard_base@DV?$stream_output_adapter@D@__crt_stdio_output@@@__crt_stdio_output@@IEAA_NXZ 000000003013e820 f i libucrtd:output.obj
 0001:0013d830       ?should_skip_normal_state_processing@?$standard_base@DV?$string_output_adapter@D@__crt_stdio_output@@@__crt_stdio_output@@IEAA_NXZ 000000003013e830 f i libucrtd:output.obj
 0001:0013d840       ?should_skip_normal_state_processing@?$standard_base@_WV?$stream_output_adapter@_W@__crt_stdio_output@@@__crt_stdio_output@@IEAA_NXZ 000000003013e840 f i libucrtd:output.obj
 0001:0013d850       ?should_skip_normal_state_processing@?$standard_base@_WV?$string_output_adapter@_W@__crt_stdio_output@@@__crt_stdio_output@@IEAA_NXZ 000000003013e850 f i libucrtd:output.obj
 0001:0013d860       ?should_skip_type_state_output@?$positional_parameter_base@DV?$stream_output_adapter@D@__crt_stdio_output@@@__crt_stdio_output@@IEBA_NXZ 000000003013e860 f i libucrtd:output.obj
 0001:0013d8b0       ?should_skip_type_state_output@?$positional_parameter_base@DV?$string_output_adapter@D@__crt_stdio_output@@@__crt_stdio_output@@IEBA_NXZ 000000003013e8b0 f i libucrtd:output.obj
 0001:0013d900       ?should_skip_type_state_output@?$positional_parameter_base@_WV?$stream_output_adapter@_W@__crt_stdio_output@@@__crt_stdio_output@@IEBA_NXZ 000000003013e900 f i libucrtd:output.obj
 0001:0013d950       ?should_skip_type_state_output@?$positional_parameter_base@_WV?$string_output_adapter@_W@__crt_stdio_output@@@__crt_stdio_output@@IEBA_NXZ 000000003013e950 f i libucrtd:output.obj
 0001:0013d9a0       ?should_skip_type_state_output@?$standard_base@DV?$stream_output_adapter@D@__crt_stdio_output@@@__crt_stdio_output@@IEBA_NXZ 000000003013e9a0 f i libucrtd:output.obj
 0001:0013d9b0       ?should_skip_type_state_output@?$standard_base@DV?$string_output_adapter@D@__crt_stdio_output@@@__crt_stdio_output@@IEBA_NXZ 000000003013e9b0 f i libucrtd:output.obj
 0001:0013d9c0       ?should_skip_type_state_output@?$standard_base@_WV?$stream_output_adapter@_W@__crt_stdio_output@@@__crt_stdio_output@@IEBA_NXZ 000000003013e9c0 f i libucrtd:output.obj
 0001:0013d9d0       ?should_skip_type_state_output@?$standard_base@_WV?$string_output_adapter@_W@__crt_stdio_output@@@__crt_stdio_output@@IEBA_NXZ 000000003013e9d0 f i libucrtd:output.obj
 0001:0013d9e0       ?state_case_dot@?$output_processor@DV?$stream_output_adapter@D@__crt_stdio_output@@V?$format_validation_base@DV?$stream_output_adapter@D@__crt_stdio_output@@@2@@__crt_stdio_output@@AEAA_NXZ 000000003013e9e0 f i libucrtd:output.obj
 0001:0013da00       ?state_case_dot@?$output_processor@DV?$stream_output_adapter@D@__crt_stdio_output@@V?$positional_parameter_base@DV?$stream_output_adapter@D@__crt_stdio_output@@@2@@__crt_stdio_output@@AEAA_NXZ 000000003013ea00 f i libucrtd:output.obj
 0001:0013da20       ?state_case_dot@?$output_processor@DV?$stream_output_adapter@D@__crt_stdio_output@@V?$standard_base@DV?$stream_output_adapter@D@__crt_stdio_output@@@2@@__crt_stdio_output@@AEAA_NXZ 000000003013ea20 f i libucrtd:output.obj
 0001:0013da40       ?state_case_dot@?$output_processor@DV?$string_output_adapter@D@__crt_stdio_output@@V?$format_validation_base@DV?$string_output_adapter@D@__crt_stdio_output@@@2@@__crt_stdio_output@@AEAA_NXZ 000000003013ea40 f i libucrtd:output.obj
 0001:0013da60       ?state_case_dot@?$output_processor@DV?$string_output_adapter@D@__crt_stdio_output@@V?$positional_parameter_base@DV?$string_output_adapter@D@__crt_stdio_output@@@2@@__crt_stdio_output@@AEAA_NXZ 000000003013ea60 f i libucrtd:output.obj
 0001:0013da80       ?state_case_dot@?$output_processor@DV?$string_output_adapter@D@__crt_stdio_output@@V?$standard_base@DV?$string_output_adapter@D@__crt_stdio_output@@@2@@__crt_stdio_output@@AEAA_NXZ 000000003013ea80 f i libucrtd:output.obj
 0001:0013daa0       ?state_case_dot@?$output_processor@_WV?$stream_output_adapter@_W@__crt_stdio_output@@V?$format_validation_base@_WV?$stream_output_adapter@_W@__crt_stdio_output@@@2@@__crt_stdio_output@@AEAA_NXZ 000000003013eaa0 f i libucrtd:output.obj
 0001:0013dac0       ?state_case_dot@?$output_processor@_WV?$stream_output_adapter@_W@__crt_stdio_output@@V?$positional_parameter_base@_WV?$stream_output_adapter@_W@__crt_stdio_output@@@2@@__crt_stdio_output@@AEAA_NXZ 000000003013eac0 f i libucrtd:output.obj
 0001:0013dae0       ?state_case_dot@?$output_processor@_WV?$stream_output_adapter@_W@__crt_stdio_output@@V?$standard_base@_WV?$stream_output_adapter@_W@__crt_stdio_output@@@2@@__crt_stdio_output@@AEAA_NXZ 000000003013eae0 f i libucrtd:output.obj
 0001:0013db00       ?state_case_dot@?$output_processor@_WV?$string_output_adapter@_W@__crt_stdio_output@@V?$format_validation_base@_WV?$string_output_adapter@_W@__crt_stdio_output@@@2@@__crt_stdio_output@@AEAA_NXZ 000000003013eb00 f i libucrtd:output.obj
 0001:0013db20       ?state_case_dot@?$output_processor@_WV?$string_output_adapter@_W@__crt_stdio_output@@V?$positional_parameter_base@_WV?$string_output_adapter@_W@__crt_stdio_output@@@2@@__crt_stdio_output@@AEAA_NXZ 000000003013eb20 f i libucrtd:output.obj
 0001:0013db40       ?state_case_dot@?$output_processor@_WV?$string_output_adapter@_W@__crt_stdio_output@@V?$standard_base@_WV?$string_output_adapter@_W@__crt_stdio_output@@@2@@__crt_stdio_output@@AEAA_NXZ 000000003013eb40 f i libucrtd:output.obj
 0001:0013db60       ?state_case_flag@?$output_processor@DV?$stream_output_adapter@D@__crt_stdio_output@@V?$format_validation_base@DV?$stream_output_adapter@D@__crt_stdio_output@@@2@@__crt_stdio_output@@AEAA_NXZ 000000003013eb60 f i libucrtd:output.obj
 0001:0013dc20       ?state_case_flag@?$output_processor@DV?$stream_output_adapter@D@__crt_stdio_output@@V?$positional_parameter_base@DV?$stream_output_adapter@D@__crt_stdio_output@@@2@@__crt_stdio_output@@AEAA_NXZ 000000003013ec20 f i libucrtd:output.obj
 0001:0013dce0       ?state_case_flag@?$output_processor@DV?$stream_output_adapter@D@__crt_stdio_output@@V?$standard_base@DV?$stream_output_adapter@D@__crt_stdio_output@@@2@@__crt_stdio_output@@AEAA_NXZ 000000003013ece0 f i libucrtd:output.obj
 0001:0013dda0       ?state_case_flag@?$output_processor@DV?$string_output_adapter@D@__crt_stdio_output@@V?$format_validation_base@DV?$string_output_adapter@D@__crt_stdio_output@@@2@@__crt_stdio_output@@AEAA_NXZ 000000003013eda0 f i libucrtd:output.obj
 0001:0013de60       ?state_case_flag@?$output_processor@DV?$string_output_adapter@D@__crt_stdio_output@@V?$positional_parameter_base@DV?$string_output_adapter@D@__crt_stdio_output@@@2@@__crt_stdio_output@@AEAA_NXZ 000000003013ee60 f i libucrtd:output.obj
 0001:0013df20       ?state_case_flag@?$output_processor@DV?$string_output_adapter@D@__crt_stdio_output@@V?$standard_base@DV?$string_output_adapter@D@__crt_stdio_output@@@2@@__crt_stdio_output@@AEAA_NXZ 000000003013ef20 f i libucrtd:output.obj
 0001:0013dfe0       ?state_case_flag@?$output_processor@_WV?$stream_output_adapter@_W@__crt_stdio_output@@V?$format_validation_base@_WV?$stream_output_adapter@_W@__crt_stdio_output@@@2@@__crt_stdio_output@@AEAA_NXZ 000000003013efe0 f i libucrtd:output.obj
 0001:0013e0a0       ?state_case_flag@?$output_processor@_WV?$stream_output_adapter@_W@__crt_stdio_output@@V?$positional_parameter_base@_WV?$stream_output_adapter@_W@__crt_stdio_output@@@2@@__crt_stdio_output@@AEAA_NXZ 000000003013f0a0 f i libucrtd:output.obj
 0001:0013e160       ?state_case_flag@?$output_processor@_WV?$stream_output_adapter@_W@__crt_stdio_output@@V?$standard_base@_WV?$stream_output_adapter@_W@__crt_stdio_output@@@2@@__crt_stdio_output@@AEAA_NXZ 000000003013f160 f i libucrtd:output.obj
 0001:0013e220       ?state_case_flag@?$output_processor@_WV?$string_output_adapter@_W@__crt_stdio_output@@V?$format_validation_base@_WV?$string_output_adapter@_W@__crt_stdio_output@@@2@@__crt_stdio_output@@AEAA_NXZ 000000003013f220 f i libucrtd:output.obj
 0001:0013e2e0       ?state_case_flag@?$output_processor@_WV?$string_output_adapter@_W@__crt_stdio_output@@V?$positional_parameter_base@_WV?$string_output_adapter@_W@__crt_stdio_output@@@2@@__crt_stdio_output@@AEAA_NXZ 000000003013f2e0 f i libucrtd:output.obj
 0001:0013e3a0       ?state_case_flag@?$output_processor@_WV?$string_output_adapter@_W@__crt_stdio_output@@V?$standard_base@_WV?$string_output_adapter@_W@__crt_stdio_output@@@2@@__crt_stdio_output@@AEAA_NXZ 000000003013f3a0 f i libucrtd:output.obj
 0001:0013e460       ?state_case_normal@?$output_processor@DV?$stream_output_adapter@D@__crt_stdio_output@@V?$format_validation_base@DV?$stream_output_adapter@D@__crt_stdio_output@@@2@@__crt_stdio_output@@AEAA_NXZ 000000003013f460 f i libucrtd:output.obj
 0001:0013e570       ?state_case_normal@?$output_processor@DV?$stream_output_adapter@D@__crt_stdio_output@@V?$positional_parameter_base@DV?$stream_output_adapter@D@__crt_stdio_output@@@2@@__crt_stdio_output@@AEAA_NXZ 000000003013f570 f i libucrtd:output.obj
 0001:0013e680       ?state_case_normal@?$output_processor@DV?$stream_output_adapter@D@__crt_stdio_output@@V?$standard_base@DV?$stream_output_adapter@D@__crt_stdio_output@@@2@@__crt_stdio_output@@AEAA_NXZ 000000003013f680 f i libucrtd:output.obj
 0001:0013e790       ?state_case_normal@?$output_processor@DV?$string_output_adapter@D@__crt_stdio_output@@V?$format_validation_base@DV?$string_output_adapter@D@__crt_stdio_output@@@2@@__crt_stdio_output@@AEAA_NXZ 000000003013f790 f i libucrtd:output.obj
 0001:0013e8a0       ?state_case_normal@?$output_processor@DV?$string_output_adapter@D@__crt_stdio_output@@V?$positional_parameter_base@DV?$string_output_adapter@D@__crt_stdio_output@@@2@@__crt_stdio_output@@AEAA_NXZ 000000003013f8a0 f i libucrtd:output.obj
 0001:0013e9b0       ?state_case_normal@?$output_processor@DV?$string_output_adapter@D@__crt_stdio_output@@V?$standard_base@DV?$string_output_adapter@D@__crt_stdio_output@@@2@@__crt_stdio_output@@AEAA_NXZ 000000003013f9b0 f i libucrtd:output.obj
 0001:0013eac0       ?state_case_normal@?$output_processor@_WV?$stream_output_adapter@_W@__crt_stdio_output@@V?$format_validation_base@_WV?$stream_output_adapter@_W@__crt_stdio_output@@@2@@__crt_stdio_output@@AEAA_NXZ 000000003013fac0 f i libucrtd:output.obj
 0001:0013ebd0       ?state_case_normal@?$output_processor@_WV?$stream_output_adapter@_W@__crt_stdio_output@@V?$positional_parameter_base@_WV?$stream_output_adapter@_W@__crt_stdio_output@@@2@@__crt_stdio_output@@AEAA_NXZ 000000003013fbd0 f i libucrtd:output.obj
 0001:0013ece0       ?state_case_normal@?$output_processor@_WV?$stream_output_adapter@_W@__crt_stdio_output@@V?$standard_base@_WV?$stream_output_adapter@_W@__crt_stdio_output@@@2@@__crt_stdio_output@@AEAA_NXZ 000000003013fce0 f i libucrtd:output.obj
 0001:0013edf0       ?state_case_normal@?$output_processor@_WV?$string_output_adapter@_W@__crt_stdio_output@@V?$format_validation_base@_WV?$string_output_adapter@_W@__crt_stdio_output@@@2@@__crt_stdio_output@@AEAA_NXZ 000000003013fdf0 f i libucrtd:output.obj
 0001:0013ef00       ?state_case_normal@?$output_processor@_WV?$string_output_adapter@_W@__crt_stdio_output@@V?$positional_parameter_base@_WV?$string_output_adapter@_W@__crt_stdio_output@@@2@@__crt_stdio_output@@AEAA_NXZ 000000003013ff00 f i libucrtd:output.obj
 0001:0013f010       ?state_case_normal@?$output_processor@_WV?$string_output_adapter@_W@__crt_stdio_output@@V?$standard_base@_WV?$string_output_adapter@_W@__crt_stdio_output@@@2@@__crt_stdio_output@@AEAA_NXZ 0000000030140010 f i libucrtd:output.obj
 0001:0013f120       ?state_case_normal_common@?$output_processor@DV?$stream_output_adapter@D@__crt_stdio_output@@V?$format_validation_base@DV?$stream_output_adapter@D@__crt_stdio_output@@@2@@__crt_stdio_output@@AEAA_NXZ 0000000030140120 f i libucrtd:output.obj
 0001:0013f180       ?state_case_normal_common@?$output_processor@DV?$stream_output_adapter@D@__crt_stdio_output@@V?$positional_parameter_base@DV?$stream_output_adapter@D@__crt_stdio_output@@@2@@__crt_stdio_output@@AEAA_NXZ 0000000030140180 f i libucrtd:output.obj
 0001:0013f1e0       ?state_case_normal_common@?$output_processor@DV?$stream_output_adapter@D@__crt_stdio_output@@V?$standard_base@DV?$stream_output_adapter@D@__crt_stdio_output@@@2@@__crt_stdio_output@@AEAA_NXZ 00000000301401e0 f i libucrtd:output.obj
 0001:0013f240       ?state_case_normal_common@?$output_processor@DV?$string_output_adapter@D@__crt_stdio_output@@V?$format_validation_base@DV?$string_output_adapter@D@__crt_stdio_output@@@2@@__crt_stdio_output@@AEAA_NXZ 0000000030140240 f i libucrtd:output.obj
 0001:0013f2a0       ?state_case_normal_common@?$output_processor@DV?$string_output_adapter@D@__crt_stdio_output@@V?$positional_parameter_base@DV?$string_output_adapter@D@__crt_stdio_output@@@2@@__crt_stdio_output@@AEAA_NXZ 00000000301402a0 f i libucrtd:output.obj
 0001:0013f300       ?state_case_normal_common@?$output_processor@DV?$string_output_adapter@D@__crt_stdio_output@@V?$standard_base@DV?$string_output_adapter@D@__crt_stdio_output@@@2@@__crt_stdio_output@@AEAA_NXZ 0000000030140300 f i libucrtd:output.obj
 0001:0013f360       ?state_case_normal_common@?$output_processor@_WV?$stream_output_adapter@_W@__crt_stdio_output@@V?$format_validation_base@_WV?$stream_output_adapter@_W@__crt_stdio_output@@@2@@__crt_stdio_output@@AEAA_NXZ 0000000030140360 f i libucrtd:output.obj
 0001:0013f3c0       ?state_case_normal_common@?$output_processor@_WV?$stream_output_adapter@_W@__crt_stdio_output@@V?$positional_parameter_base@_WV?$stream_output_adapter@_W@__crt_stdio_output@@@2@@__crt_stdio_output@@AEAA_NXZ 00000000301403c0 f i libucrtd:output.obj
 0001:0013f420       ?state_case_normal_common@?$output_processor@_WV?$stream_output_adapter@_W@__crt_stdio_output@@V?$standard_base@_WV?$stream_output_adapter@_W@__crt_stdio_output@@@2@@__crt_stdio_output@@AEAA_NXZ 0000000030140420 f i libucrtd:output.obj
 0001:0013f480       ?state_case_normal_common@?$output_processor@_WV?$string_output_adapter@_W@__crt_stdio_output@@V?$format_validation_base@_WV?$string_output_adapter@_W@__crt_stdio_output@@@2@@__crt_stdio_output@@AEAA_NXZ 0000000030140480 f i libucrtd:output.obj
 0001:0013f4e0       ?state_case_normal_common@?$output_processor@_WV?$string_output_adapter@_W@__crt_stdio_output@@V?$positional_parameter_base@_WV?$string_output_adapter@_W@__crt_stdio_output@@@2@@__crt_stdio_output@@AEAA_NXZ 00000000301404e0 f i libucrtd:output.obj
 0001:0013f540       ?state_case_normal_common@?$output_processor@_WV?$string_output_adapter@_W@__crt_stdio_output@@V?$standard_base@_WV?$string_output_adapter@_W@__crt_stdio_output@@@2@@__crt_stdio_output@@AEAA_NXZ 0000000030140540 f i libucrtd:output.obj
 0001:0013f5a0       ?state_case_normal_tchar@?$output_processor@DV?$stream_output_adapter@D@__crt_stdio_output@@V?$format_validation_base@DV?$stream_output_adapter@D@__crt_stdio_output@@@2@@__crt_stdio_output@@AEAA_ND@Z 00000000301405a0 f i libucrtd:output.obj
 0001:0013f730       ?state_case_normal_tchar@?$output_processor@DV?$stream_output_adapter@D@__crt_stdio_output@@V?$positional_parameter_base@DV?$stream_output_adapter@D@__crt_stdio_output@@@2@@__crt_stdio_output@@AEAA_ND@Z 0000000030140730 f i libucrtd:output.obj
 0001:0013f8c0       ?state_case_normal_tchar@?$output_processor@DV?$stream_output_adapter@D@__crt_stdio_output@@V?$standard_base@DV?$stream_output_adapter@D@__crt_stdio_output@@@2@@__crt_stdio_output@@AEAA_ND@Z 00000000301408c0 f i libucrtd:output.obj
 0001:0013fa50       ?state_case_normal_tchar@?$output_processor@DV?$string_output_adapter@D@__crt_stdio_output@@V?$format_validation_base@DV?$string_output_adapter@D@__crt_stdio_output@@@2@@__crt_stdio_output@@AEAA_ND@Z 0000000030140a50 f i libucrtd:output.obj
 0001:0013fbe0       ?state_case_normal_tchar@?$output_processor@DV?$string_output_adapter@D@__crt_stdio_output@@V?$positional_parameter_base@DV?$string_output_adapter@D@__crt_stdio_output@@@2@@__crt_stdio_output@@AEAA_ND@Z 0000000030140be0 f i libucrtd:output.obj
 0001:0013fd70       ?state_case_normal_tchar@?$output_processor@DV?$string_output_adapter@D@__crt_stdio_output@@V?$standard_base@DV?$string_output_adapter@D@__crt_stdio_output@@@2@@__crt_stdio_output@@AEAA_ND@Z 0000000030140d70 f i libucrtd:output.obj
 0001:0013ff00       ?state_case_normal_tchar@?$output_processor@_WV?$stream_output_adapter@_W@__crt_stdio_output@@V?$format_validation_base@_WV?$stream_output_adapter@_W@__crt_stdio_output@@@2@@__crt_stdio_output@@AEAA_N_W@Z 0000000030140f00 f i libucrtd:output.obj
 0001:0013ff20       ?state_case_normal_tchar@?$output_processor@_WV?$stream_output_adapter@_W@__crt_stdio_output@@V?$positional_parameter_base@_WV?$stream_output_adapter@_W@__crt_stdio_output@@@2@@__crt_stdio_output@@AEAA_N_W@Z 0000000030140f20 f i libucrtd:output.obj
 0001:0013ff40       ?state_case_normal_tchar@?$output_processor@_WV?$stream_output_adapter@_W@__crt_stdio_output@@V?$standard_base@_WV?$stream_output_adapter@_W@__crt_stdio_output@@@2@@__crt_stdio_output@@AEAA_N_W@Z 0000000030140f40 f i libucrtd:output.obj
 0001:0013ff60       ?state_case_normal_tchar@?$output_processor@_WV?$string_output_adapter@_W@__crt_stdio_output@@V?$format_validation_base@_WV?$string_output_adapter@_W@__crt_stdio_output@@@2@@__crt_stdio_output@@AEAA_N_W@Z 0000000030140f60 f i libucrtd:output.obj
 0001:0013ff80       ?state_case_normal_tchar@?$output_processor@_WV?$string_output_adapter@_W@__crt_stdio_output@@V?$positional_parameter_base@_WV?$string_output_adapter@_W@__crt_stdio_output@@@2@@__crt_stdio_output@@AEAA_N_W@Z 0000000030140f80 f i libucrtd:output.obj
 0001:0013ffa0       ?state_case_normal_tchar@?$output_processor@_WV?$string_output_adapter@_W@__crt_stdio_output@@V?$standard_base@_WV?$string_output_adapter@_W@__crt_stdio_output@@@2@@__crt_stdio_output@@AEAA_N_W@Z 0000000030140fa0 f i libucrtd:output.obj
 0001:0013ffc0       ?state_case_percent@?$output_processor@DV?$stream_output_adapter@D@__crt_stdio_output@@V?$format_validation_base@DV?$stream_output_adapter@D@__crt_stdio_output@@@2@@__crt_stdio_output@@AEAA_NXZ 0000000030140fc0 f i libucrtd:output.obj
 0001:00140020       ?state_case_percent@?$output_processor@DV?$stream_output_adapter@D@__crt_stdio_output@@V?$positional_parameter_base@DV?$stream_output_adapter@D@__crt_stdio_output@@@2@@__crt_stdio_output@@AEAA_NXZ 0000000030141020 f i libucrtd:output.obj
 0001:00140080       ?state_case_percent@?$output_processor@DV?$stream_output_adapter@D@__crt_stdio_output@@V?$standard_base@DV?$stream_output_adapter@D@__crt_stdio_output@@@2@@__crt_stdio_output@@AEAA_NXZ 0000000030141080 f i libucrtd:output.obj
 0001:001400e0       ?state_case_percent@?$output_processor@DV?$string_output_adapter@D@__crt_stdio_output@@V?$format_validation_base@DV?$string_output_adapter@D@__crt_stdio_output@@@2@@__crt_stdio_output@@AEAA_NXZ 00000000301410e0 f i libucrtd:output.obj
 0001:00140140       ?state_case_percent@?$output_processor@DV?$string_output_adapter@D@__crt_stdio_output@@V?$positional_parameter_base@DV?$string_output_adapter@D@__crt_stdio_output@@@2@@__crt_stdio_output@@AEAA_NXZ 0000000030141140 f i libucrtd:output.obj
 0001:001401a0       ?state_case_percent@?$output_processor@DV?$string_output_adapter@D@__crt_stdio_output@@V?$standard_base@DV?$string_output_adapter@D@__crt_stdio_output@@@2@@__crt_stdio_output@@AEAA_NXZ 00000000301411a0 f i libucrtd:output.obj
 0001:00140200       ?state_case_percent@?$output_processor@_WV?$stream_output_adapter@_W@__crt_stdio_output@@V?$format_validation_base@_WV?$stream_output_adapter@_W@__crt_stdio_output@@@2@@__crt_stdio_output@@AEAA_NXZ 0000000030141200 f i libucrtd:output.obj
 0001:00140260       ?state_case_percent@?$output_processor@_WV?$stream_output_adapter@_W@__crt_stdio_output@@V?$positional_parameter_base@_WV?$stream_output_adapter@_W@__crt_stdio_output@@@2@@__crt_stdio_output@@AEAA_NXZ 0000000030141260 f i libucrtd:output.obj
 0001:001402c0       ?state_case_percent@?$output_processor@_WV?$stream_output_adapter@_W@__crt_stdio_output@@V?$standard_base@_WV?$stream_output_adapter@_W@__crt_stdio_output@@@2@@__crt_stdio_output@@AEAA_NXZ 00000000301412c0 f i libucrtd:output.obj
 0001:00140320       ?state_case_percent@?$output_processor@_WV?$string_output_adapter@_W@__crt_stdio_output@@V?$format_validation_base@_WV?$string_output_adapter@_W@__crt_stdio_output@@@2@@__crt_stdio_output@@AEAA_NXZ 0000000030141320 f i libucrtd:output.obj
 0001:00140380       ?state_case_percent@?$output_processor@_WV?$string_output_adapter@_W@__crt_stdio_output@@V?$positional_parameter_base@_WV?$string_output_adapter@_W@__crt_stdio_output@@@2@@__crt_stdio_output@@AEAA_NXZ 0000000030141380 f i libucrtd:output.obj
 0001:001403e0       ?state_case_percent@?$output_processor@_WV?$string_output_adapter@_W@__crt_stdio_output@@V?$standard_base@_WV?$string_output_adapter@_W@__crt_stdio_output@@@2@@__crt_stdio_output@@AEAA_NXZ 00000000301413e0 f i libucrtd:output.obj
 0001:00140440       ?state_case_precision@?$output_processor@DV?$stream_output_adapter@D@__crt_stdio_output@@V?$format_validation_base@DV?$stream_output_adapter@D@__crt_stdio_output@@@2@@__crt_stdio_output@@AEAA_NXZ 0000000030141440 f i libucrtd:output.obj
 0001:001404e0       ?state_case_precision@?$output_processor@DV?$stream_output_adapter@D@__crt_stdio_output@@V?$positional_parameter_base@DV?$stream_output_adapter@D@__crt_stdio_output@@@2@@__crt_stdio_output@@AEAA_NXZ 00000000301414e0 f i libucrtd:output.obj
 0001:00140580       ?state_case_precision@?$output_processor@DV?$stream_output_adapter@D@__crt_stdio_output@@V?$standard_base@DV?$stream_output_adapter@D@__crt_stdio_output@@@2@@__crt_stdio_output@@AEAA_NXZ 0000000030141580 f i libucrtd:output.obj
 0001:00140620       ?state_case_precision@?$output_processor@DV?$string_output_adapter@D@__crt_stdio_output@@V?$format_validation_base@DV?$string_output_adapter@D@__crt_stdio_output@@@2@@__crt_stdio_output@@AEAA_NXZ 0000000030141620 f i libucrtd:output.obj
 0001:001406c0       ?state_case_precision@?$output_processor@DV?$string_output_adapter@D@__crt_stdio_output@@V?$positional_parameter_base@DV?$string_output_adapter@D@__crt_stdio_output@@@2@@__crt_stdio_output@@AEAA_NXZ 00000000301416c0 f i libucrtd:output.obj
 0001:00140760       ?state_case_precision@?$output_processor@DV?$string_output_adapter@D@__crt_stdio_output@@V?$standard_base@DV?$string_output_adapter@D@__crt_stdio_output@@@2@@__crt_stdio_output@@AEAA_NXZ 0000000030141760 f i libucrtd:output.obj
 0001:00140800       ?state_case_precision@?$output_processor@_WV?$stream_output_adapter@_W@__crt_stdio_output@@V?$format_validation_base@_WV?$stream_output_adapter@_W@__crt_stdio_output@@@2@@__crt_stdio_output@@AEAA_NXZ 0000000030141800 f i libucrtd:output.obj
 0001:001408a0       ?state_case_precision@?$output_processor@_WV?$stream_output_adapter@_W@__crt_stdio_output@@V?$positional_parameter_base@_WV?$stream_output_adapter@_W@__crt_stdio_output@@@2@@__crt_stdio_output@@AEAA_NXZ 00000000301418a0 f i libucrtd:output.obj
 0001:00140940       ?state_case_precision@?$output_processor@_WV?$stream_output_adapter@_W@__crt_stdio_output@@V?$standard_base@_WV?$stream_output_adapter@_W@__crt_stdio_output@@@2@@__crt_stdio_output@@AEAA_NXZ 0000000030141940 f i libucrtd:output.obj
 0001:001409e0       ?state_case_precision@?$output_processor@_WV?$string_output_adapter@_W@__crt_stdio_output@@V?$format_validation_base@_WV?$string_output_adapter@_W@__crt_stdio_output@@@2@@__crt_stdio_output@@AEAA_NXZ 00000000301419e0 f i libucrtd:output.obj
 0001:00140a80       ?state_case_precision@?$output_processor@_WV?$string_output_adapter@_W@__crt_stdio_output@@V?$positional_parameter_base@_WV?$string_output_adapter@_W@__crt_stdio_output@@@2@@__crt_stdio_output@@AEAA_NXZ 0000000030141a80 f i libucrtd:output.obj
 0001:00140b20       ?state_case_precision@?$output_processor@_WV?$string_output_adapter@_W@__crt_stdio_output@@V?$standard_base@_WV?$string_output_adapter@_W@__crt_stdio_output@@@2@@__crt_stdio_output@@AEAA_NXZ 0000000030141b20 f i libucrtd:output.obj
 0001:00140bc0       ?state_case_size@?$output_processor@DV?$stream_output_adapter@D@__crt_stdio_output@@V?$format_validation_base@DV?$stream_output_adapter@D@__crt_stdio_output@@@2@@__crt_stdio_output@@AEAA_NXZ 0000000030141bc0 f i libucrtd:output.obj
 0001:00141150       ?state_case_size@?$output_processor@DV?$stream_output_adapter@D@__crt_stdio_output@@V?$positional_parameter_base@DV?$stream_output_adapter@D@__crt_stdio_output@@@2@@__crt_stdio_output@@AEAA_NXZ 0000000030142150 f i libucrtd:output.obj
 0001:001416e0       ?state_case_size@?$output_processor@DV?$stream_output_adapter@D@__crt_stdio_output@@V?$standard_base@DV?$stream_output_adapter@D@__crt_stdio_output@@@2@@__crt_stdio_output@@AEAA_NXZ 00000000301426e0 f i libucrtd:output.obj
 0001:00141c70       ?state_case_size@?$output_processor@DV?$string_output_adapter@D@__crt_stdio_output@@V?$format_validation_base@DV?$string_output_adapter@D@__crt_stdio_output@@@2@@__crt_stdio_output@@AEAA_NXZ 0000000030142c70 f i libucrtd:output.obj
 0001:00142200       ?state_case_size@?$output_processor@DV?$string_output_adapter@D@__crt_stdio_output@@V?$positional_parameter_base@DV?$string_output_adapter@D@__crt_stdio_output@@@2@@__crt_stdio_output@@AEAA_NXZ 0000000030143200 f i libucrtd:output.obj
 0001:00142790       ?state_case_size@?$output_processor@DV?$string_output_adapter@D@__crt_stdio_output@@V?$standard_base@DV?$string_output_adapter@D@__crt_stdio_output@@@2@@__crt_stdio_output@@AEAA_NXZ 0000000030143790 f i libucrtd:output.obj
 0001:00142d20       ?state_case_size@?$output_processor@_WV?$stream_output_adapter@_W@__crt_stdio_output@@V?$format_validation_base@_WV?$stream_output_adapter@_W@__crt_stdio_output@@@2@@__crt_stdio_output@@AEAA_NXZ 0000000030143d20 f i libucrtd:output.obj
 0001:001432b0       ?state_case_size@?$output_processor@_WV?$stream_output_adapter@_W@__crt_stdio_output@@V?$positional_parameter_base@_WV?$stream_output_adapter@_W@__crt_stdio_output@@@2@@__crt_stdio_output@@AEAA_NXZ 00000000301442b0 f i libucrtd:output.obj
 0001:00143840       ?state_case_size@?$output_processor@_WV?$stream_output_adapter@_W@__crt_stdio_output@@V?$standard_base@_WV?$stream_output_adapter@_W@__crt_stdio_output@@@2@@__crt_stdio_output@@AEAA_NXZ 0000000030144840 f i libucrtd:output.obj
 0001:00143dd0       ?state_case_size@?$output_processor@_WV?$string_output_adapter@_W@__crt_stdio_output@@V?$format_validation_base@_WV?$string_output_adapter@_W@__crt_stdio_output@@@2@@__crt_stdio_output@@AEAA_NXZ 0000000030144dd0 f i libucrtd:output.obj
 0001:00144360       ?state_case_size@?$output_processor@_WV?$string_output_adapter@_W@__crt_stdio_output@@V?$positional_parameter_base@_WV?$string_output_adapter@_W@__crt_stdio_output@@@2@@__crt_stdio_output@@AEAA_NXZ 0000000030145360 f i libucrtd:output.obj
 0001:001448f0       ?state_case_size@?$output_processor@_WV?$string_output_adapter@_W@__crt_stdio_output@@V?$standard_base@_WV?$string_output_adapter@_W@__crt_stdio_output@@@2@@__crt_stdio_output@@AEAA_NXZ 00000000301458f0 f i libucrtd:output.obj
 0001:00144e80       ?state_case_type@?$output_processor@DV?$stream_output_adapter@D@__crt_stdio_output@@V?$format_validation_base@DV?$stream_output_adapter@D@__crt_stdio_output@@@2@@__crt_stdio_output@@AEAA_NXZ 0000000030145e80 f i libucrtd:output.obj
 0001:00145450       ?state_case_type@?$output_processor@DV?$stream_output_adapter@D@__crt_stdio_output@@V?$positional_parameter_base@DV?$stream_output_adapter@D@__crt_stdio_output@@@2@@__crt_stdio_output@@AEAA_NXZ 0000000030146450 f i libucrtd:output.obj
 0001:00145a20       ?state_case_type@?$output_processor@DV?$stream_output_adapter@D@__crt_stdio_output@@V?$standard_base@DV?$stream_output_adapter@D@__crt_stdio_output@@@2@@__crt_stdio_output@@AEAA_NXZ 0000000030146a20 f i libucrtd:output.obj
 0001:00145ff0       ?state_case_type@?$output_processor@DV?$string_output_adapter@D@__crt_stdio_output@@V?$format_validation_base@DV?$string_output_adapter@D@__crt_stdio_output@@@2@@__crt_stdio_output@@AEAA_NXZ 0000000030146ff0 f i libucrtd:output.obj
 0001:001465c0       ?state_case_type@?$output_processor@DV?$string_output_adapter@D@__crt_stdio_output@@V?$positional_parameter_base@DV?$string_output_adapter@D@__crt_stdio_output@@@2@@__crt_stdio_output@@AEAA_NXZ 00000000301475c0 f i libucrtd:output.obj
 0001:00146b90       ?state_case_type@?$output_processor@DV?$string_output_adapter@D@__crt_stdio_output@@V?$standard_base@DV?$string_output_adapter@D@__crt_stdio_output@@@2@@__crt_stdio_output@@AEAA_NXZ 0000000030147b90 f i libucrtd:output.obj
 0001:00147160       ?state_case_type@?$output_processor@_WV?$stream_output_adapter@_W@__crt_stdio_output@@V?$format_validation_base@_WV?$stream_output_adapter@_W@__crt_stdio_output@@@2@@__crt_stdio_output@@AEAA_NXZ 0000000030148160 f i libucrtd:output.obj
 0001:00147810       ?state_case_type@?$output_processor@_WV?$stream_output_adapter@_W@__crt_stdio_output@@V?$positional_parameter_base@_WV?$stream_output_adapter@_W@__crt_stdio_output@@@2@@__crt_stdio_output@@AEAA_NXZ 0000000030148810 f i libucrtd:output.obj
 0001:00147ec0       ?state_case_type@?$output_processor@_WV?$stream_output_adapter@_W@__crt_stdio_output@@V?$standard_base@_WV?$stream_output_adapter@_W@__crt_stdio_output@@@2@@__crt_stdio_output@@AEAA_NXZ 0000000030148ec0 f i libucrtd:output.obj
 0001:00148570       ?state_case_type@?$output_processor@_WV?$string_output_adapter@_W@__crt_stdio_output@@V?$format_validation_base@_WV?$string_output_adapter@_W@__crt_stdio_output@@@2@@__crt_stdio_output@@AEAA_NXZ 0000000030149570 f i libucrtd:output.obj
 0001:00148c20       ?state_case_type@?$output_processor@_WV?$string_output_adapter@_W@__crt_stdio_output@@V?$positional_parameter_base@_WV?$string_output_adapter@_W@__crt_stdio_output@@@2@@__crt_stdio_output@@AEAA_NXZ 0000000030149c20 f i libucrtd:output.obj
 0001:001492d0       ?state_case_type@?$output_processor@_WV?$string_output_adapter@_W@__crt_stdio_output@@V?$standard_base@_WV?$string_output_adapter@_W@__crt_stdio_output@@@2@@__crt_stdio_output@@AEAA_NXZ 000000003014a2d0 f i libucrtd:output.obj
 0001:00149980       ?state_case_width@?$output_processor@DV?$stream_output_adapter@D@__crt_stdio_output@@V?$format_validation_base@DV?$stream_output_adapter@D@__crt_stdio_output@@@2@@__crt_stdio_output@@AEAA_NXZ 000000003014a980 f i libucrtd:output.obj
 0001:00149a30       ?state_case_width@?$output_processor@DV?$stream_output_adapter@D@__crt_stdio_output@@V?$positional_parameter_base@DV?$stream_output_adapter@D@__crt_stdio_output@@@2@@__crt_stdio_output@@AEAA_NXZ 000000003014aa30 f i libucrtd:output.obj
 0001:00149ae0       ?state_case_width@?$output_processor@DV?$stream_output_adapter@D@__crt_stdio_output@@V?$standard_base@DV?$stream_output_adapter@D@__crt_stdio_output@@@2@@__crt_stdio_output@@AEAA_NXZ 000000003014aae0 f i libucrtd:output.obj
 0001:00149b90       ?state_case_width@?$output_processor@DV?$string_output_adapter@D@__crt_stdio_output@@V?$format_validation_base@DV?$string_output_adapter@D@__crt_stdio_output@@@2@@__crt_stdio_output@@AEAA_NXZ 000000003014ab90 f i libucrtd:output.obj
 0001:00149c40       ?state_case_width@?$output_processor@DV?$string_output_adapter@D@__crt_stdio_output@@V?$positional_parameter_base@DV?$string_output_adapter@D@__crt_stdio_output@@@2@@__crt_stdio_output@@AEAA_NXZ 000000003014ac40 f i libucrtd:output.obj
 0001:00149cf0       ?state_case_width@?$output_processor@DV?$string_output_adapter@D@__crt_stdio_output@@V?$standard_base@DV?$string_output_adapter@D@__crt_stdio_output@@@2@@__crt_stdio_output@@AEAA_NXZ 000000003014acf0 f i libucrtd:output.obj
 0001:00149da0       ?state_case_width@?$output_processor@_WV?$stream_output_adapter@_W@__crt_stdio_output@@V?$format_validation_base@_WV?$stream_output_adapter@_W@__crt_stdio_output@@@2@@__crt_stdio_output@@AEAA_NXZ 000000003014ada0 f i libucrtd:output.obj
 0001:00149e50       ?state_case_width@?$output_processor@_WV?$stream_output_adapter@_W@__crt_stdio_output@@V?$positional_parameter_base@_WV?$stream_output_adapter@_W@__crt_stdio_output@@@2@@__crt_stdio_output@@AEAA_NXZ 000000003014ae50 f i libucrtd:output.obj
 0001:00149f00       ?state_case_width@?$output_processor@_WV?$stream_output_adapter@_W@__crt_stdio_output@@V?$standard_base@_WV?$stream_output_adapter@_W@__crt_stdio_output@@@2@@__crt_stdio_output@@AEAA_NXZ 000000003014af00 f i libucrtd:output.obj
 0001:00149fb0       ?state_case_width@?$output_processor@_WV?$string_output_adapter@_W@__crt_stdio_output@@V?$format_validation_base@_WV?$string_output_adapter@_W@__crt_stdio_output@@@2@@__crt_stdio_output@@AEAA_NXZ 000000003014afb0 f i libucrtd:output.obj
 0001:0014a060       ?state_case_width@?$output_processor@_WV?$string_output_adapter@_W@__crt_stdio_output@@V?$positional_parameter_base@_WV?$string_output_adapter@_W@__crt_stdio_output@@@2@@__crt_stdio_output@@AEAA_NXZ 000000003014b060 f i libucrtd:output.obj
 0001:0014a110       ?state_case_width@?$output_processor@_WV?$string_output_adapter@_W@__crt_stdio_output@@V?$standard_base@_WV?$string_output_adapter@_W@__crt_stdio_output@@@2@@__crt_stdio_output@@AEAA_NXZ 000000003014b110 f i libucrtd:output.obj
 0001:0014a1c0       ?state_count@?$format_validation_base@DV?$stream_output_adapter@D@__crt_stdio_output@@@__crt_stdio_output@@KAIXZ 000000003014b1c0 f i libucrtd:output.obj
 0001:0014a1d0       ?state_count@?$format_validation_base@DV?$string_output_adapter@D@__crt_stdio_output@@@__crt_stdio_output@@KAIXZ 000000003014b1d0 f i libucrtd:output.obj
 0001:0014a1e0       ?state_count@?$format_validation_base@_WV?$stream_output_adapter@_W@__crt_stdio_output@@@__crt_stdio_output@@KAIXZ 000000003014b1e0 f i libucrtd:output.obj
 0001:0014a1f0       ?state_count@?$format_validation_base@_WV?$string_output_adapter@_W@__crt_stdio_output@@@__crt_stdio_output@@KAIXZ 000000003014b1f0 f i libucrtd:output.obj
 0001:0014a200       ?state_count@?$standard_base@DV?$stream_output_adapter@D@__crt_stdio_output@@@__crt_stdio_output@@KAIXZ 000000003014b200 f i libucrtd:output.obj
 0001:0014a210       ?state_count@?$standard_base@DV?$string_output_adapter@D@__crt_stdio_output@@@__crt_stdio_output@@KAIXZ 000000003014b210 f i libucrtd:output.obj
 0001:0014a220       ?state_count@?$standard_base@_WV?$stream_output_adapter@_W@__crt_stdio_output@@@__crt_stdio_output@@KAIXZ 000000003014b220 f i libucrtd:output.obj
 0001:0014a230       ?state_count@?$standard_base@_WV?$string_output_adapter@_W@__crt_stdio_output@@@__crt_stdio_output@@KAIXZ 000000003014b230 f i libucrtd:output.obj
 0001:0014a240       ?state_transition_table@?$format_validation_base@DV?$stream_output_adapter@D@__crt_stdio_output@@@__crt_stdio_output@@KAPEBEXZ 000000003014b240 f i libucrtd:output.obj
 0001:0014a250       ?state_transition_table@?$format_validation_base@DV?$string_output_adapter@D@__crt_stdio_output@@@__crt_stdio_output@@KAPEBEXZ 000000003014b250 f i libucrtd:output.obj
 0001:0014a260       ?state_transition_table@?$format_validation_base@_WV?$stream_output_adapter@_W@__crt_stdio_output@@@__crt_stdio_output@@KAPEBEXZ 000000003014b260 f i libucrtd:output.obj
 0001:0014a270       ?state_transition_table@?$format_validation_base@_WV?$string_output_adapter@_W@__crt_stdio_output@@@__crt_stdio_output@@KAPEBEXZ 000000003014b270 f i libucrtd:output.obj
 0001:0014a280       ?state_transition_table@?$standard_base@DV?$stream_output_adapter@D@__crt_stdio_output@@@__crt_stdio_output@@KAPEBEXZ 000000003014b280 f i libucrtd:output.obj
 0001:0014a290       ?state_transition_table@?$standard_base@DV?$string_output_adapter@D@__crt_stdio_output@@@__crt_stdio_output@@KAPEBEXZ 000000003014b290 f i libucrtd:output.obj
 0001:0014a2a0       ?state_transition_table@?$standard_base@_WV?$stream_output_adapter@_W@__crt_stdio_output@@@__crt_stdio_output@@KAPEBEXZ 000000003014b2a0 f i libucrtd:output.obj
 0001:0014a2b0       ?state_transition_table@?$standard_base@_WV?$string_output_adapter@_W@__crt_stdio_output@@@__crt_stdio_output@@KAPEBEXZ 000000003014b2b0 f i libucrtd:output.obj
 0001:0014a2c0       ?tchar_string@?$common_data@D@__crt_stdio_output@@IEAAAEAPEADD@Z 000000003014b2c0 f i libucrtd:output.obj
 0001:0014a2e0       ?tchar_string@?$common_data@D@__crt_stdio_output@@IEAAAEAPEADXZ 000000003014b2e0 f i libucrtd:output.obj
 0001:0014a300       ?tchar_string@?$common_data@_W@__crt_stdio_output@@IEAAAEAPEA_WXZ 000000003014b300 f i libucrtd:output.obj
 0001:0014a320       ?tchar_string@?$common_data@_W@__crt_stdio_output@@IEAAAEAPEA_W_W@Z 000000003014b320 f i libucrtd:output.obj
 0001:0014a340       ?to_integer_size@__crt_stdio_output@@YA_KW4length_modifier@1@@Z 000000003014b340 f i libucrtd:output.obj
 0001:0014a420       ?type_case_X@?$output_processor@DV?$stream_output_adapter@D@__crt_stdio_output@@V?$format_validation_base@DV?$stream_output_adapter@D@__crt_stdio_output@@@2@@__crt_stdio_output@@AEAA_NXZ 000000003014b420 f i libucrtd:output.obj
 0001:0014a450       ?type_case_X@?$output_processor@DV?$stream_output_adapter@D@__crt_stdio_output@@V?$positional_parameter_base@DV?$stream_output_adapter@D@__crt_stdio_output@@@2@@__crt_stdio_output@@AEAA_NXZ 000000003014b450 f i libucrtd:output.obj
 0001:0014a480       ?type_case_X@?$output_processor@DV?$stream_output_adapter@D@__crt_stdio_output@@V?$standard_base@DV?$stream_output_adapter@D@__crt_stdio_output@@@2@@__crt_stdio_output@@AEAA_NXZ 000000003014b480 f i libucrtd:output.obj
 0001:0014a4b0       ?type_case_X@?$output_processor@DV?$string_output_adapter@D@__crt_stdio_output@@V?$format_validation_base@DV?$string_output_adapter@D@__crt_stdio_output@@@2@@__crt_stdio_output@@AEAA_NXZ 000000003014b4b0 f i libucrtd:output.obj
 0001:0014a4e0       ?type_case_X@?$output_processor@DV?$string_output_adapter@D@__crt_stdio_output@@V?$positional_parameter_base@DV?$string_output_adapter@D@__crt_stdio_output@@@2@@__crt_stdio_output@@AEAA_NXZ 000000003014b4e0 f i libucrtd:output.obj
 0001:0014a510       ?type_case_X@?$output_processor@DV?$string_output_adapter@D@__crt_stdio_output@@V?$standard_base@DV?$string_output_adapter@D@__crt_stdio_output@@@2@@__crt_stdio_output@@AEAA_NXZ 000000003014b510 f i libucrtd:output.obj
 0001:0014a540       ?type_case_X@?$output_processor@_WV?$stream_output_adapter@_W@__crt_stdio_output@@V?$format_validation_base@_WV?$stream_output_adapter@_W@__crt_stdio_output@@@2@@__crt_stdio_output@@AEAA_NXZ 000000003014b540 f i libucrtd:output.obj
 0001:0014a570       ?type_case_X@?$output_processor@_WV?$stream_output_adapter@_W@__crt_stdio_output@@V?$positional_parameter_base@_WV?$stream_output_adapter@_W@__crt_stdio_output@@@2@@__crt_stdio_output@@AEAA_NXZ 000000003014b570 f i libucrtd:output.obj
 0001:0014a5a0       ?type_case_X@?$output_processor@_WV?$stream_output_adapter@_W@__crt_stdio_output@@V?$standard_base@_WV?$stream_output_adapter@_W@__crt_stdio_output@@@2@@__crt_stdio_output@@AEAA_NXZ 000000003014b5a0 f i libucrtd:output.obj
 0001:0014a5d0       ?type_case_X@?$output_processor@_WV?$string_output_adapter@_W@__crt_stdio_output@@V?$format_validation_base@_WV?$string_output_adapter@_W@__crt_stdio_output@@@2@@__crt_stdio_output@@AEAA_NXZ 000000003014b5d0 f i libucrtd:output.obj
 0001:0014a600       ?type_case_X@?$output_processor@_WV?$string_output_adapter@_W@__crt_stdio_output@@V?$positional_parameter_base@_WV?$string_output_adapter@_W@__crt_stdio_output@@@2@@__crt_stdio_output@@AEAA_NXZ 000000003014b600 f i libucrtd:output.obj
 0001:0014a630       ?type_case_X@?$output_processor@_WV?$string_output_adapter@_W@__crt_stdio_output@@V?$standard_base@_WV?$string_output_adapter@_W@__crt_stdio_output@@@2@@__crt_stdio_output@@AEAA_NXZ 000000003014b630 f i libucrtd:output.obj
 0001:0014a660       ?type_case_Z@?$output_processor@DV?$stream_output_adapter@D@__crt_stdio_output@@V?$format_validation_base@DV?$stream_output_adapter@D@__crt_stdio_output@@@2@@__crt_stdio_output@@AEAA_NXZ 000000003014b660 f i libucrtd:output.obj
 0001:0014a7c0       ?type_case_Z@?$output_processor@DV?$stream_output_adapter@D@__crt_stdio_output@@V?$positional_parameter_base@DV?$stream_output_adapter@D@__crt_stdio_output@@@2@@__crt_stdio_output@@AEAA_NXZ 000000003014b7c0 f i libucrtd:output.obj
 0001:0014a920       ?type_case_Z@?$output_processor@DV?$stream_output_adapter@D@__crt_stdio_output@@V?$standard_base@DV?$stream_output_adapter@D@__crt_stdio_output@@@2@@__crt_stdio_output@@AEAA_NXZ 000000003014b920 f i libucrtd:output.obj
 0001:0014aa80       ?type_case_Z@?$output_processor@DV?$string_output_adapter@D@__crt_stdio_output@@V?$format_validation_base@DV?$string_output_adapter@D@__crt_stdio_output@@@2@@__crt_stdio_output@@AEAA_NXZ 000000003014ba80 f i libucrtd:output.obj
 0001:0014abe0       ?type_case_Z@?$output_processor@DV?$string_output_adapter@D@__crt_stdio_output@@V?$positional_parameter_base@DV?$string_output_adapter@D@__crt_stdio_output@@@2@@__crt_stdio_output@@AEAA_NXZ 000000003014bbe0 f i libucrtd:output.obj
 0001:0014ad40       ?type_case_Z@?$output_processor@DV?$string_output_adapter@D@__crt_stdio_output@@V?$standard_base@DV?$string_output_adapter@D@__crt_stdio_output@@@2@@__crt_stdio_output@@AEAA_NXZ 000000003014bd40 f i libucrtd:output.obj
 0001:0014aea0       ?type_case_Z@?$output_processor@_WV?$stream_output_adapter@_W@__crt_stdio_output@@V?$format_validation_base@_WV?$stream_output_adapter@_W@__crt_stdio_output@@@2@@__crt_stdio_output@@AEAA_NXZ 000000003014bea0 f i libucrtd:output.obj
 0001:0014b000       ?type_case_Z@?$output_processor@_WV?$stream_output_adapter@_W@__crt_stdio_output@@V?$positional_parameter_base@_WV?$stream_output_adapter@_W@__crt_stdio_output@@@2@@__crt_stdio_output@@AEAA_NXZ 000000003014c000 f i libucrtd:output.obj
 0001:0014b160       ?type_case_Z@?$output_processor@_WV?$stream_output_adapter@_W@__crt_stdio_output@@V?$standard_base@_WV?$stream_output_adapter@_W@__crt_stdio_output@@@2@@__crt_stdio_output@@AEAA_NXZ 000000003014c160 f i libucrtd:output.obj
 0001:0014b2c0       ?type_case_Z@?$output_processor@_WV?$string_output_adapter@_W@__crt_stdio_output@@V?$format_validation_base@_WV?$string_output_adapter@_W@__crt_stdio_output@@@2@@__crt_stdio_output@@AEAA_NXZ 000000003014c2c0 f i libucrtd:output.obj
 0001:0014b420       ?type_case_Z@?$output_processor@_WV?$string_output_adapter@_W@__crt_stdio_output@@V?$positional_parameter_base@_WV?$string_output_adapter@_W@__crt_stdio_output@@@2@@__crt_stdio_output@@AEAA_NXZ 000000003014c420 f i libucrtd:output.obj
 0001:0014b580       ?type_case_Z@?$output_processor@_WV?$string_output_adapter@_W@__crt_stdio_output@@V?$standard_base@_WV?$string_output_adapter@_W@__crt_stdio_output@@@2@@__crt_stdio_output@@AEAA_NXZ 000000003014c580 f i libucrtd:output.obj
 0001:0014b6e0       ?type_case_a@?$output_processor@DV?$stream_output_adapter@D@__crt_stdio_output@@V?$format_validation_base@DV?$stream_output_adapter@D@__crt_stdio_output@@@2@@__crt_stdio_output@@AEAA_NXZ 000000003014c6e0 f i libucrtd:output.obj
 0001:0014bb90       ?type_case_a@?$output_processor@DV?$stream_output_adapter@D@__crt_stdio_output@@V?$positional_parameter_base@DV?$stream_output_adapter@D@__crt_stdio_output@@@2@@__crt_stdio_output@@AEAA_NXZ 000000003014cb90 f i libucrtd:output.obj
 0001:0014c040       ?type_case_a@?$output_processor@DV?$stream_output_adapter@D@__crt_stdio_output@@V?$standard_base@DV?$stream_output_adapter@D@__crt_stdio_output@@@2@@__crt_stdio_output@@AEAA_NXZ 000000003014d040 f i libucrtd:output.obj
 0001:0014c4f0       ?type_case_a@?$output_processor@DV?$string_output_adapter@D@__crt_stdio_output@@V?$format_validation_base@DV?$string_output_adapter@D@__crt_stdio_output@@@2@@__crt_stdio_output@@AEAA_NXZ 000000003014d4f0 f i libucrtd:output.obj
 0001:0014c9a0       ?type_case_a@?$output_processor@DV?$string_output_adapter@D@__crt_stdio_output@@V?$positional_parameter_base@DV?$string_output_adapter@D@__crt_stdio_output@@@2@@__crt_stdio_output@@AEAA_NXZ 000000003014d9a0 f i libucrtd:output.obj
 0001:0014ce50       ?type_case_a@?$output_processor@DV?$string_output_adapter@D@__crt_stdio_output@@V?$standard_base@DV?$string_output_adapter@D@__crt_stdio_output@@@2@@__crt_stdio_output@@AEAA_NXZ 000000003014de50 f i libucrtd:output.obj
 0001:0014d300       ?type_case_a@?$output_processor@_WV?$stream_output_adapter@_W@__crt_stdio_output@@V?$format_validation_base@_WV?$stream_output_adapter@_W@__crt_stdio_output@@@2@@__crt_stdio_output@@AEAA_NXZ 000000003014e300 f i libucrtd:output.obj
 0001:0014d7c0       ?type_case_a@?$output_processor@_WV?$stream_output_adapter@_W@__crt_stdio_output@@V?$positional_parameter_base@_WV?$stream_output_adapter@_W@__crt_stdio_output@@@2@@__crt_stdio_output@@AEAA_NXZ 000000003014e7c0 f i libucrtd:output.obj
 0001:0014dc80       ?type_case_a@?$output_processor@_WV?$stream_output_adapter@_W@__crt_stdio_output@@V?$standard_base@_WV?$stream_output_adapter@_W@__crt_stdio_output@@@2@@__crt_stdio_output@@AEAA_NXZ 000000003014ec80 f i libucrtd:output.obj
 0001:0014e140       ?type_case_a@?$output_processor@_WV?$string_output_adapter@_W@__crt_stdio_output@@V?$format_validation_base@_WV?$string_output_adapter@_W@__crt_stdio_output@@@2@@__crt_stdio_output@@AEAA_NXZ 000000003014f140 f i libucrtd:output.obj
 0001:0014e600       ?type_case_a@?$output_processor@_WV?$string_output_adapter@_W@__crt_stdio_output@@V?$positional_parameter_base@_WV?$string_output_adapter@_W@__crt_stdio_output@@@2@@__crt_stdio_output@@AEAA_NXZ 000000003014f600 f i libucrtd:output.obj
 0001:0014eac0       ?type_case_a@?$output_processor@_WV?$string_output_adapter@_W@__crt_stdio_output@@V?$standard_base@_WV?$string_output_adapter@_W@__crt_stdio_output@@@2@@__crt_stdio_output@@AEAA_NXZ 000000003014fac0 f i libucrtd:output.obj
 0001:0014ef80       ?type_case_c@?$output_processor@DV?$stream_output_adapter@D@__crt_stdio_output@@V?$format_validation_base@DV?$stream_output_adapter@D@__crt_stdio_output@@@2@@__crt_stdio_output@@AEAA_NXZ 000000003014ff80 f i libucrtd:output.obj
 0001:0014efa0       ?type_case_c@?$output_processor@DV?$stream_output_adapter@D@__crt_stdio_output@@V?$positional_parameter_base@DV?$stream_output_adapter@D@__crt_stdio_output@@@2@@__crt_stdio_output@@AEAA_NXZ 000000003014ffa0 f i libucrtd:output.obj
 0001:0014efc0       ?type_case_c@?$output_processor@DV?$stream_output_adapter@D@__crt_stdio_output@@V?$standard_base@DV?$stream_output_adapter@D@__crt_stdio_output@@@2@@__crt_stdio_output@@AEAA_NXZ 000000003014ffc0 f i libucrtd:output.obj
 0001:0014efe0       ?type_case_c@?$output_processor@DV?$string_output_adapter@D@__crt_stdio_output@@V?$format_validation_base@DV?$string_output_adapter@D@__crt_stdio_output@@@2@@__crt_stdio_output@@AEAA_NXZ 000000003014ffe0 f i libucrtd:output.obj
 0001:0014f000       ?type_case_c@?$output_processor@DV?$string_output_adapter@D@__crt_stdio_output@@V?$positional_parameter_base@DV?$string_output_adapter@D@__crt_stdio_output@@@2@@__crt_stdio_output@@AEAA_NXZ 0000000030150000 f i libucrtd:output.obj
 0001:0014f020       ?type_case_c@?$output_processor@DV?$string_output_adapter@D@__crt_stdio_output@@V?$standard_base@DV?$string_output_adapter@D@__crt_stdio_output@@@2@@__crt_stdio_output@@AEAA_NXZ 0000000030150020 f i libucrtd:output.obj
 0001:0014f040       ?type_case_c@?$output_processor@_WV?$stream_output_adapter@_W@__crt_stdio_output@@V?$format_validation_base@_WV?$stream_output_adapter@_W@__crt_stdio_output@@@2@@__crt_stdio_output@@AEAA_NXZ 0000000030150040 f i libucrtd:output.obj
 0001:0014f060       ?type_case_c@?$output_processor@_WV?$stream_output_adapter@_W@__crt_stdio_output@@V?$positional_parameter_base@_WV?$stream_output_adapter@_W@__crt_stdio_output@@@2@@__crt_stdio_output@@AEAA_NXZ 0000000030150060 f i libucrtd:output.obj
 0001:0014f080       ?type_case_c@?$output_processor@_WV?$stream_output_adapter@_W@__crt_stdio_output@@V?$standard_base@_WV?$stream_output_adapter@_W@__crt_stdio_output@@@2@@__crt_stdio_output@@AEAA_NXZ 0000000030150080 f i libucrtd:output.obj
 0001:0014f0a0       ?type_case_c@?$output_processor@_WV?$string_output_adapter@_W@__crt_stdio_output@@V?$format_validation_base@_WV?$string_output_adapter@_W@__crt_stdio_output@@@2@@__crt_stdio_output@@AEAA_NXZ 00000000301500a0 f i libucrtd:output.obj
 0001:0014f0c0       ?type_case_c@?$output_processor@_WV?$string_output_adapter@_W@__crt_stdio_output@@V?$positional_parameter_base@_WV?$string_output_adapter@_W@__crt_stdio_output@@@2@@__crt_stdio_output@@AEAA_NXZ 00000000301500c0 f i libucrtd:output.obj
 0001:0014f0e0       ?type_case_c@?$output_processor@_WV?$string_output_adapter@_W@__crt_stdio_output@@V?$standard_base@_WV?$string_output_adapter@_W@__crt_stdio_output@@@2@@__crt_stdio_output@@AEAA_NXZ 00000000301500e0 f i libucrtd:output.obj
 0001:0014f100       ?type_case_c_tchar@?$output_processor@DV?$stream_output_adapter@D@__crt_stdio_output@@V?$format_validation_base@DV?$stream_output_adapter@D@__crt_stdio_output@@@2@@__crt_stdio_output@@AEAA_ND@Z 0000000030150100 f i libucrtd:output.obj
 0001:0014f2a0       ?type_case_c_tchar@?$output_processor@DV?$stream_output_adapter@D@__crt_stdio_output@@V?$positional_parameter_base@DV?$stream_output_adapter@D@__crt_stdio_output@@@2@@__crt_stdio_output@@AEAA_ND@Z 00000000301502a0 f i libucrtd:output.obj
 0001:0014f440       ?type_case_c_tchar@?$output_processor@DV?$stream_output_adapter@D@__crt_stdio_output@@V?$standard_base@DV?$stream_output_adapter@D@__crt_stdio_output@@@2@@__crt_stdio_output@@AEAA_ND@Z 0000000030150440 f i libucrtd:output.obj
 0001:0014f5e0       ?type_case_c_tchar@?$output_processor@DV?$string_output_adapter@D@__crt_stdio_output@@V?$format_validation_base@DV?$string_output_adapter@D@__crt_stdio_output@@@2@@__crt_stdio_output@@AEAA_ND@Z 00000000301505e0 f i libucrtd:output.obj
 0001:0014f780       ?type_case_c_tchar@?$output_processor@DV?$string_output_adapter@D@__crt_stdio_output@@V?$positional_parameter_base@DV?$string_output_adapter@D@__crt_stdio_output@@@2@@__crt_stdio_output@@AEAA_ND@Z 0000000030150780 f i libucrtd:output.obj
 0001:0014f920       ?type_case_c_tchar@?$output_processor@DV?$string_output_adapter@D@__crt_stdio_output@@V?$standard_base@DV?$string_output_adapter@D@__crt_stdio_output@@@2@@__crt_stdio_output@@AEAA_ND@Z 0000000030150920 f i libucrtd:output.obj
 0001:0014fac0       ?type_case_c_tchar@?$output_processor@_WV?$stream_output_adapter@_W@__crt_stdio_output@@V?$format_validation_base@_WV?$stream_output_adapter@_W@__crt_stdio_output@@@2@@__crt_stdio_output@@AEAA_N_W@Z 0000000030150ac0 f i libucrtd:output.obj
 0001:0014fc40       ?type_case_c_tchar@?$output_processor@_WV?$stream_output_adapter@_W@__crt_stdio_output@@V?$positional_parameter_base@_WV?$stream_output_adapter@_W@__crt_stdio_output@@@2@@__crt_stdio_output@@AEAA_N_W@Z 0000000030150c40 f i libucrtd:output.obj
 0001:0014fdc0       ?type_case_c_tchar@?$output_processor@_WV?$stream_output_adapter@_W@__crt_stdio_output@@V?$standard_base@_WV?$stream_output_adapter@_W@__crt_stdio_output@@@2@@__crt_stdio_output@@AEAA_N_W@Z 0000000030150dc0 f i libucrtd:output.obj
 0001:0014ff40       ?type_case_c_tchar@?$output_processor@_WV?$string_output_adapter@_W@__crt_stdio_output@@V?$format_validation_base@_WV?$string_output_adapter@_W@__crt_stdio_output@@@2@@__crt_stdio_output@@AEAA_N_W@Z 0000000030150f40 f i libucrtd:output.obj
 0001:001500c0       ?type_case_c_tchar@?$output_processor@_WV?$string_output_adapter@_W@__crt_stdio_output@@V?$positional_parameter_base@_WV?$string_output_adapter@_W@__crt_stdio_output@@@2@@__crt_stdio_output@@AEAA_N_W@Z 00000000301510c0 f i libucrtd:output.obj
 0001:00150240       ?type_case_c_tchar@?$output_processor@_WV?$string_output_adapter@_W@__crt_stdio_output@@V?$standard_base@_WV?$string_output_adapter@_W@__crt_stdio_output@@@2@@__crt_stdio_output@@AEAA_N_W@Z 0000000030151240 f i libucrtd:output.obj
 0001:001503c0       ?type_case_d@?$output_processor@DV?$stream_output_adapter@D@__crt_stdio_output@@V?$format_validation_base@DV?$stream_output_adapter@D@__crt_stdio_output@@@2@@__crt_stdio_output@@AEAA_NXZ 00000000301513c0 f i libucrtd:output.obj
 0001:00150400       ?type_case_d@?$output_processor@DV?$stream_output_adapter@D@__crt_stdio_output@@V?$positional_parameter_base@DV?$stream_output_adapter@D@__crt_stdio_output@@@2@@__crt_stdio_output@@AEAA_NXZ 0000000030151400 f i libucrtd:output.obj
 0001:00150440       ?type_case_d@?$output_processor@DV?$stream_output_adapter@D@__crt_stdio_output@@V?$standard_base@DV?$stream_output_adapter@D@__crt_stdio_output@@@2@@__crt_stdio_output@@AEAA_NXZ 0000000030151440 f i libucrtd:output.obj
 0001:00150480       ?type_case_d@?$output_processor@DV?$string_output_adapter@D@__crt_stdio_output@@V?$format_validation_base@DV?$string_output_adapter@D@__crt_stdio_output@@@2@@__crt_stdio_output@@AEAA_NXZ 0000000030151480 f i libucrtd:output.obj
 0001:001504c0       ?type_case_d@?$output_processor@DV?$string_output_adapter@D@__crt_stdio_output@@V?$positional_parameter_base@DV?$string_output_adapter@D@__crt_stdio_output@@@2@@__crt_stdio_output@@AEAA_NXZ 00000000301514c0 f i libucrtd:output.obj
 0001:00150500       ?type_case_d@?$output_processor@DV?$string_output_adapter@D@__crt_stdio_output@@V?$standard_base@DV?$string_output_adapter@D@__crt_stdio_output@@@2@@__crt_stdio_output@@AEAA_NXZ 0000000030151500 f i libucrtd:output.obj
 0001:00150540       ?type_case_d@?$output_processor@_WV?$stream_output_adapter@_W@__crt_stdio_output@@V?$format_validation_base@_WV?$stream_output_adapter@_W@__crt_stdio_output@@@2@@__crt_stdio_output@@AEAA_NXZ 0000000030151540 f i libucrtd:output.obj
 0001:00150580       ?type_case_d@?$output_processor@_WV?$stream_output_adapter@_W@__crt_stdio_output@@V?$positional_parameter_base@_WV?$stream_output_adapter@_W@__crt_stdio_output@@@2@@__crt_stdio_output@@AEAA_NXZ 0000000030151580 f i libucrtd:output.obj
 0001:001505c0       ?type_case_d@?$output_processor@_WV?$stream_output_adapter@_W@__crt_stdio_output@@V?$standard_base@_WV?$stream_output_adapter@_W@__crt_stdio_output@@@2@@__crt_stdio_output@@AEAA_NXZ 00000000301515c0 f i libucrtd:output.obj
 0001:00150600       ?type_case_d@?$output_processor@_WV?$string_output_adapter@_W@__crt_stdio_output@@V?$format_validation_base@_WV?$string_output_adapter@_W@__crt_stdio_output@@@2@@__crt_stdio_output@@AEAA_NXZ 0000000030151600 f i libucrtd:output.obj
 0001:00150640       ?type_case_d@?$output_processor@_WV?$string_output_adapter@_W@__crt_stdio_output@@V?$positional_parameter_base@_WV?$string_output_adapter@_W@__crt_stdio_output@@@2@@__crt_stdio_output@@AEAA_NXZ 0000000030151640 f i libucrtd:output.obj
 0001:00150680       ?type_case_d@?$output_processor@_WV?$string_output_adapter@_W@__crt_stdio_output@@V?$standard_base@_WV?$string_output_adapter@_W@__crt_stdio_output@@@2@@__crt_stdio_output@@AEAA_NXZ 0000000030151680 f i libucrtd:output.obj
 0001:001506c0       ?type_case_integer@?$output_processor@DV?$stream_output_adapter@D@__crt_stdio_output@@V?$format_validation_base@DV?$stream_output_adapter@D@__crt_stdio_output@@@2@@__crt_stdio_output@@AEAA_NI_N@Z 00000000301516c0 f i libucrtd:output.obj
 0001:00150c20       ?type_case_integer@?$output_processor@DV?$stream_output_adapter@D@__crt_stdio_output@@V?$positional_parameter_base@DV?$stream_output_adapter@D@__crt_stdio_output@@@2@@__crt_stdio_output@@AEAA_NI_N@Z 0000000030151c20 f i libucrtd:output.obj
 0001:00151180       ?type_case_integer@?$output_processor@DV?$stream_output_adapter@D@__crt_stdio_output@@V?$standard_base@DV?$stream_output_adapter@D@__crt_stdio_output@@@2@@__crt_stdio_output@@AEAA_NI_N@Z 0000000030152180 f i libucrtd:output.obj
 0001:001516e0       ?type_case_integer@?$output_processor@DV?$string_output_adapter@D@__crt_stdio_output@@V?$format_validation_base@DV?$string_output_adapter@D@__crt_stdio_output@@@2@@__crt_stdio_output@@AEAA_NI_N@Z 00000000301526e0 f i libucrtd:output.obj
 0001:00151c40       ?type_case_integer@?$output_processor@DV?$string_output_adapter@D@__crt_stdio_output@@V?$positional_parameter_base@DV?$string_output_adapter@D@__crt_stdio_output@@@2@@__crt_stdio_output@@AEAA_NI_N@Z 0000000030152c40 f i libucrtd:output.obj
 0001:001521a0       ?type_case_integer@?$output_processor@DV?$string_output_adapter@D@__crt_stdio_output@@V?$standard_base@DV?$string_output_adapter@D@__crt_stdio_output@@@2@@__crt_stdio_output@@AEAA_NI_N@Z 00000000301531a0 f i libucrtd:output.obj
 0001:00152700       ?type_case_integer@?$output_processor@_WV?$stream_output_adapter@_W@__crt_stdio_output@@V?$format_validation_base@_WV?$stream_output_adapter@_W@__crt_stdio_output@@@2@@__crt_stdio_output@@AEAA_NI_N@Z 0000000030153700 f i libucrtd:output.obj
 0001:00152c60       ?type_case_integer@?$output_processor@_WV?$stream_output_adapter@_W@__crt_stdio_output@@V?$positional_parameter_base@_WV?$stream_output_adapter@_W@__crt_stdio_output@@@2@@__crt_stdio_output@@AEAA_NI_N@Z 0000000030153c60 f i libucrtd:output.obj
 0001:001531c0       ?type_case_integer@?$output_processor@_WV?$stream_output_adapter@_W@__crt_stdio_output@@V?$standard_base@_WV?$stream_output_adapter@_W@__crt_stdio_output@@@2@@__crt_stdio_output@@AEAA_NI_N@Z 00000000301541c0 f i libucrtd:output.obj
 0001:00153720       ?type_case_integer@?$output_processor@_WV?$string_output_adapter@_W@__crt_stdio_output@@V?$format_validation_base@_WV?$string_output_adapter@_W@__crt_stdio_output@@@2@@__crt_stdio_output@@AEAA_NI_N@Z 0000000030154720 f i libucrtd:output.obj
 0001:00153c80       ?type_case_integer@?$output_processor@_WV?$string_output_adapter@_W@__crt_stdio_output@@V?$positional_parameter_base@_WV?$string_output_adapter@_W@__crt_stdio_output@@@2@@__crt_stdio_output@@AEAA_NI_N@Z 0000000030154c80 f i libucrtd:output.obj
 0001:001541e0       ?type_case_integer@?$output_processor@_WV?$string_output_adapter@_W@__crt_stdio_output@@V?$standard_base@_WV?$string_output_adapter@_W@__crt_stdio_output@@@2@@__crt_stdio_output@@AEAA_NI_N@Z 00000000301551e0 f i libucrtd:output.obj
 0001:00154740       ?type_case_n@?$output_processor@DV?$stream_output_adapter@D@__crt_stdio_output@@V?$format_validation_base@DV?$stream_output_adapter@D@__crt_stdio_output@@@2@@__crt_stdio_output@@AEAA_NXZ 0000000030155740 f i libucrtd:output.obj
 0001:00154a10       ?type_case_n@?$output_processor@DV?$stream_output_adapter@D@__crt_stdio_output@@V?$positional_parameter_base@DV?$stream_output_adapter@D@__crt_stdio_output@@@2@@__crt_stdio_output@@AEAA_NXZ 0000000030155a10 f i libucrtd:output.obj
 0001:00154ce0       ?type_case_n@?$output_processor@DV?$stream_output_adapter@D@__crt_stdio_output@@V?$standard_base@DV?$stream_output_adapter@D@__crt_stdio_output@@@2@@__crt_stdio_output@@AEAA_NXZ 0000000030155ce0 f i libucrtd:output.obj
 0001:00154fb0       ?type_case_n@?$output_processor@DV?$string_output_adapter@D@__crt_stdio_output@@V?$format_validation_base@DV?$string_output_adapter@D@__crt_stdio_output@@@2@@__crt_stdio_output@@AEAA_NXZ 0000000030155fb0 f i libucrtd:output.obj
 0001:00155280       ?type_case_n@?$output_processor@DV?$string_output_adapter@D@__crt_stdio_output@@V?$positional_parameter_base@DV?$string_output_adapter@D@__crt_stdio_output@@@2@@__crt_stdio_output@@AEAA_NXZ 0000000030156280 f i libucrtd:output.obj
 0001:00155550       ?type_case_n@?$output_processor@DV?$string_output_adapter@D@__crt_stdio_output@@V?$standard_base@DV?$string_output_adapter@D@__crt_stdio_output@@@2@@__crt_stdio_output@@AEAA_NXZ 0000000030156550 f i libucrtd:output.obj
 0001:00155820       ?type_case_n@?$output_processor@_WV?$stream_output_adapter@_W@__crt_stdio_output@@V?$format_validation_base@_WV?$stream_output_adapter@_W@__crt_stdio_output@@@2@@__crt_stdio_output@@AEAA_NXZ 0000000030156820 f i libucrtd:output.obj
 0001:00155af0       ?type_case_n@?$output_processor@_WV?$stream_output_adapter@_W@__crt_stdio_output@@V?$positional_parameter_base@_WV?$stream_output_adapter@_W@__crt_stdio_output@@@2@@__crt_stdio_output@@AEAA_NXZ 0000000030156af0 f i libucrtd:output.obj
 0001:00155dc0       ?type_case_n@?$output_processor@_WV?$stream_output_adapter@_W@__crt_stdio_output@@V?$standard_base@_WV?$stream_output_adapter@_W@__crt_stdio_output@@@2@@__crt_stdio_output@@AEAA_NXZ 0000000030156dc0 f i libucrtd:output.obj
 0001:00156090       ?type_case_n@?$output_processor@_WV?$string_output_adapter@_W@__crt_stdio_output@@V?$format_validation_base@_WV?$string_output_adapter@_W@__crt_stdio_output@@@2@@__crt_stdio_output@@AEAA_NXZ 0000000030157090 f i libucrtd:output.obj
 0001:00156360       ?type_case_n@?$output_processor@_WV?$string_output_adapter@_W@__crt_stdio_output@@V?$positional_parameter_base@_WV?$string_output_adapter@_W@__crt_stdio_output@@@2@@__crt_stdio_output@@AEAA_NXZ 0000000030157360 f i libucrtd:output.obj
 0001:00156630       ?type_case_n@?$output_processor@_WV?$string_output_adapter@_W@__crt_stdio_output@@V?$standard_base@_WV?$string_output_adapter@_W@__crt_stdio_output@@@2@@__crt_stdio_output@@AEAA_NXZ 0000000030157630 f i libucrtd:output.obj
 0001:00156900       ?type_case_o@?$output_processor@DV?$stream_output_adapter@D@__crt_stdio_output@@V?$format_validation_base@DV?$stream_output_adapter@D@__crt_stdio_output@@@2@@__crt_stdio_output@@AEAA_NXZ 0000000030157900 f i libucrtd:output.obj
 0001:00156960       ?type_case_o@?$output_processor@DV?$stream_output_adapter@D@__crt_stdio_output@@V?$positional_parameter_base@DV?$stream_output_adapter@D@__crt_stdio_output@@@2@@__crt_stdio_output@@AEAA_NXZ 0000000030157960 f i libucrtd:output.obj
 0001:001569c0       ?type_case_o@?$output_processor@DV?$stream_output_adapter@D@__crt_stdio_output@@V?$standard_base@DV?$stream_output_adapter@D@__crt_stdio_output@@@2@@__crt_stdio_output@@AEAA_NXZ 00000000301579c0 f i libucrtd:output.obj
 0001:00156a20       ?type_case_o@?$output_processor@DV?$string_output_adapter@D@__crt_stdio_output@@V?$format_validation_base@DV?$string_output_adapter@D@__crt_stdio_output@@@2@@__crt_stdio_output@@AEAA_NXZ 0000000030157a20 f i libucrtd:output.obj
 0001:00156a80       ?type_case_o@?$output_processor@DV?$string_output_adapter@D@__crt_stdio_output@@V?$positional_parameter_base@DV?$string_output_adapter@D@__crt_stdio_output@@@2@@__crt_stdio_output@@AEAA_NXZ 0000000030157a80 f i libucrtd:output.obj
 0001:00156ae0       ?type_case_o@?$output_processor@DV?$string_output_adapter@D@__crt_stdio_output@@V?$standard_base@DV?$string_output_adapter@D@__crt_stdio_output@@@2@@__crt_stdio_output@@AEAA_NXZ 0000000030157ae0 f i libucrtd:output.obj
 0001:00156b40       ?type_case_o@?$output_processor@_WV?$stream_output_adapter@_W@__crt_stdio_output@@V?$format_validation_base@_WV?$stream_output_adapter@_W@__crt_stdio_output@@@2@@__crt_stdio_output@@AEAA_NXZ 0000000030157b40 f i libucrtd:output.obj
 0001:00156ba0       ?type_case_o@?$output_processor@_WV?$stream_output_adapter@_W@__crt_stdio_output@@V?$positional_parameter_base@_WV?$stream_output_adapter@_W@__crt_stdio_output@@@2@@__crt_stdio_output@@AEAA_NXZ 0000000030157ba0 f i libucrtd:output.obj
 0001:00156c00       ?type_case_o@?$output_processor@_WV?$stream_output_adapter@_W@__crt_stdio_output@@V?$standard_base@_WV?$stream_output_adapter@_W@__crt_stdio_output@@@2@@__crt_stdio_output@@AEAA_NXZ 0000000030157c00 f i libucrtd:output.obj
 0001:00156c60       ?type_case_o@?$output_processor@_WV?$string_output_adapter@_W@__crt_stdio_output@@V?$format_validation_base@_WV?$string_output_adapter@_W@__crt_stdio_output@@@2@@__crt_stdio_output@@AEAA_NXZ 0000000030157c60 f i libucrtd:output.obj
 0001:00156cc0       ?type_case_o@?$output_processor@_WV?$string_output_adapter@_W@__crt_stdio_output@@V?$positional_parameter_base@_WV?$string_output_adapter@_W@__crt_stdio_output@@@2@@__crt_stdio_output@@AEAA_NXZ 0000000030157cc0 f i libucrtd:output.obj
 0001:00156d20       ?type_case_o@?$output_processor@_WV?$string_output_adapter@_W@__crt_stdio_output@@V?$standard_base@_WV?$string_output_adapter@_W@__crt_stdio_output@@@2@@__crt_stdio_output@@AEAA_NXZ 0000000030157d20 f i libucrtd:output.obj
 0001:00156d80       ?type_case_p@?$output_processor@DV?$stream_output_adapter@D@__crt_stdio_output@@V?$format_validation_base@DV?$stream_output_adapter@D@__crt_stdio_output@@@2@@__crt_stdio_output@@AEAA_NXZ 0000000030157d80 f i libucrtd:output.obj
 0001:00156dd0       ?type_case_p@?$output_processor@DV?$stream_output_adapter@D@__crt_stdio_output@@V?$positional_parameter_base@DV?$stream_output_adapter@D@__crt_stdio_output@@@2@@__crt_stdio_output@@AEAA_NXZ 0000000030157dd0 f i libucrtd:output.obj
 0001:00156e20       ?type_case_p@?$output_processor@DV?$stream_output_adapter@D@__crt_stdio_output@@V?$standard_base@DV?$stream_output_adapter@D@__crt_stdio_output@@@2@@__crt_stdio_output@@AEAA_NXZ 0000000030157e20 f i libucrtd:output.obj
 0001:00156e70       ?type_case_p@?$output_processor@DV?$string_output_adapter@D@__crt_stdio_output@@V?$format_validation_base@DV?$string_output_adapter@D@__crt_stdio_output@@@2@@__crt_stdio_output@@AEAA_NXZ 0000000030157e70 f i libucrtd:output.obj
 0001:00156ec0       ?type_case_p@?$output_processor@DV?$string_output_adapter@D@__crt_stdio_output@@V?$positional_parameter_base@DV?$string_output_adapter@D@__crt_stdio_output@@@2@@__crt_stdio_output@@AEAA_NXZ 0000000030157ec0 f i libucrtd:output.obj
 0001:00156f10       ?type_case_p@?$output_processor@DV?$string_output_adapter@D@__crt_stdio_output@@V?$standard_base@DV?$string_output_adapter@D@__crt_stdio_output@@@2@@__crt_stdio_output@@AEAA_NXZ 0000000030157f10 f i libucrtd:output.obj
 0001:00156f60       ?type_case_p@?$output_processor@_WV?$stream_output_adapter@_W@__crt_stdio_output@@V?$format_validation_base@_WV?$stream_output_adapter@_W@__crt_stdio_output@@@2@@__crt_stdio_output@@AEAA_NXZ 0000000030157f60 f i libucrtd:output.obj
 0001:00156fb0       ?type_case_p@?$output_processor@_WV?$stream_output_adapter@_W@__crt_stdio_output@@V?$positional_parameter_base@_WV?$stream_output_adapter@_W@__crt_stdio_output@@@2@@__crt_stdio_output@@AEAA_NXZ 0000000030157fb0 f i libucrtd:output.obj
 0001:00157000       ?type_case_p@?$output_processor@_WV?$stream_output_adapter@_W@__crt_stdio_output@@V?$standard_base@_WV?$stream_output_adapter@_W@__crt_stdio_output@@@2@@__crt_stdio_output@@AEAA_NXZ 0000000030158000 f i libucrtd:output.obj
 0001:00157050       ?type_case_p@?$output_processor@_WV?$string_output_adapter@_W@__crt_stdio_output@@V?$format_validation_base@_WV?$string_output_adapter@_W@__crt_stdio_output@@@2@@__crt_stdio_output@@AEAA_NXZ 0000000030158050 f i libucrtd:output.obj
 0001:001570a0       ?type_case_p@?$output_processor@_WV?$string_output_adapter@_W@__crt_stdio_output@@V?$positional_parameter_base@_WV?$string_output_adapter@_W@__crt_stdio_output@@@2@@__crt_stdio_output@@AEAA_NXZ 00000000301580a0 f i libucrtd:output.obj
 0001:001570f0       ?type_case_p@?$output_processor@_WV?$string_output_adapter@_W@__crt_stdio_output@@V?$standard_base@_WV?$string_output_adapter@_W@__crt_stdio_output@@@2@@__crt_stdio_output@@AEAA_NXZ 00000000301580f0 f i libucrtd:output.obj
 0001:00157140       ?type_case_s@?$output_processor@DV?$stream_output_adapter@D@__crt_stdio_output@@V?$format_validation_base@DV?$stream_output_adapter@D@__crt_stdio_output@@@2@@__crt_stdio_output@@AEAA_NXZ 0000000030158140 f i libucrtd:output.obj
 0001:001572a0       ?type_case_s@?$output_processor@DV?$stream_output_adapter@D@__crt_stdio_output@@V?$positional_parameter_base@DV?$stream_output_adapter@D@__crt_stdio_output@@@2@@__crt_stdio_output@@AEAA_NXZ 00000000301582a0 f i libucrtd:output.obj
 0001:00157400       ?type_case_s@?$output_processor@DV?$stream_output_adapter@D@__crt_stdio_output@@V?$standard_base@DV?$stream_output_adapter@D@__crt_stdio_output@@@2@@__crt_stdio_output@@AEAA_NXZ 0000000030158400 f i libucrtd:output.obj
 0001:00157560       ?type_case_s@?$output_processor@DV?$string_output_adapter@D@__crt_stdio_output@@V?$format_validation_base@DV?$string_output_adapter@D@__crt_stdio_output@@@2@@__crt_stdio_output@@AEAA_NXZ 0000000030158560 f i libucrtd:output.obj
 0001:001576c0       ?type_case_s@?$output_processor@DV?$string_output_adapter@D@__crt_stdio_output@@V?$positional_parameter_base@DV?$string_output_adapter@D@__crt_stdio_output@@@2@@__crt_stdio_output@@AEAA_NXZ 00000000301586c0 f i libucrtd:output.obj
 0001:00157820       ?type_case_s@?$output_processor@DV?$string_output_adapter@D@__crt_stdio_output@@V?$standard_base@DV?$string_output_adapter@D@__crt_stdio_output@@@2@@__crt_stdio_output@@AEAA_NXZ 0000000030158820 f i libucrtd:output.obj
 0001:00157980       ?type_case_s@?$output_processor@_WV?$stream_output_adapter@_W@__crt_stdio_output@@V?$format_validation_base@_WV?$stream_output_adapter@_W@__crt_stdio_output@@@2@@__crt_stdio_output@@AEAA_NXZ 0000000030158980 f i libucrtd:output.obj
 0001:00157ae0       ?type_case_s@?$output_processor@_WV?$stream_output_adapter@_W@__crt_stdio_output@@V?$positional_parameter_base@_WV?$stream_output_adapter@_W@__crt_stdio_output@@@2@@__crt_stdio_output@@AEAA_NXZ 0000000030158ae0 f i libucrtd:output.obj
 0001:00157c40       ?type_case_s@?$output_processor@_WV?$stream_output_adapter@_W@__crt_stdio_output@@V?$standard_base@_WV?$stream_output_adapter@_W@__crt_stdio_output@@@2@@__crt_stdio_output@@AEAA_NXZ 0000000030158c40 f i libucrtd:output.obj
 0001:00157da0       ?type_case_s@?$output_processor@_WV?$string_output_adapter@_W@__crt_stdio_output@@V?$format_validation_base@_WV?$string_output_adapter@_W@__crt_stdio_output@@@2@@__crt_stdio_output@@AEAA_NXZ 0000000030158da0 f i libucrtd:output.obj
 0001:00157f00       ?type_case_s@?$output_processor@_WV?$string_output_adapter@_W@__crt_stdio_output@@V?$positional_parameter_base@_WV?$string_output_adapter@_W@__crt_stdio_output@@@2@@__crt_stdio_output@@AEAA_NXZ 0000000030158f00 f i libucrtd:output.obj
 0001:00158060       ?type_case_s@?$output_processor@_WV?$string_output_adapter@_W@__crt_stdio_output@@V?$standard_base@_WV?$string_output_adapter@_W@__crt_stdio_output@@@2@@__crt_stdio_output@@AEAA_NXZ 0000000030159060 f i libucrtd:output.obj
 0001:001581c0       ?type_case_s_compute_narrow_string_length@?$output_processor@DV?$stream_output_adapter@D@__crt_stdio_output@@V?$format_validation_base@DV?$stream_output_adapter@D@__crt_stdio_output@@@2@@__crt_stdio_output@@AEBAHHD@Z 00000000301591c0 f i libucrtd:output.obj
 0001:00158200       ?type_case_s_compute_narrow_string_length@?$output_processor@DV?$stream_output_adapter@D@__crt_stdio_output@@V?$positional_parameter_base@DV?$stream_output_adapter@D@__crt_stdio_output@@@2@@__crt_stdio_output@@AEBAHHD@Z 0000000030159200 f i libucrtd:output.obj
 0001:00158240       ?type_case_s_compute_narrow_string_length@?$output_processor@DV?$stream_output_adapter@D@__crt_stdio_output@@V?$standard_base@DV?$stream_output_adapter@D@__crt_stdio_output@@@2@@__crt_stdio_output@@AEBAHHD@Z 0000000030159240 f i libucrtd:output.obj
 0001:00158280       ?type_case_s_compute_narrow_string_length@?$output_processor@DV?$string_output_adapter@D@__crt_stdio_output@@V?$format_validation_base@DV?$string_output_adapter@D@__crt_stdio_output@@@2@@__crt_stdio_output@@AEBAHHD@Z 0000000030159280 f i libucrtd:output.obj
 0001:001582c0       ?type_case_s_compute_narrow_string_length@?$output_processor@DV?$string_output_adapter@D@__crt_stdio_output@@V?$positional_parameter_base@DV?$string_output_adapter@D@__crt_stdio_output@@@2@@__crt_stdio_output@@AEBAHHD@Z 00000000301592c0 f i libucrtd:output.obj
 0001:00158300       ?type_case_s_compute_narrow_string_length@?$output_processor@DV?$string_output_adapter@D@__crt_stdio_output@@V?$standard_base@DV?$string_output_adapter@D@__crt_stdio_output@@@2@@__crt_stdio_output@@AEBAHHD@Z 0000000030159300 f i libucrtd:output.obj
 0001:00158340       ?type_case_s_compute_narrow_string_length@?$output_processor@_WV?$stream_output_adapter@_W@__crt_stdio_output@@V?$format_validation_base@_WV?$stream_output_adapter@_W@__crt_stdio_output@@@2@@__crt_stdio_output@@AEBAHH_W@Z 0000000030159340 f i libucrtd:output.obj
 0001:001583f0       ?type_case_s_compute_narrow_string_length@?$output_processor@_WV?$stream_output_adapter@_W@__crt_stdio_output@@V?$positional_parameter_base@_WV?$stream_output_adapter@_W@__crt_stdio_output@@@2@@__crt_stdio_output@@AEBAHH_W@Z 00000000301593f0 f i libucrtd:output.obj
 0001:001584a0       ?type_case_s_compute_narrow_string_length@?$output_processor@_WV?$stream_output_adapter@_W@__crt_stdio_output@@V?$standard_base@_WV?$stream_output_adapter@_W@__crt_stdio_output@@@2@@__crt_stdio_output@@AEBAHH_W@Z 00000000301594a0 f i libucrtd:output.obj
 0001:00158550       ?type_case_s_compute_narrow_string_length@?$output_processor@_WV?$string_output_adapter@_W@__crt_stdio_output@@V?$format_validation_base@_WV?$string_output_adapter@_W@__crt_stdio_output@@@2@@__crt_stdio_output@@AEBAHH_W@Z 0000000030159550 f i libucrtd:output.obj
 0001:00158600       ?type_case_s_compute_narrow_string_length@?$output_processor@_WV?$string_output_adapter@_W@__crt_stdio_output@@V?$positional_parameter_base@_WV?$string_output_adapter@_W@__crt_stdio_output@@@2@@__crt_stdio_output@@AEBAHH_W@Z 0000000030159600 f i libucrtd:output.obj
 0001:001586b0       ?type_case_s_compute_narrow_string_length@?$output_processor@_WV?$string_output_adapter@_W@__crt_stdio_output@@V?$standard_base@_WV?$string_output_adapter@_W@__crt_stdio_output@@@2@@__crt_stdio_output@@AEBAHH_W@Z 00000000301596b0 f i libucrtd:output.obj
 0001:00158760       ?type_case_u@?$output_processor@DV?$stream_output_adapter@D@__crt_stdio_output@@V?$format_validation_base@DV?$stream_output_adapter@D@__crt_stdio_output@@@2@@__crt_stdio_output@@AEAA_NXZ 0000000030159760 f i libucrtd:output.obj
 0001:00158790       ?type_case_u@?$output_processor@DV?$stream_output_adapter@D@__crt_stdio_output@@V?$positional_parameter_base@DV?$stream_output_adapter@D@__crt_stdio_output@@@2@@__crt_stdio_output@@AEAA_NXZ 0000000030159790 f i libucrtd:output.obj
 0001:001587c0       ?type_case_u@?$output_processor@DV?$stream_output_adapter@D@__crt_stdio_output@@V?$standard_base@DV?$stream_output_adapter@D@__crt_stdio_output@@@2@@__crt_stdio_output@@AEAA_NXZ 00000000301597c0 f i libucrtd:output.obj
 0001:001587f0       ?type_case_u@?$output_processor@DV?$string_output_adapter@D@__crt_stdio_output@@V?$format_validation_base@DV?$string_output_adapter@D@__crt_stdio_output@@@2@@__crt_stdio_output@@AEAA_NXZ 00000000301597f0 f i libucrtd:output.obj
 0001:00158820       ?type_case_u@?$output_processor@DV?$string_output_adapter@D@__crt_stdio_output@@V?$positional_parameter_base@DV?$string_output_adapter@D@__crt_stdio_output@@@2@@__crt_stdio_output@@AEAA_NXZ 0000000030159820 f i libucrtd:output.obj
 0001:00158850       ?type_case_u@?$output_processor@DV?$string_output_adapter@D@__crt_stdio_output@@V?$standard_base@DV?$string_output_adapter@D@__crt_stdio_output@@@2@@__crt_stdio_output@@AEAA_NXZ 0000000030159850 f i libucrtd:output.obj
 0001:00158880       ?type_case_u@?$output_processor@_WV?$stream_output_adapter@_W@__crt_stdio_output@@V?$format_validation_base@_WV?$stream_output_adapter@_W@__crt_stdio_output@@@2@@__crt_stdio_output@@AEAA_NXZ 0000000030159880 f i libucrtd:output.obj
 0001:001588b0       ?type_case_u@?$output_processor@_WV?$stream_output_adapter@_W@__crt_stdio_output@@V?$positional_parameter_base@_WV?$stream_output_adapter@_W@__crt_stdio_output@@@2@@__crt_stdio_output@@AEAA_NXZ 00000000301598b0 f i libucrtd:output.obj
 0001:001588e0       ?type_case_u@?$output_processor@_WV?$stream_output_adapter@_W@__crt_stdio_output@@V?$standard_base@_WV?$stream_output_adapter@_W@__crt_stdio_output@@@2@@__crt_stdio_output@@AEAA_NXZ 00000000301598e0 f i libucrtd:output.obj
 0001:00158910       ?type_case_u@?$output_processor@_WV?$string_output_adapter@_W@__crt_stdio_output@@V?$format_validation_base@_WV?$string_output_adapter@_W@__crt_stdio_output@@@2@@__crt_stdio_output@@AEAA_NXZ 0000000030159910 f i libucrtd:output.obj
 0001:00158940       ?type_case_u@?$output_processor@_WV?$string_output_adapter@_W@__crt_stdio_output@@V?$positional_parameter_base@_WV?$string_output_adapter@_W@__crt_stdio_output@@@2@@__crt_stdio_output@@AEAA_NXZ 0000000030159940 f i libucrtd:output.obj
 0001:00158970       ?type_case_u@?$output_processor@_WV?$string_output_adapter@_W@__crt_stdio_output@@V?$standard_base@_WV?$string_output_adapter@_W@__crt_stdio_output@@@2@@__crt_stdio_output@@AEAA_NXZ 0000000030159970 f i libucrtd:output.obj
 0001:001589a0       ?type_case_x@?$output_processor@DV?$stream_output_adapter@D@__crt_stdio_output@@V?$format_validation_base@DV?$stream_output_adapter@D@__crt_stdio_output@@@2@@__crt_stdio_output@@AEAA_NXZ 00000000301599a0 f i libucrtd:output.obj
 0001:001589d0       ?type_case_x@?$output_processor@DV?$stream_output_adapter@D@__crt_stdio_output@@V?$positional_parameter_base@DV?$stream_output_adapter@D@__crt_stdio_output@@@2@@__crt_stdio_output@@AEAA_NXZ 00000000301599d0 f i libucrtd:output.obj
 0001:00158a00       ?type_case_x@?$output_processor@DV?$stream_output_adapter@D@__crt_stdio_output@@V?$standard_base@DV?$stream_output_adapter@D@__crt_stdio_output@@@2@@__crt_stdio_output@@AEAA_NXZ 0000000030159a00 f i libucrtd:output.obj
 0001:00158a30       ?type_case_x@?$output_processor@DV?$string_output_adapter@D@__crt_stdio_output@@V?$format_validation_base@DV?$string_output_adapter@D@__crt_stdio_output@@@2@@__crt_stdio_output@@AEAA_NXZ 0000000030159a30 f i libucrtd:output.obj
 0001:00158a60       ?type_case_x@?$output_processor@DV?$string_output_adapter@D@__crt_stdio_output@@V?$positional_parameter_base@DV?$string_output_adapter@D@__crt_stdio_output@@@2@@__crt_stdio_output@@AEAA_NXZ 0000000030159a60 f i libucrtd:output.obj
 0001:00158a90       ?type_case_x@?$output_processor@DV?$string_output_adapter@D@__crt_stdio_output@@V?$standard_base@DV?$string_output_adapter@D@__crt_stdio_output@@@2@@__crt_stdio_output@@AEAA_NXZ 0000000030159a90 f i libucrtd:output.obj
 0001:00158ac0       ?type_case_x@?$output_processor@_WV?$stream_output_adapter@_W@__crt_stdio_output@@V?$format_validation_base@_WV?$stream_output_adapter@_W@__crt_stdio_output@@@2@@__crt_stdio_output@@AEAA_NXZ 0000000030159ac0 f i libucrtd:output.obj
 0001:00158af0       ?type_case_x@?$output_processor@_WV?$stream_output_adapter@_W@__crt_stdio_output@@V?$positional_parameter_base@_WV?$stream_output_adapter@_W@__crt_stdio_output@@@2@@__crt_stdio_output@@AEAA_NXZ 0000000030159af0 f i libucrtd:output.obj
 0001:00158b20       ?type_case_x@?$output_processor@_WV?$stream_output_adapter@_W@__crt_stdio_output@@V?$standard_base@_WV?$stream_output_adapter@_W@__crt_stdio_output@@@2@@__crt_stdio_output@@AEAA_NXZ 0000000030159b20 f i libucrtd:output.obj
 0001:00158b50       ?type_case_x@?$output_processor@_WV?$string_output_adapter@_W@__crt_stdio_output@@V?$format_validation_base@_WV?$string_output_adapter@_W@__crt_stdio_output@@@2@@__crt_stdio_output@@AEAA_NXZ 0000000030159b50 f i libucrtd:output.obj
 0001:00158b80       ?type_case_x@?$output_processor@_WV?$string_output_adapter@_W@__crt_stdio_output@@V?$positional_parameter_base@_WV?$string_output_adapter@_W@__crt_stdio_output@@@2@@__crt_stdio_output@@AEAA_NXZ 0000000030159b80 f i libucrtd:output.obj
 0001:00158bb0       ?type_case_x@?$output_processor@_WV?$string_output_adapter@_W@__crt_stdio_output@@V?$standard_base@_WV?$string_output_adapter@_W@__crt_stdio_output@@@2@@__crt_stdio_output@@AEAA_NXZ 0000000030159bb0 f i libucrtd:output.obj
 0001:00158be0       ?unset_flag@?$output_processor@DV?$stream_output_adapter@D@__crt_stdio_output@@V?$format_validation_base@DV?$stream_output_adapter@D@__crt_stdio_output@@@2@@__crt_stdio_output@@AEAAXI@Z 0000000030159be0 f i libucrtd:output.obj
 0001:00158c10       ?unset_flag@?$output_processor@DV?$stream_output_adapter@D@__crt_stdio_output@@V?$positional_parameter_base@DV?$stream_output_adapter@D@__crt_stdio_output@@@2@@__crt_stdio_output@@AEAAXI@Z 0000000030159c10 f i libucrtd:output.obj
 0001:00158c40       ?unset_flag@?$output_processor@DV?$stream_output_adapter@D@__crt_stdio_output@@V?$standard_base@DV?$stream_output_adapter@D@__crt_stdio_output@@@2@@__crt_stdio_output@@AEAAXI@Z 0000000030159c40 f i libucrtd:output.obj
 0001:00158c70       ?unset_flag@?$output_processor@DV?$string_output_adapter@D@__crt_stdio_output@@V?$format_validation_base@DV?$string_output_adapter@D@__crt_stdio_output@@@2@@__crt_stdio_output@@AEAAXI@Z 0000000030159c70 f i libucrtd:output.obj
 0001:00158ca0       ?unset_flag@?$output_processor@DV?$string_output_adapter@D@__crt_stdio_output@@V?$positional_parameter_base@DV?$string_output_adapter@D@__crt_stdio_output@@@2@@__crt_stdio_output@@AEAAXI@Z 0000000030159ca0 f i libucrtd:output.obj
 0001:00158cd0       ?unset_flag@?$output_processor@DV?$string_output_adapter@D@__crt_stdio_output@@V?$standard_base@DV?$string_output_adapter@D@__crt_stdio_output@@@2@@__crt_stdio_output@@AEAAXI@Z 0000000030159cd0 f i libucrtd:output.obj
 0001:00158d00       ?unset_flag@?$output_processor@_WV?$stream_output_adapter@_W@__crt_stdio_output@@V?$format_validation_base@_WV?$stream_output_adapter@_W@__crt_stdio_output@@@2@@__crt_stdio_output@@AEAAXI@Z 0000000030159d00 f i libucrtd:output.obj
 0001:00158d30       ?unset_flag@?$output_processor@_WV?$stream_output_adapter@_W@__crt_stdio_output@@V?$positional_parameter_base@_WV?$stream_output_adapter@_W@__crt_stdio_output@@@2@@__crt_stdio_output@@AEAAXI@Z 0000000030159d30 f i libucrtd:output.obj
 0001:00158d60       ?unset_flag@?$output_processor@_WV?$stream_output_adapter@_W@__crt_stdio_output@@V?$standard_base@_WV?$stream_output_adapter@_W@__crt_stdio_output@@@2@@__crt_stdio_output@@AEAAXI@Z 0000000030159d60 f i libucrtd:output.obj
 0001:00158d90       ?unset_flag@?$output_processor@_WV?$string_output_adapter@_W@__crt_stdio_output@@V?$format_validation_base@_WV?$string_output_adapter@_W@__crt_stdio_output@@@2@@__crt_stdio_output@@AEAAXI@Z 0000000030159d90 f i libucrtd:output.obj
 0001:00158dc0       ?unset_flag@?$output_processor@_WV?$string_output_adapter@_W@__crt_stdio_output@@V?$positional_parameter_base@_WV?$string_output_adapter@_W@__crt_stdio_output@@@2@@__crt_stdio_output@@AEAAXI@Z 0000000030159dc0 f i libucrtd:output.obj
 0001:00158df0       ?unset_flag@?$output_processor@_WV?$string_output_adapter@_W@__crt_stdio_output@@V?$standard_base@_WV?$string_output_adapter@_W@__crt_stdio_output@@@2@@__crt_stdio_output@@AEAAXI@Z 0000000030159df0 f i libucrtd:output.obj
 0001:00158e20       ?update_field_width@?$positional_parameter_base@DV?$stream_output_adapter@D@__crt_stdio_output@@@__crt_stdio_output@@IEAA_NXZ 0000000030159e20 f i libucrtd:output.obj
 0001:00159080       ?update_field_width@?$positional_parameter_base@DV?$string_output_adapter@D@__crt_stdio_output@@@__crt_stdio_output@@IEAA_NXZ 000000003015a080 f i libucrtd:output.obj
 0001:001592e0       ?update_field_width@?$positional_parameter_base@_WV?$stream_output_adapter@_W@__crt_stdio_output@@@__crt_stdio_output@@IEAA_NXZ 000000003015a2e0 f i libucrtd:output.obj
 0001:00159540       ?update_field_width@?$positional_parameter_base@_WV?$string_output_adapter@_W@__crt_stdio_output@@@__crt_stdio_output@@IEAA_NXZ 000000003015a540 f i libucrtd:output.obj
 0001:001597a0       ?update_field_width@?$standard_base@DV?$stream_output_adapter@D@__crt_stdio_output@@@__crt_stdio_output@@IEAA_NXZ 000000003015a7a0 f i libucrtd:output.obj
 0001:001597e0       ?update_field_width@?$standard_base@DV?$string_output_adapter@D@__crt_stdio_output@@@__crt_stdio_output@@IEAA_NXZ 000000003015a7e0 f i libucrtd:output.obj
 0001:00159820       ?update_field_width@?$standard_base@_WV?$stream_output_adapter@_W@__crt_stdio_output@@@__crt_stdio_output@@IEAA_NXZ 000000003015a820 f i libucrtd:output.obj
 0001:00159860       ?update_field_width@?$standard_base@_WV?$string_output_adapter@_W@__crt_stdio_output@@@__crt_stdio_output@@IEAA_NXZ 000000003015a860 f i libucrtd:output.obj
 0001:001598a0       ?update_precision@?$positional_parameter_base@DV?$stream_output_adapter@D@__crt_stdio_output@@@__crt_stdio_output@@IEAA_NXZ 000000003015a8a0 f i libucrtd:output.obj
 0001:00159b00       ?update_precision@?$positional_parameter_base@DV?$string_output_adapter@D@__crt_stdio_output@@@__crt_stdio_output@@IEAA_NXZ 000000003015ab00 f i libucrtd:output.obj
 0001:00159d60       ?update_precision@?$positional_parameter_base@_WV?$stream_output_adapter@_W@__crt_stdio_output@@@__crt_stdio_output@@IEAA_NXZ 000000003015ad60 f i libucrtd:output.obj
 0001:00159fc0       ?update_precision@?$positional_parameter_base@_WV?$string_output_adapter@_W@__crt_stdio_output@@@__crt_stdio_output@@IEAA_NXZ 000000003015afc0 f i libucrtd:output.obj
 0001:0015a220       ?update_precision@?$standard_base@DV?$stream_output_adapter@D@__crt_stdio_output@@@__crt_stdio_output@@IEAA_NXZ 000000003015b220 f i libucrtd:output.obj
 0001:0015a260       ?update_precision@?$standard_base@DV?$string_output_adapter@D@__crt_stdio_output@@@__crt_stdio_output@@IEAA_NXZ 000000003015b260 f i libucrtd:output.obj
 0001:0015a2a0       ?update_precision@?$standard_base@_WV?$stream_output_adapter@_W@__crt_stdio_output@@@__crt_stdio_output@@IEAA_NXZ 000000003015b2a0 f i libucrtd:output.obj
 0001:0015a2e0       ?update_precision@?$standard_base@_WV?$string_output_adapter@_W@__crt_stdio_output@@@__crt_stdio_output@@IEAA_NXZ 000000003015b2e0 f i libucrtd:output.obj
 0001:0015a320       ?valid@__crt_stdio_stream@@QEBA_NXZ 000000003015b320 f i libucrtd:output.obj
 0001:0015a360       ?validate@?$stream_output_adapter@D@__crt_stdio_output@@QEBA_NXZ 000000003015b360 f i libucrtd:output.obj
 0001:0015a470       ?validate@?$stream_output_adapter@_W@__crt_stdio_output@@QEBA_NXZ 000000003015b470 f i libucrtd:output.obj
 0001:0015a580       ?validate@?$string_output_adapter@D@__crt_stdio_output@@QEBA_NXZ 000000003015b580 f i libucrtd:output.obj
 0001:0015a670       ?validate@?$string_output_adapter@_W@__crt_stdio_output@@QEBA_NXZ 000000003015b670 f i libucrtd:output.obj
 0001:0015a760       ?validate_and_store_parameter_data@?$positional_parameter_base@DV?$stream_output_adapter@D@__crt_stdio_output@@@__crt_stdio_output@@AEAA_NAEAUparameter_data@12@W4parameter_type@12@DW4length_modifier@2@@Z 000000003015b760 f i libucrtd:output.obj
 0001:0015a8c0       ?validate_and_store_parameter_data@?$positional_parameter_base@DV?$string_output_adapter@D@__crt_stdio_output@@@__crt_stdio_output@@AEAA_NAEAUparameter_data@12@W4parameter_type@12@DW4length_modifier@2@@Z 000000003015b8c0 f i libucrtd:output.obj
 0001:0015aa20       ?validate_and_store_parameter_data@?$positional_parameter_base@_WV?$stream_output_adapter@_W@__crt_stdio_output@@@__crt_stdio_output@@AEAA_NAEAUparameter_data@12@W4parameter_type@12@_WW4length_modifier@2@@Z 000000003015ba20 f i libucrtd:output.obj
 0001:0015ab80       ?validate_and_store_parameter_data@?$positional_parameter_base@_WV?$string_output_adapter@_W@__crt_stdio_output@@@__crt_stdio_output@@AEAA_NAEAUparameter_data@12@W4parameter_type@12@_WW4length_modifier@2@@Z 000000003015bb80 f i libucrtd:output.obj
 0001:0015ace0       ?validate_and_update_state_at_beginning_of_format_character@?$positional_parameter_base@DV?$stream_output_adapter@D@__crt_stdio_output@@@__crt_stdio_output@@IEAA_NXZ 000000003015bce0 f i libucrtd:output.obj
 0001:0015b070       ?validate_and_update_state_at_beginning_of_format_character@?$positional_parameter_base@DV?$string_output_adapter@D@__crt_stdio_output@@@__crt_stdio_output@@IEAA_NXZ 000000003015c070 f i libucrtd:output.obj
 0001:0015b400       ?validate_and_update_state_at_beginning_of_format_character@?$positional_parameter_base@_WV?$stream_output_adapter@_W@__crt_stdio_output@@@__crt_stdio_output@@IEAA_NXZ 000000003015c400 f i libucrtd:output.obj
 0001:0015b790       ?validate_and_update_state_at_beginning_of_format_character@?$positional_parameter_base@_WV?$string_output_adapter@_W@__crt_stdio_output@@@__crt_stdio_output@@IEAA_NXZ 000000003015c790 f i libucrtd:output.obj
 0001:0015bb20       ?validate_and_update_state_at_beginning_of_format_character@?$standard_base@DV?$stream_output_adapter@D@__crt_stdio_output@@@__crt_stdio_output@@IEAA_NXZ 000000003015cb20 f i libucrtd:output.obj
 0001:0015bb30       ?validate_and_update_state_at_beginning_of_format_character@?$standard_base@DV?$string_output_adapter@D@__crt_stdio_output@@@__crt_stdio_output@@IEAA_NXZ 000000003015cb30 f i libucrtd:output.obj
 0001:0015bb40       ?validate_and_update_state_at_beginning_of_format_character@?$standard_base@_WV?$stream_output_adapter@_W@__crt_stdio_output@@@__crt_stdio_output@@IEAA_NXZ 000000003015cb40 f i libucrtd:output.obj
 0001:0015bb50       ?validate_and_update_state_at_beginning_of_format_character@?$standard_base@_WV?$string_output_adapter@_W@__crt_stdio_output@@@__crt_stdio_output@@IEAA_NXZ 000000003015cb50 f i libucrtd:output.obj
 0001:0015bb60       ?validate_and_update_state_at_end_of_format_string@?$format_validation_base@DV?$stream_output_adapter@D@__crt_stdio_output@@@__crt_stdio_output@@IEBA_NXZ 000000003015cb60 f i libucrtd:output.obj
 0001:0015bc50       ?validate_and_update_state_at_end_of_format_string@?$format_validation_base@DV?$string_output_adapter@D@__crt_stdio_output@@@__crt_stdio_output@@IEBA_NXZ 000000003015cc50 f i libucrtd:output.obj
 0001:0015bd40       ?validate_and_update_state_at_end_of_format_string@?$format_validation_base@_WV?$stream_output_adapter@_W@__crt_stdio_output@@@__crt_stdio_output@@IEBA_NXZ 000000003015cd40 f i libucrtd:output.obj
 0001:0015be30       ?validate_and_update_state_at_end_of_format_string@?$format_validation_base@_WV?$string_output_adapter@_W@__crt_stdio_output@@@__crt_stdio_output@@IEBA_NXZ 000000003015ce30 f i libucrtd:output.obj
 0001:0015bf20       ?validate_and_update_state_at_end_of_format_string@?$positional_parameter_base@DV?$stream_output_adapter@D@__crt_stdio_output@@@__crt_stdio_output@@IEAA_NXZ 000000003015cf20 f i libucrtd:output.obj
 0001:0015c180       ?validate_and_update_state_at_end_of_format_string@?$positional_parameter_base@DV?$string_output_adapter@D@__crt_stdio_output@@@__crt_stdio_output@@IEAA_NXZ 000000003015d180 f i libucrtd:output.obj
 0001:0015c3e0       ?validate_and_update_state_at_end_of_format_string@?$positional_parameter_base@_WV?$stream_output_adapter@_W@__crt_stdio_output@@@__crt_stdio_output@@IEAA_NXZ 000000003015d3e0 f i libucrtd:output.obj
 0001:0015c640       ?validate_and_update_state_at_end_of_format_string@?$positional_parameter_base@_WV?$string_output_adapter@_W@__crt_stdio_output@@@__crt_stdio_output@@IEAA_NXZ 000000003015d640 f i libucrtd:output.obj
 0001:0015c8a0       ?validate_and_update_state_at_end_of_format_string@?$standard_base@DV?$stream_output_adapter@D@__crt_stdio_output@@@__crt_stdio_output@@IEBA_NXZ 000000003015d8a0 f i libucrtd:output.obj
 0001:0015c8b0       ?validate_and_update_state_at_end_of_format_string@?$standard_base@DV?$string_output_adapter@D@__crt_stdio_output@@@__crt_stdio_output@@IEBA_NXZ 000000003015d8b0 f i libucrtd:output.obj
 0001:0015c8c0       ?validate_and_update_state_at_end_of_format_string@?$standard_base@_WV?$stream_output_adapter@_W@__crt_stdio_output@@@__crt_stdio_output@@IEBA_NXZ 000000003015d8c0 f i libucrtd:output.obj
 0001:0015c8d0       ?validate_and_update_state_at_end_of_format_string@?$standard_base@_WV?$string_output_adapter@_W@__crt_stdio_output@@@__crt_stdio_output@@IEBA_NXZ 000000003015d8d0 f i libucrtd:output.obj
 0001:0015c8e0       ?validate_state_for_type_case_a@?$positional_parameter_base@DV?$stream_output_adapter@D@__crt_stdio_output@@@__crt_stdio_output@@IEAA_NXZ 000000003015d8e0 f i libucrtd:output.obj
 0001:0015ca60       ?validate_state_for_type_case_a@?$positional_parameter_base@DV?$string_output_adapter@D@__crt_stdio_output@@@__crt_stdio_output@@IEAA_NXZ 000000003015da60 f i libucrtd:output.obj
 0001:0015cbe0       ?validate_state_for_type_case_a@?$positional_parameter_base@_WV?$stream_output_adapter@_W@__crt_stdio_output@@@__crt_stdio_output@@IEAA_NXZ 000000003015dbe0 f i libucrtd:output.obj
 0001:0015cd60       ?validate_state_for_type_case_a@?$positional_parameter_base@_WV?$string_output_adapter@_W@__crt_stdio_output@@@__crt_stdio_output@@IEAA_NXZ 000000003015dd60 f i libucrtd:output.obj
 0001:0015cee0       ?validate_state_for_type_case_a@?$standard_base@DV?$stream_output_adapter@D@__crt_stdio_output@@@__crt_stdio_output@@IEBA_NXZ 000000003015dee0 f i libucrtd:output.obj
 0001:0015cef0       ?validate_state_for_type_case_a@?$standard_base@DV?$string_output_adapter@D@__crt_stdio_output@@@__crt_stdio_output@@IEBA_NXZ 000000003015def0 f i libucrtd:output.obj
 0001:0015cf00       ?validate_state_for_type_case_a@?$standard_base@_WV?$stream_output_adapter@_W@__crt_stdio_output@@@__crt_stdio_output@@IEBA_NXZ 000000003015df00 f i libucrtd:output.obj
 0001:0015cf10       ?validate_state_for_type_case_a@?$standard_base@_WV?$string_output_adapter@_W@__crt_stdio_output@@@__crt_stdio_output@@IEBA_NXZ 000000003015df10 f i libucrtd:output.obj
 0001:0015cf20       ?validate_stream_is_ansi_if_required@?$__acrt_stdio_char_traits@D@@SA_NQEAU_iobuf@@@Z 000000003015df20 f i libucrtd:output.obj
 0001:0015d110       ?validate_stream_is_ansi_if_required@?$__acrt_stdio_char_traits@_W@@SA_NQEAU_iobuf@@@Z 000000003015e110 f i libucrtd:output.obj
 0001:0015d120       ?wide_null_string@?$output_processor@DV?$stream_output_adapter@D@__crt_stdio_output@@V?$format_validation_base@DV?$stream_output_adapter@D@__crt_stdio_output@@@2@@__crt_stdio_output@@CAPEA_WXZ 000000003015e120 f i libucrtd:output.obj
 0001:0015d130       ?wide_null_string@?$output_processor@DV?$stream_output_adapter@D@__crt_stdio_output@@V?$positional_parameter_base@DV?$stream_output_adapter@D@__crt_stdio_output@@@2@@__crt_stdio_output@@CAPEA_WXZ 000000003015e130 f i libucrtd:output.obj
 0001:0015d140       ?wide_null_string@?$output_processor@DV?$stream_output_adapter@D@__crt_stdio_output@@V?$standard_base@DV?$stream_output_adapter@D@__crt_stdio_output@@@2@@__crt_stdio_output@@CAPEA_WXZ 000000003015e140 f i libucrtd:output.obj
 0001:0015d150       ?wide_null_string@?$output_processor@DV?$string_output_adapter@D@__crt_stdio_output@@V?$format_validation_base@DV?$string_output_adapter@D@__crt_stdio_output@@@2@@__crt_stdio_output@@CAPEA_WXZ 000000003015e150 f i libucrtd:output.obj
 0001:0015d160       ?wide_null_string@?$output_processor@DV?$string_output_adapter@D@__crt_stdio_output@@V?$positional_parameter_base@DV?$string_output_adapter@D@__crt_stdio_output@@@2@@__crt_stdio_output@@CAPEA_WXZ 000000003015e160 f i libucrtd:output.obj
 0001:0015d170       ?wide_null_string@?$output_processor@DV?$string_output_adapter@D@__crt_stdio_output@@V?$standard_base@DV?$string_output_adapter@D@__crt_stdio_output@@@2@@__crt_stdio_output@@CAPEA_WXZ 000000003015e170 f i libucrtd:output.obj
 0001:0015d180       ?wide_null_string@?$output_processor@_WV?$stream_output_adapter@_W@__crt_stdio_output@@V?$format_validation_base@_WV?$stream_output_adapter@_W@__crt_stdio_output@@@2@@__crt_stdio_output@@CAPEA_WXZ 000000003015e180 f i libucrtd:output.obj
 0001:0015d190       ?wide_null_string@?$output_processor@_WV?$stream_output_adapter@_W@__crt_stdio_output@@V?$positional_parameter_base@_WV?$stream_output_adapter@_W@__crt_stdio_output@@@2@@__crt_stdio_output@@CAPEA_WXZ 000000003015e190 f i libucrtd:output.obj
 0001:0015d1a0       ?wide_null_string@?$output_processor@_WV?$stream_output_adapter@_W@__crt_stdio_output@@V?$standard_base@_WV?$stream_output_adapter@_W@__crt_stdio_output@@@2@@__crt_stdio_output@@CAPEA_WXZ 000000003015e1a0 f i libucrtd:output.obj
 0001:0015d1b0       ?wide_null_string@?$output_processor@_WV?$string_output_adapter@_W@__crt_stdio_output@@V?$format_validation_base@_WV?$string_output_adapter@_W@__crt_stdio_output@@@2@@__crt_stdio_output@@CAPEA_WXZ 000000003015e1b0 f i libucrtd:output.obj
 0001:0015d1c0       ?wide_null_string@?$output_processor@_WV?$string_output_adapter@_W@__crt_stdio_output@@V?$positional_parameter_base@_WV?$string_output_adapter@_W@__crt_stdio_output@@@2@@__crt_stdio_output@@CAPEA_WXZ 000000003015e1c0 f i libucrtd:output.obj
 0001:0015d1d0       ?wide_null_string@?$output_processor@_WV?$string_output_adapter@_W@__crt_stdio_output@@V?$standard_base@_WV?$string_output_adapter@_W@__crt_stdio_output@@@2@@__crt_stdio_output@@CAPEA_WXZ 000000003015e1d0 f i libucrtd:output.obj
 0001:0015d1e0       ?write_character@?$output_adapter_common@DV?$stream_output_adapter@D@__crt_stdio_output@@@__crt_stdio_output@@QEBAXDQEAH@Z 000000003015e1e0 f i libucrtd:output.obj
 0001:0015d240       ?write_character@?$output_adapter_common@_WV?$stream_output_adapter@_W@__crt_stdio_output@@@__crt_stdio_output@@QEBAX_WQEAH@Z 000000003015e240 f i libucrtd:output.obj
 0001:0015d2a0       ?write_character@?$string_output_adapter@D@__crt_stdio_output@@QEBA_NDQEAH@Z 000000003015e2a0 f i libucrtd:output.obj
 0001:0015d390       ?write_character@?$string_output_adapter@_W@__crt_stdio_output@@QEBA_N_WQEAH@Z 000000003015e390 f i libucrtd:output.obj
 0001:0015d480       ?write_character_without_count_update@?$stream_output_adapter@D@__crt_stdio_output@@QEBA_ND@Z 000000003015e480 f i libucrtd:output.obj
 0001:0015d520       ?write_character_without_count_update@?$stream_output_adapter@_W@__crt_stdio_output@@QEBA_N_W@Z 000000003015e520 f i libucrtd:output.obj
 0001:0015d5d0       ?write_stored_string_tchar@?$output_processor@DV?$stream_output_adapter@D@__crt_stdio_output@@V?$format_validation_base@DV?$stream_output_adapter@D@__crt_stdio_output@@@2@@__crt_stdio_output@@AEAA_ND@Z 000000003015e5d0 f i libucrtd:output.obj
 0001:0015d7e0       ?write_stored_string_tchar@?$output_processor@DV?$stream_output_adapter@D@__crt_stdio_output@@V?$positional_parameter_base@DV?$stream_output_adapter@D@__crt_stdio_output@@@2@@__crt_stdio_output@@AEAA_ND@Z 000000003015e7e0 f i libucrtd:output.obj
 0001:0015d9f0       ?write_stored_string_tchar@?$output_processor@DV?$stream_output_adapter@D@__crt_stdio_output@@V?$standard_base@DV?$stream_output_adapter@D@__crt_stdio_output@@@2@@__crt_stdio_output@@AEAA_ND@Z 000000003015e9f0 f i libucrtd:output.obj
 0001:0015dc00       ?write_stored_string_tchar@?$output_processor@DV?$string_output_adapter@D@__crt_stdio_output@@V?$format_validation_base@DV?$string_output_adapter@D@__crt_stdio_output@@@2@@__crt_stdio_output@@AEAA_ND@Z 000000003015ec00 f i libucrtd:output.obj
 0001:0015de10       ?write_stored_string_tchar@?$output_processor@DV?$string_output_adapter@D@__crt_stdio_output@@V?$positional_parameter_base@DV?$string_output_adapter@D@__crt_stdio_output@@@2@@__crt_stdio_output@@AEAA_ND@Z 000000003015ee10 f i libucrtd:output.obj
 0001:0015e020       ?write_stored_string_tchar@?$output_processor@DV?$string_output_adapter@D@__crt_stdio_output@@V?$standard_base@DV?$string_output_adapter@D@__crt_stdio_output@@@2@@__crt_stdio_output@@AEAA_ND@Z 000000003015f020 f i libucrtd:output.obj
 0001:0015e230       ?write_stored_string_tchar@?$output_processor@_WV?$stream_output_adapter@_W@__crt_stdio_output@@V?$format_validation_base@_WV?$stream_output_adapter@_W@__crt_stdio_output@@@2@@__crt_stdio_output@@AEAA_N_W@Z 000000003015f230 f i libucrtd:output.obj
 0001:0015e3d0       ?write_stored_string_tchar@?$output_processor@_WV?$stream_output_adapter@_W@__crt_stdio_output@@V?$positional_parameter_base@_WV?$stream_output_adapter@_W@__crt_stdio_output@@@2@@__crt_stdio_output@@AEAA_N_W@Z 000000003015f3d0 f i libucrtd:output.obj
 0001:0015e570       ?write_stored_string_tchar@?$output_processor@_WV?$stream_output_adapter@_W@__crt_stdio_output@@V?$standard_base@_WV?$stream_output_adapter@_W@__crt_stdio_output@@@2@@__crt_stdio_output@@AEAA_N_W@Z 000000003015f570 f i libucrtd:output.obj
 0001:0015e710       ?write_stored_string_tchar@?$output_processor@_WV?$string_output_adapter@_W@__crt_stdio_output@@V?$format_validation_base@_WV?$string_output_adapter@_W@__crt_stdio_output@@@2@@__crt_stdio_output@@AEAA_N_W@Z 000000003015f710 f i libucrtd:output.obj
 0001:0015e8b0       ?write_stored_string_tchar@?$output_processor@_WV?$string_output_adapter@_W@__crt_stdio_output@@V?$positional_parameter_base@_WV?$string_output_adapter@_W@__crt_stdio_output@@@2@@__crt_stdio_output@@AEAA_N_W@Z 000000003015f8b0 f i libucrtd:output.obj
 0001:0015ea50       ?write_stored_string_tchar@?$output_processor@_WV?$string_output_adapter@_W@__crt_stdio_output@@V?$standard_base@_WV?$string_output_adapter@_W@__crt_stdio_output@@@2@@__crt_stdio_output@@AEAA_N_W@Z 000000003015fa50 f i libucrtd:output.obj
 0001:0015ebf0       ?write_string@?$stream_output_adapter@D@__crt_stdio_output@@QEBAXQEBDHQEAHAEAV__crt_deferred_errno_cache@@@Z 000000003015fbf0 f i libucrtd:output.obj
 0001:0015ec90       ?write_string@?$stream_output_adapter@_W@__crt_stdio_output@@QEBAXQEB_WHQEAHAEAV__crt_deferred_errno_cache@@@Z 000000003015fc90 f i libucrtd:output.obj
 0001:0015ed30       ?write_string@?$string_output_adapter@D@__crt_stdio_output@@QEBAXQEBDHQEAHAEAV__crt_deferred_errno_cache@@@Z 000000003015fd30 f i libucrtd:output.obj
 0001:0015eef0       ?write_string@?$string_output_adapter@_W@__crt_stdio_output@@QEBAXQEB_WHQEAHAEAV__crt_deferred_errno_cache@@@Z 000000003015fef0 f i libucrtd:output.obj
 0001:0015f0c0       ?write_string_impl@?$output_adapter_common@DV?$stream_output_adapter@D@__crt_stdio_output@@@__crt_stdio_output@@IEBAXQEBDHQEAHAEAV__crt_deferred_errno_cache@@@Z 00000000301600c0 f i libucrtd:output.obj
 0001:0015f1d0       ?write_string_impl@?$output_adapter_common@_WV?$stream_output_adapter@_W@__crt_stdio_output@@@__crt_stdio_output@@IEBAXQEB_WHQEAHAEAV__crt_deferred_errno_cache@@@Z 00000000301601d0 f i libucrtd:output.obj
 0001:0015f2e0       __acrt_isleadbyte_l_noupdate 00000000301602e0 f i libucrtd:output.obj
 0001:0015f320       __acrt_locale_changed      0000000030160320 f i libucrtd:output.obj
 0001:0015f350       __acrt_locale_get_ctype_array_value 0000000030160350 f i libucrtd:output.obj
 0001:0015f3a0       __stdio_common_vfprintf    00000000301603a0 f   libucrtd:output.obj
 0001:0015f3f0       __stdio_common_vfprintf_p  00000000301603f0 f   libucrtd:output.obj
 0001:0015f440       __stdio_common_vfprintf_s  0000000030160440 f   libucrtd:output.obj
 0001:0015f490       __stdio_common_vfwprintf   0000000030160490 f   libucrtd:output.obj
 0001:0015f4e0       __stdio_common_vfwprintf_p 00000000301604e0 f   libucrtd:output.obj
 0001:0015f530       __stdio_common_vfwprintf_s 0000000030160530 f   libucrtd:output.obj
 0001:0015f580       __stdio_common_vsnprintf_s 0000000030160580 f   libucrtd:output.obj
 0001:0015f5f0       __stdio_common_vsnwprintf_s 00000000301605f0 f   libucrtd:output.obj
 0001:0015f660       __stdio_common_vsprintf    0000000030160660 f   libucrtd:output.obj
 0001:0015f6c0       __stdio_common_vsprintf_p  00000000301606c0 f   libucrtd:output.obj
 0001:0015f720       __stdio_common_vsprintf_s  0000000030160720 f   libucrtd:output.obj
 0001:0015f780       __stdio_common_vswprintf   0000000030160780 f   libucrtd:output.obj
 0001:0015f7e0       __stdio_common_vswprintf_p 00000000301607e0 f   libucrtd:output.obj
 0001:0015f840       __stdio_common_vswprintf_s 0000000030160840 f   libucrtd:output.obj
 0001:0015f8a0       _ctype_fast_check_internal 00000000301608a0 f i libucrtd:output.obj
 0001:0015f8d0       _isdigit_fast_internal     00000000301608d0 f i libucrtd:output.obj
 0001:0015f900       _tolower_fast_internal     0000000030160900 f i libucrtd:output.obj
 0001:0015f930       ??$is_overflow_condition@K@__crt_strtox@@YA_NIK@Z 0000000030160930 f i libucrtd:atox.obj
 0001:0015f9b0       ??$is_overflow_condition@_K@__crt_strtox@@YA_NI_K@Z 00000000301609b0 f i libucrtd:atox.obj
 0001:0015fa40       ??$make_c_string_character_source@D$$T@__crt_strtox@@YA?AV?$c_string_character_source@D@0@QEBD$$T@Z 0000000030160a40 f i libucrtd:atox.obj
 0001:0015fa80       ??$make_c_string_character_source@_W$$T@__crt_strtox@@YA?AV?$c_string_character_source@_W@0@QEB_W$$T@Z 0000000030160a80 f i libucrtd:atox.obj
 0001:0015fac0       ??$parse_integer@KV?$c_string_character_source@D@__crt_strtox@@@__crt_strtox@@YAKQEAU__crt_locale_pointers@@V?$c_string_character_source@D@0@H_N@Z 0000000030160ac0 f i libucrtd:atox.obj
 0001:00160080       ??$parse_integer@KV?$c_string_character_source@_W@__crt_strtox@@@__crt_strtox@@YAKQEAU__crt_locale_pointers@@V?$c_string_character_source@_W@0@H_N@Z 0000000030161080 f i libucrtd:atox.obj
 0001:00160660       ??$parse_integer@_KV?$c_string_character_source@D@__crt_strtox@@@__crt_strtox@@YA_KQEAU__crt_locale_pointers@@V?$c_string_character_source@D@0@H_N@Z 0000000030161660 f i libucrtd:atox.obj
 0001:00160cc0       ??$parse_integer@_KV?$c_string_character_source@_W@__crt_strtox@@@__crt_strtox@@YA_KQEAU__crt_locale_pointers@@V?$c_string_character_source@_W@0@H_N@Z 0000000030161cc0 f i libucrtd:atox.obj
 0001:00161330       ??$parse_integer_from_string@JD$$T@__crt_strtox@@YAJQEBD$$THQEAU__crt_locale_pointers@@@Z 0000000030162330 f i libucrtd:atox.obj
 0001:001613a0       ??$parse_integer_from_string@J_W$$T@__crt_strtox@@YAJQEB_W$$THQEAU__crt_locale_pointers@@@Z 00000000301623a0 f i libucrtd:atox.obj
 0001:00161410       ??$parse_integer_from_string@_JD$$T@__crt_strtox@@YA_JQEBD$$THQEAU__crt_locale_pointers@@@Z 0000000030162410 f i libucrtd:atox.obj
 0001:00161480       ??$parse_integer_from_string@_J_W$$T@__crt_strtox@@YA_JQEB_W$$THQEAU__crt_locale_pointers@@@Z 0000000030162480 f i libucrtd:atox.obj
 0001:001614f0       ??0?$c_string_character_source@D@__crt_strtox@@QEAA@QEBDQEAPEBD@Z 00000000301624f0 f i libucrtd:atox.obj
 0001:00161550       ??0?$c_string_character_source@_W@__crt_strtox@@QEAA@QEB_WQEAPEB_W@Z 0000000030162550 f i libucrtd:atox.obj
 0001:001615b0       ??1?$c_string_character_source@D@__crt_strtox@@QEAA@XZ 00000000301625b0 f i libucrtd:atox.obj
 0001:001615e0       ??1?$c_string_character_source@_W@__crt_strtox@@QEAA@XZ 00000000301625e0 f i libucrtd:atox.obj
 0001:00161610       ?get@?$c_string_character_source@D@__crt_strtox@@QEAADXZ 0000000030162610 f i libucrtd:atox.obj
 0001:00161650       ?get@?$c_string_character_source@_W@__crt_strtox@@QEAA_WXZ 0000000030162650 f i libucrtd:atox.obj
 0001:001616a0       ?is_space@__crt_strtox@@YA_NDQEAU__crt_locale_pointers@@@Z 00000000301626a0 f i libucrtd:atox.obj
 0001:00161700       ?is_space@__crt_strtox@@YA_N_WPEAU__crt_locale_pointers@@@Z 0000000030162700 f i libucrtd:atox.obj
 0001:00161750       ?maximum_signed_value@__crt_strtox@@YAJK@Z 0000000030162750 f i libucrtd:atox.obj
 0001:00161760       ?maximum_signed_value@__crt_strtox@@YA_J_K@Z 0000000030162760 f i libucrtd:atox.obj
 0001:00161780       ?minimum_signed_value@__crt_strtox@@YAJK@Z 0000000030162780 f i libucrtd:atox.obj
 0001:00161790       ?minimum_signed_value@__crt_strtox@@YA_J_K@Z 0000000030162790 f i libucrtd:atox.obj
 0001:001617b0       ?parse_digit@__crt_strtox@@YAID@Z 00000000301627b0 f i libucrtd:atox.obj
 0001:00161830       ?parse_digit@__crt_strtox@@YAI_W@Z 0000000030162830 f i libucrtd:atox.obj
 0001:001618a0       ?restore_state@?$c_string_character_source@D@__crt_strtox@@QEAA_NQEBD@Z 00000000301628a0 f i libucrtd:atox.obj
 0001:001618c0       ?restore_state@?$c_string_character_source@_W@__crt_strtox@@QEAA_NQEB_W@Z 00000000301628c0 f i libucrtd:atox.obj
 0001:001618e0       ?save_state@?$c_string_character_source@D@__crt_strtox@@QEBAPEBDXZ 00000000301628e0 f i libucrtd:atox.obj
 0001:00161900       ?save_state@?$c_string_character_source@_W@__crt_strtox@@QEBAPEB_WXZ 0000000030162900 f i libucrtd:atox.obj
 0001:00161920       ?unget@?$c_string_character_source@D@__crt_strtox@@QEAAXD@Z 0000000030162920 f i libucrtd:atox.obj
 0001:00161a30       ?unget@?$c_string_character_source@_W@__crt_strtox@@QEAAX_W@Z 0000000030162a30 f i libucrtd:atox.obj
 0001:00161b40       ?validate@?$c_string_character_source@D@__crt_strtox@@QEBA_NXZ 0000000030162b40 f i libucrtd:atox.obj
 0001:00161c30       ?validate@?$c_string_character_source@_W@__crt_strtox@@QEBA_NXZ 0000000030162c30 f i libucrtd:atox.obj
 0001:00161d20       ?wide_character_to_digit@__crt_strtox@@YAH_W@Z 0000000030162d20 f i libucrtd:atox.obj
 0001:00162160       __acrt_get_locale_data_prefix 0000000030163160 f i libucrtd:atox.obj
 0001:00162190       __ascii_iswalpha           0000000030163190 f i libucrtd:atox.obj
 0001:001621e0       __ascii_toupper            00000000301631e0 f i libucrtd:atox.obj
 0001:00162210       __ascii_towupper           0000000030163210 f i libucrtd:atox.obj
 0001:00162230       _atoi64                    0000000030163230 f   libucrtd:atox.obj
 0001:00162260       _atoi64_l                  0000000030163260 f   libucrtd:atox.obj
 0001:001622a0       _atoi_l                    00000000301632a0 f   libucrtd:atox.obj
 0001:001622e0       _atol_l                    00000000301632e0 f   libucrtd:atox.obj
 0001:00162320       _atoll_l                   0000000030163320 f   libucrtd:atox.obj
 0001:00162360       _chvalidchk_l              0000000030163360 f i libucrtd:atox.obj
 0001:001623a0       _ischartype_l              00000000301633a0 f i libucrtd:atox.obj
 0001:00162450       _wtoi                      0000000030163450 f   libucrtd:atox.obj
 0001:00162480       _wtoi64                    0000000030163480 f   libucrtd:atox.obj
 0001:001624b0       _wtoi64_l                  00000000301634b0 f   libucrtd:atox.obj
 0001:001624f0       _wtoi_l                    00000000301634f0 f   libucrtd:atox.obj
 0001:00162530       _wtol                      0000000030163530 f   libucrtd:atox.obj
 0001:00162560       _wtol_l                    0000000030163560 f   libucrtd:atox.obj
 0001:001625a0       _wtoll                     00000000301635a0 f   libucrtd:atox.obj
 0001:001625d0       _wtoll_l                   00000000301635d0 f   libucrtd:atox.obj
 0001:00162610       atoi                       0000000030163610 f   libucrtd:atox.obj
 0001:00162640       atol                       0000000030163640 f   libucrtd:atox.obj
 0001:00162670       atoll                      0000000030163670 f   libucrtd:atox.obj
 0001:00162a80       __ascii_tolower            0000000030163a80 f i libucrtd:tolower_toupper.obj
 0001:00162ab0       _tolower                   0000000030163ab0 f   libucrtd:tolower_toupper.obj
 0001:00162ac0       _tolower_l                 0000000030163ac0 f   libucrtd:tolower_toupper.obj
 0001:00162af0       _toupper                   0000000030163af0 f   libucrtd:tolower_toupper.obj
 0001:00162b00       _toupper_fast_internal     0000000030163b00 f i libucrtd:tolower_toupper.obj
 0001:00162b30       _toupper_l                 0000000030163b30 f   libucrtd:tolower_toupper.obj
 0001:00162b60       tolower                    0000000030163b60 f   libucrtd:tolower_toupper.obj
 0001:00162bb0       toupper                    0000000030163bb0 f   libucrtd:tolower_toupper.obj
 0001:00162c00       cos                        0000000030163c00 f   libucrtd:cos.obj
 0001:001632e0       sin                        00000000301642e0 f   libucrtd:sin.obj
 0001:001639b0       _abs64                     00000000301649b0 f   libucrtd:abs.obj
 0001:001639f0       abs                        00000000301649f0 f   libucrtd:abs.obj
 0001:00163a50       fabs                       0000000030164a50 f   libucrtd:fabs.obj
 0001:00163a70       sqrt                       0000000030164a70 f   libucrtd:sqrt.obj
 0001:00163c80       atan2                      0000000030164c80 f   libucrtd:atan2.obj
 0001:00165060       strncpy                    0000000030166060 f   libucrtd:strncpy.obj
 0001:00165220       cosf                       0000000030166220 f   libucrtd:cosf.obj
 0001:00165860       floorf                     0000000030166860 f   libucrtd:floorf.obj
 0001:00165a00       sinf                       0000000030166a00 f   libucrtd:sinf.obj
 0001:001662c0       acos                       00000000301672c0 f   libucrtd:acos.obj
 0001:001669d0       pow                        00000000301679d0 f   libucrtd:pow.obj
 0001:00168610       floor                      0000000030169610 f   libucrtd:floor.obj
 0001:00168830       malloc                     0000000030169830 f   libucrtd:malloc.obj
 0001:00168860       powf                       0000000030169860 f   libucrtd:powf.obj
 0001:00169ae0       _initterm                  000000003016aae0 f   libucrtd:initterm.obj
 0001:00169b60       _initterm_e                000000003016ab60 f   libucrtd:initterm.obj
 0001:00169c70       _seh_filter_dll            000000003016ac70 f   libucrtd:exception_filter.obj
 0001:00169cb0       _seh_filter_exe            000000003016acb0 f   libucrtd:exception_filter.obj
 0001:0016a000       ??$?B$$A6AXPEAXK0@Z@__crt_fast_encoded_nullptr_t@@QEBAP6AXPEAXK0@ZXZ 000000003016b000 f i libucrtd:exit.obj
 0001:0016a0e0       ??$__crt_fast_decode_pointer@P6AXPEAXK0@Z@@YAP6AXPEAXK0@ZQ6AX0K0@Z@Z 000000003016b0e0 f i libucrtd:exit.obj
 0001:0016a130       ??$__crt_fast_encode_pointer@P6AXPEAXK0@Z@@YAP6AXPEAXK0@ZQ6AX0K0@Z@Z 000000003016b130 f i libucrtd:exit.obj
 0001:0016a180       ??$__crt_get_proc_address@P6AXI@Z@@YAP6AXI@ZQEAUHINSTANCE__@@QEBD@Z 000000003016b180 f i libucrtd:exit.obj
 0001:0016a270       ??0?$__crt_unique_handle_t@U__crt_hmodule_traits@@@@QEAA@QEAUHINSTANCE__@@@Z 000000003016b270 f i libucrtd:exit.obj
 0001:0016a2a0       ??1?$__crt_unique_handle_t@U__crt_hmodule_traits@@@@QEAA@XZ 000000003016b2a0 f i libucrtd:exit.obj
 0001:0016a440       ?__acrt_select_exit_lock@@YA?AW4__acrt_lock_id@@XZ 000000003016b440 f i libucrtd:exit.obj
 0001:0016a450       ?__crt_fast_encode_pointer@@YA?AU__crt_fast_encoded_nullptr_t@@$$T@Z 000000003016b450 f i libucrtd:exit.obj
 0001:0016a470       ?__crt_rotate_pointer_value@@YA_K_KH@Z 000000003016b470 f i libucrtd:exit.obj
 0001:0016a4b0       ?close@?$__crt_unique_handle_t@U__crt_hmodule_traits@@@@QEAAXXZ 000000003016b4b0 f i libucrtd:exit.obj
 0001:0016a500       ?close@__crt_hmodule_traits@@SA_NPEAUHINSTANCE__@@@Z 000000003016b500 f i libucrtd:exit.obj
 0001:0016a650       ?get@?$__crt_unique_handle_t@U__crt_hmodule_traits@@@@QEBAPEAUHINSTANCE__@@XZ 000000003016b650 f i libucrtd:exit.obj
 0001:0016a670       ?get_address_of@?$__crt_unique_handle_t@U__crt_hmodule_traits@@@@QEAAPEAPEAUHINSTANCE__@@XZ 000000003016b670 f i libucrtd:exit.obj
 0001:0016a680       ?get_invalid_value@__crt_hmodule_traits@@SAPEAUHINSTANCE__@@XZ 000000003016b680 f i libucrtd:exit.obj
 0001:0016a8a0       _Exit                      000000003016b8a0 f   libucrtd:exit.obj
 0001:0016a8d0       __acrt_initialize_thread_local_exit_callback 000000003016b8d0 f   libucrtd:exit.obj
 0001:0016a8f0       _c_exit                    000000003016b8f0 f   libucrtd:exit.obj
 0001:0016a920       _cexit                     000000003016b920 f   libucrtd:exit.obj
 0001:0016a940       _exit                      000000003016b940 f   libucrtd:exit.obj
 0001:0016a970       _is_c_termination_complete 000000003016b970 f   libucrtd:exit.obj
 0001:0016a990       _register_thread_local_exe_atexit_callback 000000003016b990 f   libucrtd:exit.obj
 0001:0016a9f0       exit                       000000003016b9f0 f   libucrtd:exit.obj
 0001:0016aa20       quick_exit                 000000003016ba20 f   libucrtd:exit.obj
 0001:0016aa50       ??$?RE@__crt_internal_free_policy@@QEBAXQEBE@Z 000000003016ba50 f i libucrtd:argv_parsing.obj
 0001:0016aa80       ??$?RPEAD@__crt_internal_free_policy@@QEBAXQEBQEAD@Z 000000003016ba80 f i libucrtd:argv_parsing.obj
 0001:0016aab0       ??$?RPEA_W@__crt_internal_free_policy@@QEBAXQEBQEA_W@Z 000000003016bab0 f i libucrtd:argv_parsing.obj
 0001:0016b3c0       ??$get_module_file_name@$$TAEAY0BAF@DH@?$__crt_char_traits@D@@SAK$$QEA$$TAEAY0BAF@D$$QEAH@Z 000000003016c3c0 f i libucrtd:argv_parsing.obj
 0001:0016b400       ??$get_module_file_name@$$TAEAY0BAF@_WH@?$__crt_char_traits@_W@@SAK$$QEA$$TAEAY0BAF@_W$$QEAH@Z 000000003016c400 f i libucrtd:argv_parsing.obj
 0001:0016c000       ??$set_program_name@PEAD@?$__crt_char_traits@D@@SAX$$QEAPEAD@Z 000000003016d000 f i libucrtd:argv_parsing.obj
 0001:0016c030       ??$set_program_name@PEA_W@?$__crt_char_traits@_W@@SAX$$QEAPEA_W@Z 000000003016d030 f i libucrtd:argv_parsing.obj
 0001:0016c0c0       ??0?$__crt_unique_heap_ptr@EU__crt_internal_free_policy@@@@QEAA@QEAE@Z 000000003016d0c0 f i libucrtd:argv_parsing.obj
 0001:0016c0f0       ??0?$__crt_unique_heap_ptr@PEADU__crt_internal_free_policy@@@@QEAA@QEAPEAD@Z 000000003016d0f0 f i libucrtd:argv_parsing.obj
 0001:0016c120       ??0?$__crt_unique_heap_ptr@PEA_WU__crt_internal_free_policy@@@@QEAA@QEAPEA_W@Z 000000003016d120 f i libucrtd:argv_parsing.obj
 0001:0016c150       ??1?$__crt_unique_heap_ptr@EU__crt_internal_free_policy@@@@QEAA@XZ 000000003016d150 f i libucrtd:argv_parsing.obj
 0001:0016c170       ??1?$__crt_unique_heap_ptr@PEADU__crt_internal_free_policy@@@@QEAA@XZ 000000003016d170 f i libucrtd:argv_parsing.obj
 0001:0016c190       ??1?$__crt_unique_heap_ptr@PEA_WU__crt_internal_free_policy@@@@QEAA@XZ 000000003016d190 f i libucrtd:argv_parsing.obj
 0001:0016c1b0       ??B?$__crt_unique_heap_ptr@EU__crt_internal_free_policy@@@@QEBA_NXZ 000000003016d1b0 f i libucrtd:argv_parsing.obj
 0001:0016c2b0       ?detach@?$__crt_unique_heap_ptr@EU__crt_internal_free_policy@@@@QEAAPEAEXZ 000000003016d2b0 f i libucrtd:argv_parsing.obj
 0001:0016c2f0       ?detach@?$__crt_unique_heap_ptr@PEADU__crt_internal_free_policy@@@@QEAAPEAPEADXZ 000000003016d2f0 f i libucrtd:argv_parsing.obj
 0001:0016c330       ?detach@?$__crt_unique_heap_ptr@PEA_WU__crt_internal_free_policy@@@@QEAAPEAPEA_WXZ 000000003016d330 f i libucrtd:argv_parsing.obj
 0001:0016c400       ?get@?$__crt_unique_heap_ptr@EU__crt_internal_free_policy@@@@QEBAPEAEXZ 000000003016d400 f i libucrtd:argv_parsing.obj
 0001:0016c420       ?get@?$__crt_unique_heap_ptr@PEADU__crt_internal_free_policy@@@@QEBAPEAPEADXZ 000000003016d420 f i libucrtd:argv_parsing.obj
 0001:0016c440       ?get@?$__crt_unique_heap_ptr@PEA_WU__crt_internal_free_policy@@@@QEBAPEAPEA_WXZ 000000003016d440 f i libucrtd:argv_parsing.obj
 0001:0016c460       ?get_address_of@?$__crt_unique_heap_ptr@PEADU__crt_internal_free_policy@@@@QEAAPEAPEAPEADXZ 000000003016d460 f i libucrtd:argv_parsing.obj
 0001:0016c470       ?get_address_of@?$__crt_unique_heap_ptr@PEA_WU__crt_internal_free_policy@@@@QEAAPEAPEAPEA_WXZ 000000003016d470 f i libucrtd:argv_parsing.obj
 0001:0016c4c0       ?is_valid@?$__crt_unique_heap_ptr@EU__crt_internal_free_policy@@@@QEBA_NXZ 000000003016d4c0 f i libucrtd:argv_parsing.obj
 0001:0016c500       ?release@?$__crt_unique_heap_ptr@EU__crt_internal_free_policy@@@@QEAAXXZ 000000003016d500 f i libucrtd:argv_parsing.obj
 0001:0016c540       ?release@?$__crt_unique_heap_ptr@PEADU__crt_internal_free_policy@@@@QEAAXXZ 000000003016d540 f i libucrtd:argv_parsing.obj
 0001:0016c580       ?release@?$__crt_unique_heap_ptr@PEA_WU__crt_internal_free_policy@@@@QEAAXXZ 000000003016d580 f i libucrtd:argv_parsing.obj
 0001:0016c620       __acrt_allocate_buffer_for_argv 000000003016d620 f   libucrtd:argv_parsing.obj
 0001:0016c780       _configure_narrow_argv     000000003016d780 f   libucrtd:argv_parsing.obj
 0001:0016c7a0       _configure_wide_argv       000000003016d7a0 f   libucrtd:argv_parsing.obj
 0001:0016c7c0       _set_pgmptr                000000003016d7c0 f i libucrtd:argv_parsing.obj
 0001:0016c7e0       _set_wpgmptr               000000003016d7e0 f i libucrtd:argv_parsing.obj
 0001:0016c7f8       ??$?R_W@__crt_internal_free_policy@@QEBAXQEB_W@Z 000000003016d7f8 f i libucrtd:environment_initialization.obj
 0001:0016cf3c       ??$get_environment_from_os@$$V@?$__crt_char_traits@D@@SAPEADXZ 000000003016df3c f i libucrtd:environment_initialization.obj
 0001:0016cf44       ??$get_environment_from_os@$$V@?$__crt_char_traits@_W@@SAPEA_WXZ 000000003016df44 f i libucrtd:environment_initialization.obj
 0001:0016d184       ??$set_variable_in_environment_nolock@PEADH@?$__crt_char_traits@D@@SAH$$QEAPEAD$$QEAH@Z 000000003016e184 f i libucrtd:environment_initialization.obj
 0001:0016d190       ??$set_variable_in_environment_nolock@PEA_WH@?$__crt_char_traits@_W@@SAH$$QEAPEA_W$$QEAH@Z 000000003016e190 f i libucrtd:environment_initialization.obj
 0001:0016d19c       ??$tcscpy_s@PEADAEB_KAEAPEAD@?$__crt_char_traits@D@@SAH$$QEAPEADAEB_KAEAPEAD@Z 000000003016e19c f i libucrtd:environment_initialization.obj
 0001:0016d1b0       ??$tcscpy_s@PEA_WAEB_KAEAPEA_W@?$__crt_char_traits@_W@@SAH$$QEAPEA_WAEB_KAEAPEA_W@Z 000000003016e1b0 f i libucrtd:environment_initialization.obj
 0001:0016d1c4       ??$tcslen@AEAPEAD@?$__crt_char_traits@D@@SA_KAEAPEAD@Z 000000003016e1c4 f i libucrtd:environment_initialization.obj
 0001:0016d1dc       ??$tcslen@AEAPEA_W@?$__crt_char_traits@_W@@SA_KAEAPEA_W@Z 000000003016e1dc f i libucrtd:environment_initialization.obj
 0001:0016d1f4       ??$uninitialize@A6AXAEAPEAPEAD@Z@?$dual_state_global@PEAPEAD@__crt_state_management@@QEAAXA6AXAEAPEAPEAD@Z@Z 000000003016e1f4 f i libucrtd:environment_initialization.obj
 0001:0016d248       ??$uninitialize@A6AXAEAPEAPEA_W@Z@?$dual_state_global@PEAPEA_W@__crt_state_management@@QEAAXA6AXAEAPEAPEA_W@Z@Z 000000003016e248 f i libucrtd:environment_initialization.obj
 0001:0016d2dc       ??0?$__crt_unique_heap_ptr@_WU__crt_internal_free_policy@@@@QEAA@QEA_W@Z 000000003016e2dc f i libucrtd:environment_initialization.obj
 0001:0016d2e4       ??1?$__crt_unique_heap_ptr@_WU__crt_internal_free_policy@@@@QEAA@XZ 000000003016e2e4 f i libucrtd:environment_initialization.obj
 0001:0016d30c       ??B?$__crt_unique_heap_ptr@PEADU__crt_internal_free_policy@@@@QEBA_NXZ 000000003016e30c f i libucrtd:environment_initialization.obj
 0001:0016d318       ??B?$__crt_unique_heap_ptr@PEA_WU__crt_internal_free_policy@@@@QEBA_NXZ 000000003016e318 f i libucrtd:environment_initialization.obj
 0001:0016d324       ??B?$__crt_unique_heap_ptr@_WU__crt_internal_free_policy@@@@QEBA_NXZ 000000003016e324 f i libucrtd:environment_initialization.obj
 0001:0016d330       ?__crt_compute_required_transform_buffer_count@@YA_KIQEBD@Z 000000003016e330 f i libucrtd:environment_initialization.obj
 0001:0016d360       ?__crt_compute_required_transform_buffer_count@@YA_KIQEB_W@Z 000000003016e360 f i libucrtd:environment_initialization.obj
 0001:0016d39c       ?__crt_transform_string@@YA_KIQEBDQEA_W_K@Z 000000003016e39c f i libucrtd:environment_initialization.obj
 0001:0016d3c8       ?__crt_transform_string@@YA_KIQEB_WQEAD_K@Z 000000003016e3c8 f i libucrtd:environment_initialization.obj
 0001:0016d404       ?detach@?$__crt_unique_heap_ptr@DU__crt_internal_free_policy@@@@QEAAPEADXZ 000000003016e404 f i libucrtd:environment_initialization.obj
 0001:0016d410       ?detach@?$__crt_unique_heap_ptr@_WU__crt_internal_free_policy@@@@QEAAPEA_WXZ 000000003016e410 f i libucrtd:environment_initialization.obj
 0001:0016d41c       ?get@?$__crt_unique_heap_ptr@_WU__crt_internal_free_policy@@@@QEBAPEA_WXZ 000000003016e41c f i libucrtd:environment_initialization.obj
 0001:0016d420       ?get_current_state_index@__crt_state_management@@YA_KXZ 000000003016e420 f i libucrtd:environment_initialization.obj
 0001:0016d46c       ?initialize@?$dual_state_global@PEAPEAD@__crt_state_management@@QEAAXQEAPEAD@Z 000000003016e46c f i libucrtd:environment_initialization.obj
 0001:0016d49c       ?initialize@?$dual_state_global@PEAPEA_W@__crt_state_management@@QEAAXQEAPEA_W@Z 000000003016e49c f i libucrtd:environment_initialization.obj
 0001:0016d4cc       ?is_valid@?$__crt_unique_heap_ptr@PEADU__crt_internal_free_policy@@@@QEBA_NXZ 000000003016e4cc f i libucrtd:environment_initialization.obj
 0001:0016d4d8       ?is_valid@?$__crt_unique_heap_ptr@PEA_WU__crt_internal_free_policy@@@@QEBA_NXZ 000000003016e4d8 f i libucrtd:environment_initialization.obj
 0001:0016d4e4       ?is_valid@?$__crt_unique_heap_ptr@_WU__crt_internal_free_policy@@@@QEBA_NXZ 000000003016e4e4 f i libucrtd:environment_initialization.obj
 0001:0016d4fc       ?release@?$__crt_unique_heap_ptr@_WU__crt_internal_free_policy@@@@QEAAXXZ 000000003016e4fc f i libucrtd:environment_initialization.obj
 0001:0016d524       ?value@?$dual_state_global@PEAPEAD@__crt_state_management@@QEAAAEAPEAPEADXZ 000000003016e524 f i libucrtd:environment_initialization.obj
 0001:0016d528       ?value@?$dual_state_global@PEAPEA_W@__crt_state_management@@QEAAAEAPEAPEA_WXZ 000000003016e528 f i libucrtd:environment_initialization.obj
 0001:0016d52c       __dcrt_get_or_create_narrow_environment_nolock 000000003016e52c f   libucrtd:environment_initialization.obj
 0001:0016d578       __dcrt_get_or_create_wide_environment_nolock 000000003016e578 f   libucrtd:environment_initialization.obj
 0001:0016d5c4       __dcrt_uninitialize_environments_nolock 000000003016e5c4 f   libucrtd:environment_initialization.obj
 0001:0016d60c       __p__environ               000000003016e60c f   libucrtd:environment_initialization.obj
 0001:0016d618       __p__wenviron              000000003016e618 f   libucrtd:environment_initialization.obj
 0001:0016d624       _get_initial_narrow_environment 000000003016e624 f   libucrtd:environment_initialization.obj
 0001:0016d688       _get_initial_wide_environment 000000003016e688 f   libucrtd:environment_initialization.obj
 0001:0016d6ec       _initialize_narrow_environment 000000003016e6ec f   libucrtd:environment_initialization.obj
 0001:0016d6f4       _initialize_wide_environment 000000003016e6f4 f   libucrtd:environment_initialization.obj
 0001:0016d6fc       _invoke_watson_if_error    000000003016e6fc f i libucrtd:environment_initialization.obj
 0001:0016d740       ??$?B$$A6AXXZ@__crt_fast_encoded_nullptr_t@@QEBAP6AXXZXZ 000000003016e740 f i libucrtd:onexit.obj
 0001:0016d760       ??$?BP6AXXZ@__crt_fast_encoded_nullptr_t@@QEBAPEAP6AXXZXZ 000000003016e760 f i libucrtd:onexit.obj
 0001:0016d780       ??$?RP6AXXZ@__crt_internal_free_policy@@QEBAXQEBQ6AXXZ@Z 000000003016e780 f i libucrtd:onexit.obj
 0001:0016d950       ??$__crt_fast_decode_pointer@P6AXXZ@@YAP6AXXZQ6AXXZ@Z 000000003016e950 f i libucrtd:onexit.obj
 0001:0016d9a0       ??$__crt_fast_decode_pointer@PEAP6AXXZ@@YAPEAP6AXXZQEAP6AXXZ@Z 000000003016e9a0 f i libucrtd:onexit.obj
 0001:0016d9f0       ??$__crt_fast_encode_pointer@P6AHXZ@@YAP6AHXZQ6AHXZ@Z 000000003016e9f0 f i libucrtd:onexit.obj
 0001:0016da40       ??$__crt_fast_encode_pointer@P6AXXZ@@YAP6AXXZQ6AXXZ@Z 000000003016ea40 f i libucrtd:onexit.obj
 0001:0016da90       ??$__crt_fast_encode_pointer@PEAP6AXXZ@@YAPEAP6AXXZQEAP6AXXZ@Z 000000003016ea90 f i libucrtd:onexit.obj
 0001:0016dc10       ??0?$__crt_unique_heap_ptr@P6AXXZU__crt_internal_free_policy@@@@QEAA@QEAP6AXXZ@Z 000000003016ec10 f i libucrtd:onexit.obj
 0001:0016dc40       ??1?$__crt_unique_heap_ptr@P6AXXZU__crt_internal_free_policy@@@@QEAA@XZ 000000003016ec40 f i libucrtd:onexit.obj
 0001:0016dc60       ??1scoped_global_state_reset@__crt_state_management@@QEAA@XZ 000000003016ec60 f i libucrtd:onexit.obj
 0001:0016e370       ?detach@?$__crt_unique_heap_ptr@P6AXXZU__crt_internal_free_policy@@@@QEAAPEAP6AXXZXZ 000000003016f370 f i libucrtd:onexit.obj
 0001:0016e3b0       ?release@?$__crt_unique_heap_ptr@P6AXXZU__crt_internal_free_policy@@@@QEAAXXZ 000000003016f3b0 f i libucrtd:onexit.obj
 0001:0016e3f0       _crt_at_quick_exit         000000003016f3f0 f   libucrtd:onexit.obj
 0001:0016e420       _crt_atexit                000000003016f420 f   libucrtd:onexit.obj
 0001:0016e450       _execute_onexit_table      000000003016f450 f   libucrtd:onexit.obj
 0001:0016e4a0       _initialize_onexit_table   000000003016f4a0 f   libucrtd:onexit.obj
 0001:0016e540       _register_onexit_function  000000003016f540 f   libucrtd:onexit.obj
 0001:0016e810       ??$?BX@__crt_fast_encoded_nullptr_t@@QEBAPEAXXZ 000000003016f810 f i libucrtd:initialization.obj
 0001:0016e830       ??$__crt_fast_encode_pointer@PEAX@@YAPEAXQEAX@Z 000000003016f830 f i libucrtd:initialization.obj
 0001:0016e970       ?initialize@?$dual_state_global@PEAU__crt_locale_data@@@__crt_state_management@@QEAAXQEAU__crt_locale_data@@@Z 000000003016f970 f i libucrtd:initialization.obj
 0001:0016e9d0       __acrt_initialize          000000003016f9d0 f   libucrtd:initialization.obj
 0001:0016ea00       __acrt_thread_attach       000000003016fa00 f   libucrtd:initialization.obj
 0001:0016ea20       __acrt_thread_detach       000000003016fa20 f   libucrtd:initialization.obj
 0001:0016ea40       __acrt_uninitialize        000000003016fa40 f   libucrtd:initialization.obj
 0001:0016ea80       __acrt_uninitialize_critical 000000003016fa80 f   libucrtd:initialization.obj
 0001:0016eaf0       _get_terminate             000000003016faf0 f   libucrtd:terminate.obj
 0001:0016eb10       set_terminate              000000003016fb10 f   libucrtd:terminate.obj
 0001:0016eb60       terminate                  000000003016fb60 f   libucrtd:terminate.obj
 0001:00171370       _CrtCheckMemory            0000000030172370 f   libucrtd:debug_heap.obj
 0001:00171570       _CrtDoForAllClientObjects  0000000030172570 f   libucrtd:debug_heap.obj
 0001:001716f0       _CrtDumpMemoryLeaks        00000000301726f0 f   libucrtd:debug_heap.obj
 0001:001717e0       _CrtGetAllocHook           00000000301727e0 f   libucrtd:debug_heap.obj
 0001:001717f0       _CrtGetDumpClient          00000000301727f0 f   libucrtd:debug_heap.obj
 0001:00171800       _CrtIsMemoryBlock          0000000030172800 f   libucrtd:debug_heap.obj
 0001:00171990       _CrtIsValidHeapPointer     0000000030172990 f   libucrtd:debug_heap.obj
 0001:001719e0       _CrtIsValidPointer         00000000301729e0 f   libucrtd:debug_heap.obj
 0001:00171a20       _CrtMemCheckpoint          0000000030172a20 f   libucrtd:debug_heap.obj
 0001:00171d40       _CrtMemDifference          0000000030172d40 f   libucrtd:debug_heap.obj
 0001:00172170       _CrtMemDumpAllObjectsSince 0000000030173170 f   libucrtd:debug_heap.obj
 0001:001721e0       _CrtMemDumpStatistics      00000000301731e0 f   libucrtd:debug_heap.obj
 0001:001723e0       _CrtReportBlockType        00000000301733e0 f   libucrtd:debug_heap.obj
 0001:00172420       _CrtSetAllocHook           0000000030173420 f   libucrtd:debug_heap.obj
 0001:00172460       _CrtSetBreakAlloc          0000000030173460 f   libucrtd:debug_heap.obj
 0001:00172490       _CrtSetDbgBlockType        0000000030173490 f   libucrtd:debug_heap.obj
 0001:00172550       _CrtSetDbgFlag             0000000030173550 f   libucrtd:debug_heap.obj
 0001:00172700       _CrtSetDumpClient          0000000030173700 f   libucrtd:debug_heap.obj
 0001:00172740       __p__crtBreakAlloc         0000000030173740 f   libucrtd:debug_heap.obj
 0001:00172750       __p__crtDbgFlag            0000000030173750 f   libucrtd:debug_heap.obj
 0001:00172760       _aligned_free_dbg          0000000030173760 f   libucrtd:debug_heap.obj
 0001:00172880       _aligned_malloc_dbg        0000000030173880 f   libucrtd:debug_heap.obj
 0001:001728d0       _aligned_msize_dbg         00000000301738d0 f   libucrtd:debug_heap.obj
 0001:00172b10       _aligned_offset_malloc_dbg 0000000030173b10 f   libucrtd:debug_heap.obj
 0001:00172eb0       _aligned_offset_realloc_dbg 0000000030173eb0 f   libucrtd:debug_heap.obj
 0001:00173490       _aligned_offset_recalloc_dbg 0000000030174490 f   libucrtd:debug_heap.obj
 0001:001735f0       _aligned_realloc_dbg       00000000301745f0 f   libucrtd:debug_heap.obj
 0001:00173650       _aligned_recalloc_dbg      0000000030174650 f   libucrtd:debug_heap.obj
 0001:001736c0       _calloc_dbg                00000000301746c0 f   libucrtd:debug_heap.obj
 0001:00173780       _expand_dbg                0000000030174780 f   libucrtd:debug_heap.obj
 0001:00173900       _free_dbg                  0000000030174900 f   libucrtd:debug_heap.obj
 0001:00173980       _invoke_watson_if_oneof    0000000030174980 f i libucrtd:debug_heap.obj
 0001:00173a00       _malloc_dbg                0000000030174a00 f   libucrtd:debug_heap.obj
 0001:00173a50       _msize_dbg                 0000000030174a50 f   libucrtd:debug_heap.obj
 0001:00173c50       _realloc_dbg               0000000030174c50 f   libucrtd:debug_heap.obj
 0001:00173ce0       _recalloc_dbg              0000000030174ce0 f   libucrtd:debug_heap.obj
 0001:00174420       strcpy_s                   0000000030175420 f   libucrtd:strcpy_s.obj
 0001:00174460       _set_abort_behavior        0000000030175460 f   libucrtd:abort.obj
 0001:001744b0       abort                      00000000301754b0 f   libucrtd:abort.obj
 0001:00174560       strncmp                    0000000030175560 f   libucrtd:strncmp.obj
 0001:00174600       ??$?RU?$__crt_report_hook_node@D@@@__crt_internal_free_policy@@QEBAXQEBU?$__crt_report_hook_node@D@@@Z 0000000030175600 f i libucrtd:dbgrpt.obj
 0001:00174630       ??$?RU?$__crt_report_hook_node@_W@@@__crt_internal_free_policy@@QEBAXQEBU?$__crt_report_hook_node@_W@@@Z 0000000030175630 f i libucrtd:dbgrpt.obj
 0001:00175d10       ??$get_module_file_name@AEAPEAUHINSTANCE__@@AEAY0BAF@DK@?$__crt_char_traits@D@@SAKAEAPEAUHINSTANCE__@@AEAY0BAF@D$$QEAK@Z 0000000030176d10 f i libucrtd:dbgrpt.obj
 0001:00175d50       ??$get_module_file_name@AEAPEAUHINSTANCE__@@AEAY0BAF@_WK@?$__crt_char_traits@_W@@SAKAEAPEAUHINSTANCE__@@AEAY0BAF@_W$$QEAK@Z 0000000030176d50 f i libucrtd:dbgrpt.obj
 0001:00175d90       ??$tcscpy_s@AEAY0BAF@D_KPEBD@?$__crt_char_traits@D@@SAHAEAY0BAF@D$$QEA_K$$QEAPEBD@Z 0000000030176d90 f i libucrtd:dbgrpt.obj
 0001:00175dd0       ??$tcscpy_s@AEAY0BAF@_W_KPEB_W@?$__crt_char_traits@_W@@SAHAEAY0BAF@_W$$QEA_K$$QEAPEB_W@Z 0000000030176dd0 f i libucrtd:dbgrpt.obj
 0001:00175e10       ??$tcslen@AEAY0BAF@D@?$__crt_char_traits@D@@SA_KAEAY0BAF@D@Z 0000000030176e10 f i libucrtd:dbgrpt.obj
 0001:00175e30       ??$tcslen@AEAY0BAF@_W@?$__crt_char_traits@_W@@SA_KAEAY0BAF@_W@Z 0000000030176e30 f i libucrtd:dbgrpt.obj
 0001:00175e50       ??$tcslen@AEBQEBD@?$__crt_char_traits@D@@SA_KAEBQEBD@Z 0000000030176e50 f i libucrtd:dbgrpt.obj
 0001:00175e80       ??$tcslen@AEBQEB_W@?$__crt_char_traits@_W@@SA_KAEBQEB_W@Z 0000000030176e80 f i libucrtd:dbgrpt.obj
 0001:00175ff0       ??0?$__crt_unique_heap_ptr@U?$__crt_report_hook_node@D@@U__crt_internal_free_policy@@@@QEAA@QEAU?$__crt_report_hook_node@D@@@Z 0000000030176ff0 f i libucrtd:dbgrpt.obj
 0001:00176020       ??0?$__crt_unique_heap_ptr@U?$__crt_report_hook_node@_W@@U__crt_internal_free_policy@@@@QEAA@QEAU?$__crt_report_hook_node@_W@@@Z 0000000030177020 f i libucrtd:dbgrpt.obj
 0001:00176050       ??1?$__crt_unique_heap_ptr@U?$__crt_report_hook_node@D@@U__crt_internal_free_policy@@@@QEAA@XZ 0000000030177050 f i libucrtd:dbgrpt.obj
 0001:00176070       ??1?$__crt_unique_heap_ptr@U?$__crt_report_hook_node@_W@@U__crt_internal_free_policy@@@@QEAA@XZ 0000000030177070 f i libucrtd:dbgrpt.obj
 0001:00176090       ??B?$__crt_unique_heap_ptr@U?$__crt_report_hook_node@D@@U__crt_internal_free_policy@@@@QEBA_NXZ 0000000030177090 f i libucrtd:dbgrpt.obj
 0001:001760b0       ??B?$__crt_unique_heap_ptr@U?$__crt_report_hook_node@_W@@U__crt_internal_free_policy@@@@QEBA_NXZ 00000000301770b0 f i libucrtd:dbgrpt.obj
 0001:00176910       ?detach@?$__crt_unique_heap_ptr@U?$__crt_report_hook_node@D@@U__crt_internal_free_policy@@@@QEAAPEAU?$__crt_report_hook_node@D@@XZ 0000000030177910 f i libucrtd:dbgrpt.obj
 0001:00176950       ?detach@?$__crt_unique_heap_ptr@U?$__crt_report_hook_node@_W@@U__crt_internal_free_policy@@@@QEAAPEAU?$__crt_report_hook_node@_W@@XZ 0000000030177950 f i libucrtd:dbgrpt.obj
 0001:00176990       ?get@?$__crt_unique_heap_ptr@U?$__crt_report_hook_node@D@@U__crt_internal_free_policy@@@@QEBAPEAU?$__crt_report_hook_node@D@@XZ 0000000030177990 f i libucrtd:dbgrpt.obj
 0001:001769b0       ?get@?$__crt_unique_heap_ptr@U?$__crt_report_hook_node@_W@@U__crt_internal_free_policy@@@@QEBAPEAU?$__crt_report_hook_node@_W@@XZ 00000000301779b0 f i libucrtd:dbgrpt.obj
 0001:00176a30       ?is_valid@?$__crt_unique_heap_ptr@U?$__crt_report_hook_node@D@@U__crt_internal_free_policy@@@@QEBA_NXZ 0000000030177a30 f i libucrtd:dbgrpt.obj
 0001:00176a70       ?is_valid@?$__crt_unique_heap_ptr@U?$__crt_report_hook_node@_W@@U__crt_internal_free_policy@@@@QEBA_NXZ 0000000030177a70 f i libucrtd:dbgrpt.obj
 0001:00176ab0       ?release@?$__crt_unique_heap_ptr@U?$__crt_report_hook_node@D@@U__crt_internal_free_policy@@@@QEAAXXZ 0000000030177ab0 f i libucrtd:dbgrpt.obj
 0001:00176af0       ?release@?$__crt_unique_heap_ptr@U?$__crt_report_hook_node@_W@@U__crt_internal_free_policy@@@@QEAAXXZ 0000000030177af0 f i libucrtd:dbgrpt.obj
 0001:00176b30       _CrtDbgReport              0000000030177b30 f   libucrtd:dbgrpt.obj
 0001:00176bd0       _CrtDbgReportW             0000000030177bd0 f   libucrtd:dbgrpt.obj
 0001:00176c70       _CrtSetReportHook2         0000000030177c70 f   libucrtd:dbgrpt.obj
 0001:00176ca0       _CrtSetReportHookW2        0000000030177ca0 f   libucrtd:dbgrpt.obj
 0001:00176cd0       __acrt_MessageWindowA      0000000030177cd0 f   libucrtd:dbgrpt.obj
 0001:00176d30       __acrt_MessageWindowW      0000000030177d30 f   libucrtd:dbgrpt.obj
 0001:00176d90       _snwprintf_s               0000000030177d90 f i libucrtd:dbgrpt.obj
 0001:00176e10       _vsnwprintf_s_l            0000000030177e10 f i libucrtd:dbgrpt.obj
 0001:00176eb0       wcsncmp                    0000000030177eb0 f   libucrtd:wcsncmp.obj
 0001:00176f60       free                       0000000030177f60 f   libucrtd:free.obj
 0001:00176fa0       ??$__crt_fast_decode_pointer@P6AXPEB_W00I_K@Z@@YAP6AXPEB_W00I_K@ZQ6AX000I1@Z@Z 0000000030177fa0 f i libucrtd:invalid_parameter.obj
 0001:00176ff0       ??$__crt_fast_encode_pointer@P6AXPEB_W00I_K@Z@@YAP6AXPEB_W00I_K@ZQ6AX000I1@Z@Z 0000000030177ff0 f i libucrtd:invalid_parameter.obj
 0001:00177040       ??$initialize_from_array@$$BY00Q6AXPEB_W00I_K@Z@?$dual_state_global@P6AXPEB_W00I_K@Z@__crt_state_management@@QEAAXAEAY00Q6AXPEB_W00I_K@Z@Z 0000000030178040 f i libucrtd:invalid_parameter.obj
 0001:00177180       ?dangerous_get_state_array@?$dual_state_global@P6AXPEB_W00I_K@Z@__crt_state_management@@QEAAPEAP6AXPEB_W00I_K@ZXZ 0000000030178180 f i libucrtd:invalid_parameter.obj
 0001:00177190       ?value@?$dual_state_global@P6AXPEB_W00I_K@Z@__crt_state_management@@QEAAAEAP6AXPEB_W00I_K@ZXZ 0000000030178190 f i libucrtd:invalid_parameter.obj
 0001:001771c0       __acrt_call_reportfault    00000000301781c0 f   libucrtd:invalid_parameter.obj
 0001:00177340       __acrt_initialize_invalid_parameter_handler 0000000030178340 f   libucrtd:invalid_parameter.obj
 0001:00177380       _get_invalid_parameter_handler 0000000030178380 f   libucrtd:invalid_parameter.obj
 0001:001773b0       _get_thread_local_invalid_parameter_handler 00000000301783b0 f   libucrtd:invalid_parameter.obj
 0001:001773f0       _invalid_parameter         00000000301783f0 f   libucrtd:invalid_parameter.obj
 0001:00177530       _invalid_parameter_noinfo  0000000030178530 f   libucrtd:invalid_parameter.obj
 0001:00177560       _invalid_parameter_noinfo_noreturn 0000000030178560 f   libucrtd:invalid_parameter.obj
 0001:001775b0       _invoke_watson             00000000301785b0 f   libucrtd:invalid_parameter.obj
 0001:00177630       _set_invalid_parameter_handler 0000000030178630 f   libucrtd:invalid_parameter.obj
 0001:001776a0       _set_thread_local_invalid_parameter_handler 00000000301786a0 f   libucrtd:invalid_parameter.obj
 0001:001776f0       _CrtGetDebugFillThreshold  00000000301786f0 f   libucrtd:debug_fill_threshold.obj
 0001:00177700       _CrtSetDebugFillThreshold  0000000030178700 f   libucrtd:debug_fill_threshold.obj
 0001:00177740       __acrt_errno_from_os_error 0000000030178740 f   libucrtd:errno.obj
 0001:001777f0       __acrt_errno_map_os_error  00000000301787f0 f   libucrtd:errno.obj
 0001:00177830       __doserrno                 0000000030178830 f   libucrtd:errno.obj
 0001:00177870       _errno                     0000000030178870 f   libucrtd:errno.obj
 0001:001778b0       _get_doserrno              00000000301788b0 f   libucrtd:errno.obj
 0001:001779a0       _get_errno                 00000000301789a0 f   libucrtd:errno.obj
 0001:00177a90       _set_doserrno              0000000030178a90 f   libucrtd:errno.obj
 0001:00177ad0       _set_errno                 0000000030178ad0 f   libucrtd:errno.obj
 0001:00177b10       ??$make_c_string_character_source@DPEAPEAD@__crt_strtox@@YA?AV?$c_string_character_source@D@0@QEBDQEAPEAD@Z 0000000030178b10 f i libucrtd:strtox.obj
 0001:00177b50       ??$make_c_string_character_source@_WPEAPEA_W@__crt_strtox@@YA?AV?$c_string_character_source@_W@0@QEB_WQEAPEA_W@Z 0000000030178b50 f i libucrtd:strtox.obj
 0001:00177b90       ??$parse_integer_from_string@JDPEAPEAD@__crt_strtox@@YAJQEBDQEAPEADHQEAU__crt_locale_pointers@@@Z 0000000030178b90 f i libucrtd:strtox.obj
 0001:00177c00       ??$parse_integer_from_string@J_WPEAPEA_W@__crt_strtox@@YAJQEB_WQEAPEA_WHQEAU__crt_locale_pointers@@@Z 0000000030178c00 f i libucrtd:strtox.obj
 0001:00177c70       ??$parse_integer_from_string@KDPEAPEAD@__crt_strtox@@YAKQEBDQEAPEADHQEAU__crt_locale_pointers@@@Z 0000000030178c70 f i libucrtd:strtox.obj
 0001:00177ce0       ??$parse_integer_from_string@K_WPEAPEA_W@__crt_strtox@@YAKQEB_WQEAPEA_WHQEAU__crt_locale_pointers@@@Z 0000000030178ce0 f i libucrtd:strtox.obj
 0001:00177d50       ??$parse_integer_from_string@_JDPEAPEAD@__crt_strtox@@YA_JQEBDQEAPEADHQEAU__crt_locale_pointers@@@Z 0000000030178d50 f i libucrtd:strtox.obj
 0001:00177dc0       ??$parse_integer_from_string@_J_WPEAPEA_W@__crt_strtox@@YA_JQEB_WQEAPEA_WHQEAU__crt_locale_pointers@@@Z 0000000030178dc0 f i libucrtd:strtox.obj
 0001:00177e30       ??$parse_integer_from_string@_KDPEAPEAD@__crt_strtox@@YA_KQEBDQEAPEADHQEAU__crt_locale_pointers@@@Z 0000000030178e30 f i libucrtd:strtox.obj
 0001:00177ea0       ??$parse_integer_from_string@_K_WPEAPEA_W@__crt_strtox@@YA_KQEB_WQEAPEA_WHQEAU__crt_locale_pointers@@@Z 0000000030178ea0 f i libucrtd:strtox.obj
 0001:00177f10       _strtoi64                  0000000030178f10 f   libucrtd:strtox.obj
 0001:00177f50       _strtoi64_l                0000000030178f50 f   libucrtd:strtox.obj
 0001:00177fa0       _strtoimax_l               0000000030178fa0 f   libucrtd:strtox.obj
 0001:00177ff0       _strtol_l                  0000000030178ff0 f   libucrtd:strtox.obj
 0001:00178040       _strtoll_l                 0000000030179040 f   libucrtd:strtox.obj
 0001:00178090       _strtoui64                 0000000030179090 f   libucrtd:strtox.obj
 0001:001780d0       _strtoui64_l               00000000301790d0 f   libucrtd:strtox.obj
 0001:00178120       _strtoul_l                 0000000030179120 f   libucrtd:strtox.obj
 0001:00178170       _strtoull_l                0000000030179170 f   libucrtd:strtox.obj
 0001:001781c0       _strtoumax_l               00000000301791c0 f   libucrtd:strtox.obj
 0001:00178210       _wcstoi64                  0000000030179210 f   libucrtd:strtox.obj
 0001:00178250       _wcstoi64_l                0000000030179250 f   libucrtd:strtox.obj
 0001:001782a0       _wcstoimax_l               00000000301792a0 f   libucrtd:strtox.obj
 0001:001782f0       _wcstol_l                  00000000301792f0 f   libucrtd:strtox.obj
 0001:00178340       _wcstoll_l                 0000000030179340 f   libucrtd:strtox.obj
 0001:00178390       _wcstoui64                 0000000030179390 f   libucrtd:strtox.obj
 0001:001783d0       _wcstoui64_l               00000000301793d0 f   libucrtd:strtox.obj
 0001:00178420       _wcstoul_l                 0000000030179420 f   libucrtd:strtox.obj
 0001:00178470       _wcstoull_l                0000000030179470 f   libucrtd:strtox.obj
 0001:001784c0       _wcstoumax_l               00000000301794c0 f   libucrtd:strtox.obj
 0001:00178510       strtoimax                  0000000030179510 f   libucrtd:strtox.obj
 0001:00178550       strtol                     0000000030179550 f   libucrtd:strtox.obj
 0001:00178590       strtoll                    0000000030179590 f   libucrtd:strtox.obj
 0001:001785d0       strtoul                    00000000301795d0 f   libucrtd:strtox.obj
 0001:00178610       strtoull                   0000000030179610 f   libucrtd:strtox.obj
 0001:00178650       strtoumax                  0000000030179650 f   libucrtd:strtox.obj
 0001:00178690       wcstoimax                  0000000030179690 f   libucrtd:strtox.obj
 0001:001786d0       wcstol                     00000000301796d0 f   libucrtd:strtox.obj
 0001:00178710       wcstoll                    0000000030179710 f   libucrtd:strtox.obj
 0001:00178750       wcstoul                    0000000030179750 f   libucrtd:strtox.obj
 0001:00178790       wcstoull                   0000000030179790 f   libucrtd:strtox.obj
 0001:001787d0       wcstoumax                  00000000301797d0 f   libucrtd:strtox.obj
 0001:00178810       _mbtowc_l                  0000000030179810 f   libucrtd:mbtowc.obj
 0001:00178d90       mbtowc                     0000000030179d90 f   libucrtd:mbtowc.obj
 0001:00178dd0       _wctomb_l                  0000000030179dd0 f   libucrtd:wctomb.obj
 0001:00178eb0       _wctomb_s_l                0000000030179eb0 f   libucrtd:wctomb.obj
 0001:00179580       wctomb                     000000003017a580 f   libucrtd:wctomb.obj
 0001:001795f0       wctomb_s                   000000003017a5f0 f   libucrtd:wctomb.obj
 0001:0017ae70       ??1?$__crt_simd_cleanup_guard@$00@@QEAA@XZ 000000003017be70 f i libucrtd:strnlen.obj
 0001:0017ae80       ??1?$__crt_simd_cleanup_guard@$0A@@@QEAA@XZ 000000003017be80 f i libucrtd:strnlen.obj
 0001:0017ae90       ?compare_equals@?$__crt_simd_traits@$00E@@SA?AT__m256i@@T2@0@Z 000000003017be90 f i libucrtd:strnlen.obj
 0001:0017aee0       ?compare_equals@?$__crt_simd_traits@$00G@@SA?AT__m256i@@T2@0@Z 000000003017bee0 f i libucrtd:strnlen.obj
 0001:0017af30       ?compare_equals@?$__crt_simd_traits@$0A@E@@SA?AT__m128i@@T2@0@Z 000000003017bf30 f i libucrtd:strnlen.obj
 0001:0017af70       ?compare_equals@?$__crt_simd_traits@$0A@G@@SA?AT__m128i@@T2@0@Z 000000003017bf70 f i libucrtd:strnlen.obj
 0001:0017afb0       ?compute_byte_mask@?$__crt_simd_pack_traits@$00@@SAHT__m256i@@@Z 000000003017bfb0 f i libucrtd:strnlen.obj
 0001:0017afd0       ?compute_byte_mask@?$__crt_simd_pack_traits@$0A@@@SAHT__m128i@@@Z 000000003017bfd0 f i libucrtd:strnlen.obj
 0001:0017aff0       ?get_zero_pack@?$__crt_simd_pack_traits@$00@@SA?AT__m256i@@XZ 000000003017bff0 f i libucrtd:strnlen.obj
 0001:0017b020       ?get_zero_pack@?$__crt_simd_pack_traits@$0A@@@SA?AT__m128i@@XZ 000000003017c020 f i libucrtd:strnlen.obj
 0001:0017b040       strnlen                    000000003017c040 f   libucrtd:strnlen.obj
 0001:0017b070       wcslen                     000000003017c070 f   libucrtd:strnlen.obj
 0001:0017b0a0       wcsnlen                    000000003017c0a0 f   libucrtd:strnlen.obj
 0001:0017b0d0       ??$?RU__acrt_ptd@@@__crt_internal_free_policy@@QEBAXQEBU__acrt_ptd@@@Z 000000003017c0d0 f i libucrtd:per_thread_data.obj
 0001:0017b650       ??0?$__crt_unique_heap_ptr@U__acrt_ptd@@U__crt_internal_free_policy@@@@QEAA@QEAU__acrt_ptd@@@Z 000000003017c650 f i libucrtd:per_thread_data.obj
 0001:0017b680       ??0__crt_scoped_get_last_error_reset@@QEAA@XZ 000000003017c680 f i libucrtd:per_thread_data.obj
 0001:0017b6b0       ??1?$__crt_unique_heap_ptr@U__acrt_ptd@@U__crt_internal_free_policy@@@@QEAA@XZ 000000003017c6b0 f i libucrtd:per_thread_data.obj
 0001:0017b6d0       ??1__crt_scoped_get_last_error_reset@@QEAA@XZ 000000003017c6d0 f i libucrtd:per_thread_data.obj
 0001:0017b700       ??B?$__crt_unique_heap_ptr@U__acrt_ptd@@U__crt_internal_free_policy@@@@QEBA_NXZ 000000003017c700 f i libucrtd:per_thread_data.obj
 0001:0017bad0       ?dangerous_get_state_array@?$dual_state_global@PEAU__crt_locale_data@@@__crt_state_management@@QEAAPEAPEAU__crt_locale_data@@XZ 000000003017cad0 f i libucrtd:per_thread_data.obj
 0001:0017bce0       ?detach@?$__crt_unique_heap_ptr@U__acrt_ptd@@U__crt_internal_free_policy@@@@QEAAPEAU__acrt_ptd@@XZ 000000003017cce0 f i libucrtd:per_thread_data.obj
 0001:0017bd20       ?get@?$__crt_unique_heap_ptr@U__acrt_ptd@@U__crt_internal_free_policy@@@@QEBAPEAU__acrt_ptd@@XZ 000000003017cd20 f i libucrtd:per_thread_data.obj
 0001:0017bd40       ?get_current_state_index@__crt_state_management@@YA_KAEBV__crt_scoped_get_last_error_reset@@@Z 000000003017cd40 f i libucrtd:per_thread_data.obj
 0001:0017bf60       ?is_valid@?$__crt_unique_heap_ptr@U__acrt_ptd@@U__crt_internal_free_policy@@@@QEBA_NXZ 000000003017cf60 f i libucrtd:per_thread_data.obj
 0001:0017bfa0       ?release@?$__crt_unique_heap_ptr@U__acrt_ptd@@U__crt_internal_free_policy@@@@QEAAXXZ 000000003017cfa0 f i libucrtd:per_thread_data.obj
 0001:0017c120       ?value@?$dual_state_global@PEAU__crt_locale_data@@@__crt_state_management@@QEAAAEAPEAU__crt_locale_data@@XZ 000000003017d120 f i libucrtd:per_thread_data.obj
 0001:0017c150       __acrt_freeptd             000000003017d150 f   libucrtd:per_thread_data.obj
 0001:0017c1a0       __acrt_getptd              000000003017d1a0 f   libucrtd:per_thread_data.obj
 0001:0017c1d0       __acrt_getptd_head         000000003017d1d0 f   libucrtd:per_thread_data.obj
 0001:0017c200       __acrt_getptd_noexit       000000003017d200 f   libucrtd:per_thread_data.obj
 0001:0017c220       __acrt_initialize_ptd      000000003017d220 f   libucrtd:per_thread_data.obj
 0001:0017c270       __acrt_uninitialize_ptd    000000003017d270 f   libucrtd:per_thread_data.obj
 0001:0017c2b0       __threadhandle             000000003017d2b0 f   libucrtd:per_thread_data.obj
 0001:0017c2d0       __threadid                 000000003017d2d0 f   libucrtd:per_thread_data.obj
 0001:0017c2f0       ?value@?$dual_state_global@PEAU__crt_multibyte_data@@@__crt_state_management@@QEAAAEAPEAU__crt_multibyte_data@@XZ 000000003017d2f0 f i libucrtd:locale_update.obj
 0001:0017c320       __acrt_update_locale_info  000000003017d320 f   libucrtd:locale_update.obj
 0001:0017c390       __acrt_update_multibyte_info 000000003017d390 f   libucrtd:locale_update.obj
 0001:0017c400       ?__acrt_fp_classify@@YA?AW4__acrt_fp_class@@AEBN@Z 000000003017d400 f i libucrtd:cvt.obj
 0001:0017c540       ?__acrt_fp_is_negative@@YA_NAEBN@Z 000000003017d540 f i libucrtd:cvt.obj
 0001:0017e190       ?strrchr@@YAPEADQEADH@Z    000000003017f190 f i libucrtd:cvt.obj
 0001:0017e1c0       __acrt_fp_format           000000003017f1c0 f   libucrtd:cvt.obj
 0001:0017e9c0       _fputwc_nolock             000000003017f9c0 f   libucrtd:fputwc.obj
 0001:0017ecc0       _fputwchar                 000000003017fcc0 f   libucrtd:fputwc.obj
 0001:0017ecf0       _putwc_nolock              000000003017fcf0 f   libucrtd:fputwc.obj
 0001:0017ed20       fputwc                     000000003017fd20 f   libucrtd:fputwc.obj
 0001:0017ee50       putwc                      000000003017fe50 f   libucrtd:fputwc.obj
 0001:0017ee80       putwchar                   000000003017fe80 f   libucrtd:fputwc.obj
 0001:0017eea0       ?lowio_handle@__crt_stdio_stream@@QEBAHXZ 000000003017fea0 f i libucrtd:fileno.obj
 0001:0017eed0       _fileno                    000000003017fed0 f   libucrtd:fileno.obj
 0001:0017efe0       ??$?RPEAU__crt_stdio_stream_data@@@__crt_internal_free_policy@@QEBAXQEBQEAU__crt_stdio_stream_data@@@Z 000000003017ffe0 f i libucrtd:_file.obj
 0001:0017f010       ??0?$__crt_unique_heap_ptr@PEAU__crt_stdio_stream_data@@U__crt_internal_free_policy@@@@QEAA@QEAPEAU__crt_stdio_stream_data@@@Z 0000000030180010 f i libucrtd:_file.obj
 0001:0017f040       ??1?$__crt_unique_heap_ptr@PEAU__crt_stdio_stream_data@@U__crt_internal_free_policy@@@@QEAA@XZ 0000000030180040 f i libucrtd:_file.obj
 0001:0017f060       ?detach@?$__crt_unique_heap_ptr@PEAU__crt_stdio_stream_data@@U__crt_internal_free_policy@@@@QEAAPEAPEAU__crt_stdio_stream_data@@XZ 0000000030180060 f i libucrtd:_file.obj
 0001:0017f0a0       ?release@?$__crt_unique_heap_ptr@PEAU__crt_stdio_stream_data@@U__crt_internal_free_policy@@@@QEAAXXZ 00000000301800a0 f i libucrtd:_file.obj
 0001:0017f0e0       __acrt_initialize_stdio    00000000301800e0 f   libucrtd:_file.obj
 0001:0017f340       __acrt_iob_func            0000000030180340 f   libucrtd:_file.obj
 0001:0017f360       __acrt_uninitialize_stdio  0000000030180360 f   libucrtd:_file.obj
 0001:0017f410       _get_stream_buffer_pointers 0000000030180410 f   libucrtd:_file.obj
 0001:0017f590       _lock_file                 0000000030180590 f   libucrtd:_file.obj
 0001:0017f5d0       _unlock_file               00000000301805d0 f   libucrtd:_file.obj
 0001:0017f610       _fputc_nolock              0000000030180610 f   libucrtd:fputc.obj
 0001:0017f6f0       _fputchar                  00000000301806f0 f   libucrtd:fputc.obj
 0001:0017f720       _putc_nolock               0000000030180720 f   libucrtd:fputc.obj
 0001:0017f750       fputc                      0000000030180750 f   libucrtd:fputc.obj
 0001:0017faa0       putc                       0000000030180aa0 f   libucrtd:fputc.obj
 0001:0017fad0       putchar                    0000000030180ad0 f   libucrtd:fputc.obj
 0001:0017faf0       _get_printf_count_output   0000000030180af0 f   libucrtd:printf_count_output.obj
 0001:0017fb30       _set_printf_count_output   0000000030180b30 f   libucrtd:printf_count_output.obj
 0001:0017fbc0       ?has_any_buffer@__crt_stdio_stream@@QEBA_NXZ 0000000030180bc0 f i libucrtd:_sftbuf.obj
 0001:0017fbf0       ?has_any_of@__crt_stdio_stream@@QEBA_NJ@Z 0000000030180bf0 f i libucrtd:_sftbuf.obj
 0001:0017fc40       ?has_temporary_buffer@__crt_stdio_stream@@QEBA_NXZ 0000000030180c40 f i libucrtd:_sftbuf.obj
 0001:0017fc70       ?set_flags@__crt_stdio_stream@@QEBA_NJ@Z 0000000030180c70 f i libucrtd:_sftbuf.obj
 0001:0017fcf0       ?unset_flags@__crt_stdio_stream@@QEBA_NJ@Z 0000000030180cf0 f i libucrtd:_sftbuf.obj
 0001:0017fd60       __acrt_stdio_begin_temporary_buffering_nolock 0000000030180d60 f   libucrtd:_sftbuf.obj
 0001:00180030       __acrt_stdio_end_temporary_buffering_nolock 0000000030181030 f   libucrtd:_sftbuf.obj
 0001:00180100       ??$?RU__crt_locale_data@@@__crt_internal_free_policy@@QEBAXQEBU__crt_locale_data@@@Z 0000000030181100 f i libucrtd:wsetlocale.obj
 0001:00180130       ??$?RU__crt_locale_pointers@@@__crt_internal_free_policy@@QEBAXQEBU__crt_locale_pointers@@@Z 0000000030181130 f i libucrtd:wsetlocale.obj
 0001:00180160       ??$?RU__crt_multibyte_data@@@__crt_internal_free_policy@@QEBAXQEBU__crt_multibyte_data@@@Z 0000000030181160 f i libucrtd:wsetlocale.obj
 0001:001808b0       ??0?$__crt_unique_heap_ptr@U__crt_locale_data@@U__crt_internal_free_policy@@@@QEAA@QEAU__crt_locale_data@@@Z 00000000301818b0 f i libucrtd:wsetlocale.obj
 0001:001808e0       ??0?$__crt_unique_heap_ptr@U__crt_locale_pointers@@U__crt_internal_free_policy@@@@QEAA@QEAU__crt_locale_pointers@@@Z 00000000301818e0 f i libucrtd:wsetlocale.obj
 0001:00180910       ??0?$__crt_unique_heap_ptr@U__crt_multibyte_data@@U__crt_internal_free_policy@@@@QEAA@QEAU__crt_multibyte_data@@@Z 0000000030181910 f i libucrtd:wsetlocale.obj
 0001:00180940       ??0_expandlocale_locale_name_cache@@QEAA@QEA_W_KQEAU__crt_qualified_locale_data@@@Z 0000000030181940 f i libucrtd:wsetlocale.obj
 0001:00180a10       ??1?$__crt_unique_heap_ptr@U__crt_locale_data@@U__crt_internal_free_policy@@@@QEAA@XZ 0000000030181a10 f i libucrtd:wsetlocale.obj
 0001:00180a30       ??1?$__crt_unique_heap_ptr@U__crt_locale_pointers@@U__crt_internal_free_policy@@@@QEAA@XZ 0000000030181a30 f i libucrtd:wsetlocale.obj
 0001:00180a50       ??1?$__crt_unique_heap_ptr@U__crt_multibyte_data@@U__crt_internal_free_policy@@@@QEAA@XZ 0000000030181a50 f i libucrtd:wsetlocale.obj
 0001:00180a70       ??1_expandlocale_locale_name_cache@@QEAA@XZ 0000000030181a70 f i libucrtd:wsetlocale.obj
 0001:00180b10       ??B?$__crt_unique_heap_ptr@U__crt_locale_data@@U__crt_internal_free_policy@@@@QEBA_NXZ 0000000030181b10 f i libucrtd:wsetlocale.obj
 0001:00180b30       ??B?$__crt_unique_heap_ptr@U__crt_locale_pointers@@U__crt_internal_free_policy@@@@QEBA_NXZ 0000000030181b30 f i libucrtd:wsetlocale.obj
 0001:00180b50       ??B?$__crt_unique_heap_ptr@U__crt_multibyte_data@@U__crt_internal_free_policy@@@@QEBA_NXZ 0000000030181b50 f i libucrtd:wsetlocale.obj
 0001:001810b0       ?commit_locale_name@_expandlocale_locale_name_cache@@QEAAXQEB_W_K@Z 00000000301820b0 f i libucrtd:wsetlocale.obj
 0001:00181150       ?commit_locale_name_cache_already_updated@_expandlocale_locale_name_cache@@QEAAXQEB_W_K@Z 0000000030182150 f i libucrtd:wsetlocale.obj
 0001:001811e0       ?detach@?$__crt_unique_heap_ptr@U__crt_locale_data@@U__crt_internal_free_policy@@@@QEAAPEAU__crt_locale_data@@XZ 00000000301821e0 f i libucrtd:wsetlocale.obj
 0001:00181220       ?detach@?$__crt_unique_heap_ptr@U__crt_locale_pointers@@U__crt_internal_free_policy@@@@QEAAPEAU__crt_locale_pointers@@XZ 0000000030182220 f i libucrtd:wsetlocale.obj
 0001:00181260       ?detach@?$__crt_unique_heap_ptr@U__crt_multibyte_data@@U__crt_internal_free_policy@@@@QEAAPEAU__crt_multibyte_data@@XZ 0000000030182260 f i libucrtd:wsetlocale.obj
 0001:001812a0       ?get@?$__crt_unique_heap_ptr@U__crt_locale_data@@U__crt_internal_free_policy@@@@QEBAPEAU__crt_locale_data@@XZ 00000000301822a0 f i libucrtd:wsetlocale.obj
 0001:001812c0       ?get@?$__crt_unique_heap_ptr@U__crt_locale_pointers@@U__crt_internal_free_policy@@@@QEBAPEAU__crt_locale_pointers@@XZ 00000000301822c0 f i libucrtd:wsetlocale.obj
 0001:001812e0       ?get@?$__crt_unique_heap_ptr@U__crt_multibyte_data@@U__crt_internal_free_policy@@@@QEBAPEAU__crt_multibyte_data@@XZ 00000000301822e0 f i libucrtd:wsetlocale.obj
 0001:00181300       ?is_valid@?$__crt_unique_heap_ptr@U__crt_locale_data@@U__crt_internal_free_policy@@@@QEBA_NXZ 0000000030182300 f i libucrtd:wsetlocale.obj
 0001:00181340       ?is_valid@?$__crt_unique_heap_ptr@U__crt_locale_pointers@@U__crt_internal_free_policy@@@@QEBA_NXZ 0000000030182340 f i libucrtd:wsetlocale.obj
 0001:00181380       ?is_valid@?$__crt_unique_heap_ptr@U__crt_multibyte_data@@U__crt_internal_free_policy@@@@QEBA_NXZ 0000000030182380 f i libucrtd:wsetlocale.obj
 0001:001813c0       ?release@?$__crt_unique_heap_ptr@U__crt_locale_data@@U__crt_internal_free_policy@@@@QEAAXXZ 00000000301823c0 f i libucrtd:wsetlocale.obj
 0001:00181400       ?release@?$__crt_unique_heap_ptr@U__crt_locale_pointers@@U__crt_internal_free_policy@@@@QEAAXXZ 0000000030182400 f i libucrtd:wsetlocale.obj
 0001:00181440       ?release@?$__crt_unique_heap_ptr@U__crt_multibyte_data@@U__crt_internal_free_policy@@@@QEAAXXZ 0000000030182440 f i libucrtd:wsetlocale.obj
 0001:00181480       __acrt_copy_locale_name    0000000030182480 f   libucrtd:wsetlocale.obj
 0001:00181580       __acrt_set_locale_changed  0000000030182580 f   libucrtd:wsetlocale.obj
 0001:001815a0       __acrt_uninitialize_locale 00000000301825a0 f   libucrtd:wsetlocale.obj
 0001:001815e0       __ascii_towlower           00000000301825e0 f i libucrtd:wsetlocale.obj
 0001:00181600       __lc_lctowcs               0000000030182600 f   libucrtd:wsetlocale.obj
 0001:00181730       __lc_wcstolc               0000000030182730 f   libucrtd:wsetlocale.obj
 0001:00181aa0       _configthreadlocale        0000000030182aa0 f   libucrtd:wsetlocale.obj
 0001:00181cd0       _create_locale             0000000030182cd0 f   libucrtd:wsetlocale.obj
 0001:00182590       _free_locale               0000000030183590 f   libucrtd:wsetlocale.obj
 0001:001826c0       _get_current_locale        00000000301836c0 f   libucrtd:wsetlocale.obj
 0001:00182810       _wcreate_locale            0000000030183810 f   libucrtd:wsetlocale.obj
 0001:00182bb0       _wcscats                   0000000030183bb0 f   libucrtd:wsetlocale.obj
 0001:00182cd0       _wsetlocale                0000000030183cd0 f   libucrtd:wsetlocale.obj
 0001:00184ff0       __p___mb_cur_max           0000000030185ff0 f   libucrtd:nlsdata.obj
 0001:001854b0       __acrt_initialize_lowio    00000000301864b0 f   libucrtd:ioinit.obj
 0001:00185510       __acrt_uninitialize_lowio  0000000030186510 f   libucrtd:ioinit.obj
 0001:001855a0       _iswctype_l                00000000301865a0 f   libucrtd:iswctype.obj
 0001:001855d0       iswctype                   00000000301865d0 f   libucrtd:iswctype.obj
 0001:00185680       _chvalidator               0000000030186680 f   libucrtd:isctype.obj
 0001:00185710       _chvalidator_l             0000000030186710 f   libucrtd:isctype.obj
 0001:001857e0       _isctype                   00000000301867e0 f   libucrtd:isctype.obj
 0001:00185840       _isctype_l                 0000000030186840 f   libucrtd:isctype.obj
 0001:00185af0       _isleadbyte_fast_internal  0000000030186af0 f i libucrtd:isctype.obj
 0001:00185b20       __iswcsym                  0000000030186b20 f i libucrtd:_wctype.obj
 0001:00185b70       __iswcsymf                 0000000030186b70 f i libucrtd:_wctype.obj
 0001:00185bc0       _isleadbyte_l              0000000030186bc0 f i libucrtd:_wctype.obj
 0001:00185c30       _iswalnum_l                0000000030186c30 f i libucrtd:_wctype.obj
 0001:00185c60       _iswalpha_l                0000000030186c60 f i libucrtd:_wctype.obj
 0001:00185c90       _iswblank_l                0000000030186c90 f i libucrtd:_wctype.obj
 0001:00185ce0       _iswcntrl_l                0000000030186ce0 f i libucrtd:_wctype.obj
 0001:00185d10       _iswcsym_l                 0000000030186d10 f i libucrtd:_wctype.obj
 0001:00185d70       _iswcsymf_l                0000000030186d70 f i libucrtd:_wctype.obj
 0001:00185dd0       _iswdigit_l                0000000030186dd0 f i libucrtd:_wctype.obj
 0001:00185e00       _iswgraph_l                0000000030186e00 f i libucrtd:_wctype.obj
 0001:00185e30       _iswlower_l                0000000030186e30 f i libucrtd:_wctype.obj
 0001:00185e60       _iswprint_l                0000000030186e60 f i libucrtd:_wctype.obj
 0001:00185e90       _iswpunct_l                0000000030186e90 f i libucrtd:_wctype.obj
 0001:00185ec0       _iswspace_l                0000000030186ec0 f i libucrtd:_wctype.obj
 0001:00185ef0       _iswupper_l                0000000030186ef0 f i libucrtd:_wctype.obj
 0001:00185f20       _iswxdigit_l               0000000030186f20 f i libucrtd:_wctype.obj
 0001:00185f50       isleadbyte                 0000000030186f50 f i libucrtd:_wctype.obj
 0001:00185f70       iswalnum                   0000000030186f70 f i libucrtd:_wctype.obj
 0001:00185fa0       iswalpha                   0000000030186fa0 f i libucrtd:_wctype.obj
 0001:00185fd0       iswascii                   0000000030186fd0 f i libucrtd:_wctype.obj
 0001:00186010       iswblank                   0000000030187010 f i libucrtd:_wctype.obj
 0001:00186060       iswcntrl                   0000000030187060 f i libucrtd:_wctype.obj
 0001:00186090       iswdigit                   0000000030187090 f i libucrtd:_wctype.obj
 0001:001860c0       iswgraph                   00000000301870c0 f i libucrtd:_wctype.obj
 0001:001860f0       iswlower                   00000000301870f0 f i libucrtd:_wctype.obj
 0001:00186120       iswprint                   0000000030187120 f i libucrtd:_wctype.obj
 0001:00186150       iswpunct                   0000000030187150 f i libucrtd:_wctype.obj
 0001:00186180       iswspace                   0000000030187180 f i libucrtd:_wctype.obj
 0001:001861b0       iswupper                   00000000301871b0 f i libucrtd:_wctype.obj
 0001:001861e0       iswxdigit                  00000000301871e0 f i libucrtd:_wctype.obj
 0001:00186210       ??0?$__crt_scoped_stack_ptr@_W@@QEAA@U?$__crt_scoped_stack_ptr_tag@_W@@@Z 0000000030187210 f i libucrtd:lcmapstringa.obj
 0001:00186240       ??0?$__crt_scoped_stack_ptr_tag@_W@@QEAA@QEA_W@Z 0000000030187240 f i libucrtd:lcmapstringa.obj
 0001:00186270       ??1?$__crt_scoped_stack_ptr@_W@@QEAA@XZ 0000000030187270 f i libucrtd:lcmapstringa.obj
 0001:001862a0       ??B?$__crt_scoped_stack_ptr@_W@@QEBA_NXZ 00000000301872a0 f i libucrtd:lcmapstringa.obj
 0001:00186a40       ?get@?$__crt_scoped_stack_ptr@_W@@QEBAPEA_WXZ 0000000030187a40 f i libucrtd:lcmapstringa.obj
 0001:00186a60       _MallocaComputeSize        0000000030187a60 f i libucrtd:lcmapstringa.obj
 0001:00186ab0       _MarkAllocaS               0000000030187ab0 f i libucrtd:lcmapstringa.obj
 0001:00186af0       __acrt_LCMapStringA        0000000030187af0 f   libucrtd:lcmapstringa.obj
 0001:00186bd0       _freea_crt                 0000000030187bd0 f i libucrtd:lcmapstringa.obj
 0001:00186c90       __acrt_initialize_fma3     0000000030187c90 f   libucrtd:fma3_available.obj
 0001:00186d70       _get_FMA3_enable           0000000030187d70 f   libucrtd:fma3_available.obj
 0001:00186d80       _set_FMA3_enable           0000000030187d80 f   libucrtd:fma3_available.obj
 0001:00186db0       __remainder_piby2_forAsm   0000000030187db0 f   libucrtd:remainder_piby2_forasm.obj
 0001:00186fc0       __remainder_piby2_cw_forAsm 0000000030187fc0 f   libucrtd:remainder_piby2_forasm.obj
 0001:001871d0       __remainder_piby2_fma3     00000000301881d0 f   libucrtd:remainder_piby2_forfma3.obj
 0001:001873c0       __remainder_piby2_fma3_bdl 00000000301883c0 f   libucrtd:remainder_piby2_forfma3.obj
 0001:001874d0       _cos_special               00000000301884d0 f   libucrtd:sincos_special.obj
 0001:00187500       _cosf_special              0000000030188500 f   libucrtd:sincos_special.obj
 0001:00187530       _sin_special               0000000030188530 f   libucrtd:sincos_special.obj
 0001:00187800       _sinf_special              0000000030188800 f   libucrtd:sincos_special.obj
 0001:00187830       _tan_special               0000000030188830 f   libucrtd:sincos_special.obj
 0001:00187860       _tanf_special              0000000030188860 f   libucrtd:sincos_special.obj
 0001:00187ad0       _handle_error              0000000030188ad0 f   libucrtd:libm_error.obj
 0001:00187cc0       _handle_errorf             0000000030188cc0 f   libucrtd:libm_error.obj
 0001:00187eb0       _handle_nan                0000000030188eb0 f   libucrtd:libm_error.obj
 0001:00187f10       _handle_nanf               0000000030188f10 f   libucrtd:libm_error.obj
 0001:00187f50       _clrfp                     0000000030188f50 f   libucrtd:fpctrl.obj
 0001:00187f80       _ctrlfp                    0000000030188f80 f   libucrtd:fpctrl.obj
 0001:00188060       _set_statfp                0000000030189060 f   libucrtd:fpctrl.obj
 0001:001880b0       _statfp                    00000000301890b0 f   libucrtd:fpctrl.obj
 0001:001880e0       __remainder_piby2d2f_forAsm 00000000301890e0 f   libucrtd:remainder_piby2f_forasm.obj
 0001:00188280       __remainder_piby2d2f_forC  0000000030189280 f   libucrtd:remainder_piby2f_forc.obj
 0001:00188470       _pow_special               0000000030189470 f   libucrtd:pow_special.obj
 0001:00188790       _powf_special              0000000030189790 f   libucrtd:pow_special.obj
 0001:00188ba0       __acrt_initialize_locks    0000000030189ba0 f   libucrtd:locks.obj
 0001:00188c30       __acrt_lock                0000000030189c30 f   libucrtd:locks.obj
 0001:00188c70       __acrt_uninitialize_locks  0000000030189c70 f   libucrtd:locks.obj
 0001:00188cf0       __acrt_unlock              0000000030189cf0 f   libucrtd:locks.obj
 0001:00188d30       _lock_locales              0000000030189d30 f   libucrtd:locks.obj
 0001:00188d50       _unlock_locales            0000000030189d50 f   libucrtd:locks.obj
 0001:00189210       __acrt_get_begin_thread_init_policy 000000003018a210 f   libucrtd:win_policies.obj
 0001:00189230       __acrt_get_developer_information_policy 000000003018a230 f   libucrtd:win_policies.obj
 0001:00189250       __acrt_get_process_end_policy 000000003018a250 f   libucrtd:win_policies.obj
 0001:00189270       __acrt_get_windowing_model_policy 000000003018a270 f   libucrtd:win_policies.obj
 0001:001896f0       ??$__acrt_mbs_to_wcs_cp@U__crt_win32_buffer_internal_dynamic_resizing@@@@YAHQEBDAEAV?$__crt_win32_buffer@_WU__crt_win32_buffer_internal_dynamic_resizing@@@@I@Z 000000003018a6f0 f i libucrtd:argv_wildcards.obj
 0001:00189750       ??$__acrt_wcs_to_mbs_cp@U__crt_win32_buffer_internal_dynamic_resizing@@@@YAHQEB_WAEAV?$__crt_win32_buffer@DU__crt_win32_buffer_internal_dynamic_resizing@@@@I@Z 000000003018a750 f i libucrtd:argv_wildcards.obj
 0001:0018b0e0       ??$tcsncpy_s@AEAPEAD_KAEAPEADAEB_K@?$__crt_char_traits@D@@SAHAEAPEAD$$QEA_K0AEB_K@Z 000000003018c0e0 f i libucrtd:argv_wildcards.obj
 0001:0018b140       ??$tcsncpy_s@AEAPEA_W_KAEAPEA_WAEB_K@?$__crt_char_traits@_W@@SAHAEAPEA_W$$QEA_K0AEB_K@Z 000000003018c140 f i libucrtd:argv_wildcards.obj
 0001:0018b1a0       ??$tcsncpy_s@PEADAEB_KAEBQEBDAEB_K@?$__crt_char_traits@D@@SAH$$QEAPEADAEB_KAEBQEBD1@Z 000000003018c1a0 f i libucrtd:argv_wildcards.obj
 0001:0018b200       ??$tcsncpy_s@PEAD_KAEBQEBDAEB_K@?$__crt_char_traits@D@@SAH$$QEAPEAD$$QEA_KAEBQEBDAEB_K@Z 000000003018c200 f i libucrtd:argv_wildcards.obj
 0001:0018b260       ??$tcsncpy_s@PEA_WAEB_KAEBQEB_WAEB_K@?$__crt_char_traits@_W@@SAH$$QEAPEA_WAEB_KAEBQEB_W1@Z 000000003018c260 f i libucrtd:argv_wildcards.obj
 0001:0018b2c0       ??$tcsncpy_s@PEA_W_KAEBQEB_WAEB_K@?$__crt_char_traits@_W@@SAH$$QEAPEA_W$$QEA_KAEBQEB_WAEB_K@Z 000000003018c2c0 f i libucrtd:argv_wildcards.obj
 0001:0018b320       ??$tcspbrk@AEAPEADAEAY02$$CBD@?$__crt_char_traits@D@@SAPEADAEAPEADAEAY02$$CBD@Z 000000003018c320 f i libucrtd:argv_wildcards.obj
 0001:0018b350       ??$tcspbrk@AEAPEA_WAEAY02$$CB_W@?$__crt_char_traits@_W@@SAPEA_WAEAPEA_WAEAY02$$CB_W@Z 000000003018c350 f i libucrtd:argv_wildcards.obj
 0001:0018b380       ??0?$__crt_unique_handle_t@U__crt_findfile_traits@@@@QEAA@QEAX@Z 000000003018c380 f i libucrtd:argv_wildcards.obj
 0001:0018b3b0       ??0?$__crt_win32_buffer@DU__crt_win32_buffer_internal_dynamic_resizing@@@@QEAA@XZ 000000003018c3b0 f i libucrtd:argv_wildcards.obj
 0001:0018b420       ??0?$__crt_win32_buffer@_WU__crt_win32_buffer_internal_dynamic_resizing@@@@QEAA@XZ 000000003018c420 f i libucrtd:argv_wildcards.obj
 0001:0018b510       ??1?$__crt_unique_handle_t@U__crt_findfile_traits@@@@QEAA@XZ 000000003018c510 f i libucrtd:argv_wildcards.obj
 0001:0018b530       ??1?$__crt_win32_buffer@DU__crt_win32_buffer_internal_dynamic_resizing@@@@QEAA@XZ 000000003018c530 f i libucrtd:argv_wildcards.obj
 0001:0018b560       ??1?$__crt_win32_buffer@_WU__crt_win32_buffer_internal_dynamic_resizing@@@@QEAA@XZ 000000003018c560 f i libucrtd:argv_wildcards.obj
 0001:0018b8e0       ?__acrt_get_utf8_acp_compatibility_codepage@@YAIXZ 000000003018c8e0 f i libucrtd:argv_wildcards.obj
 0001:0018b9b0       ?_deallocate@?$__crt_win32_buffer@DU__crt_win32_buffer_internal_dynamic_resizing@@@@AEAAXXZ 000000003018c9b0 f i libucrtd:argv_wildcards.obj
 0001:0018ba00       ?_deallocate@?$__crt_win32_buffer@_WU__crt_win32_buffer_internal_dynamic_resizing@@@@AEAAXXZ 000000003018ca00 f i libucrtd:argv_wildcards.obj
 0001:0018ba50       ?allocate@?$__crt_win32_buffer@DU__crt_win32_buffer_internal_dynamic_resizing@@@@QEAAH_K@Z 000000003018ca50 f i libucrtd:argv_wildcards.obj
 0001:0018baf0       ?allocate@?$__crt_win32_buffer@_WU__crt_win32_buffer_internal_dynamic_resizing@@@@QEAAH_K@Z 000000003018caf0 f i libucrtd:argv_wildcards.obj
 0001:0018bbb0       ?allocate@__crt_win32_buffer_internal_dynamic_resizing@@SAHQEAPEAX_KAEBV__crt_win32_buffer_empty_debug_info@@@Z 000000003018cbb0 f i libucrtd:argv_wildcards.obj
 0001:0018bd60       ?capacity@?$__crt_win32_buffer@DU__crt_win32_buffer_internal_dynamic_resizing@@@@QEBA_KXZ 000000003018cd60 f i libucrtd:argv_wildcards.obj
 0001:0018bd80       ?capacity@?$__crt_win32_buffer@_WU__crt_win32_buffer_internal_dynamic_resizing@@@@QEBA_KXZ 000000003018cd80 f i libucrtd:argv_wildcards.obj
 0001:0018bda0       ?close@?$__crt_unique_handle_t@U__crt_findfile_traits@@@@QEAAXXZ 000000003018cda0 f i libucrtd:argv_wildcards.obj
 0001:0018bdf0       ?close@__crt_findfile_traits@@SA_NPEAX@Z 000000003018cdf0 f i libucrtd:argv_wildcards.obj
 0001:0018be40       ?data@?$__crt_win32_buffer@DU__crt_win32_buffer_internal_dynamic_resizing@@@@QEAAPEADXZ 000000003018ce40 f i libucrtd:argv_wildcards.obj
 0001:0018be60       ?data@?$__crt_win32_buffer@_WU__crt_win32_buffer_internal_dynamic_resizing@@@@QEAAPEA_WXZ 000000003018ce60 f i libucrtd:argv_wildcards.obj
 0001:0018be80       ?deallocate@__crt_win32_buffer_internal_dynamic_resizing@@SAXQEAXAEBV__crt_win32_buffer_empty_debug_info@@@Z 000000003018ce80 f i libucrtd:argv_wildcards.obj
 0001:0018beb0       ?debug_info@?$__crt_win32_buffer@DU__crt_win32_buffer_internal_dynamic_resizing@@@@QEBAAEBV__crt_win32_buffer_empty_debug_info@@XZ 000000003018ceb0 f i libucrtd:argv_wildcards.obj
 0001:0018bec0       ?debug_info@?$__crt_win32_buffer@_WU__crt_win32_buffer_internal_dynamic_resizing@@@@QEBAAEBV__crt_win32_buffer_empty_debug_info@@XZ 000000003018cec0 f i libucrtd:argv_wildcards.obj
 0001:0018c3d0       ?get@?$__crt_unique_handle_t@U__crt_findfile_traits@@@@QEBAPEAXXZ 000000003018d3d0 f i libucrtd:argv_wildcards.obj
 0001:0018c470       ?get_invalid_value@__crt_findfile_traits@@SAPEAXXZ 000000003018d470 f i libucrtd:argv_wildcards.obj
 0001:0018c550       ?set_to_nullptr@?$__crt_win32_buffer@DU__crt_win32_buffer_internal_dynamic_resizing@@@@QEAAXXZ 000000003018d550 f i libucrtd:argv_wildcards.obj
 0001:0018c5a0       ?set_to_nullptr@?$__crt_win32_buffer@_WU__crt_win32_buffer_internal_dynamic_resizing@@@@QEAAXXZ 000000003018d5a0 f i libucrtd:argv_wildcards.obj
 0001:0018c5f0       ?size@?$__crt_win32_buffer@DU__crt_win32_buffer_internal_dynamic_resizing@@@@QEAAX_K@Z 000000003018d5f0 f i libucrtd:argv_wildcards.obj
 0001:0018c610       ?size@?$__crt_win32_buffer@_WU__crt_win32_buffer_internal_dynamic_resizing@@@@QEAAX_K@Z 000000003018d610 f i libucrtd:argv_wildcards.obj
 0001:0018c690       ?strpbrk@@YAPEADQEADQEBD@Z 000000003018d690 f i libucrtd:argv_wildcards.obj
 0001:0018c6c0       ?wcspbrk@@YAPEA_WPEA_WPEB_W@Z 000000003018d6c0 f i libucrtd:argv_wildcards.obj
 0001:0018c6f0       __acrt_expand_narrow_argv_wildcards 000000003018d6f0 f   libucrtd:argv_wildcards.obj
 0001:0018c720       __acrt_expand_wide_argv_wildcards 000000003018d720 f   libucrtd:argv_wildcards.obj
 0001:0018c950       ??$__acrt_wcs_to_mbs_cp@U__crt_win32_buffer_no_resizing@@@@YAHQEB_WAEAV?$__crt_win32_buffer@DU__crt_win32_buffer_no_resizing@@@@I@Z 000000003018d950 f i libucrtd:getmodulefilenamea.obj
 0001:0018c9b0       ??0?$__crt_win32_buffer@DU__crt_win32_buffer_no_resizing@@@@QEAA@QEAD_K@Z 000000003018d9b0 f i libucrtd:getmodulefilenamea.obj
 0001:0018ca30       ??1?$__crt_win32_buffer@DU__crt_win32_buffer_no_resizing@@@@QEAA@XZ 000000003018da30 f i libucrtd:getmodulefilenamea.obj
 0001:0018cad0       ?_deallocate@?$__crt_win32_buffer@DU__crt_win32_buffer_no_resizing@@@@AEAAXXZ 000000003018dad0 f i libucrtd:getmodulefilenamea.obj
 0001:0018cb20       ?allocate@?$__crt_win32_buffer@DU__crt_win32_buffer_no_resizing@@@@QEAAH_K@Z 000000003018db20 f i libucrtd:getmodulefilenamea.obj
 0001:0018cbc0       ?allocate@__crt_win32_buffer_no_resizing@@SAHQEAPEAX_KAEBV__crt_win32_buffer_empty_debug_info@@@Z 000000003018dbc0 f i libucrtd:getmodulefilenamea.obj
 0001:0018cc00       ?capacity@?$__crt_win32_buffer@DU__crt_win32_buffer_no_resizing@@@@QEBA_KXZ 000000003018dc00 f i libucrtd:getmodulefilenamea.obj
 0001:0018cc20       ?data@?$__crt_win32_buffer@DU__crt_win32_buffer_no_resizing@@@@QEAAPEADXZ 000000003018dc20 f i libucrtd:getmodulefilenamea.obj
 0001:0018cc40       ?deallocate@__crt_win32_buffer_no_resizing@@SAXQEAXAEBV__crt_win32_buffer_empty_debug_info@@@Z 000000003018dc40 f i libucrtd:getmodulefilenamea.obj
 0001:0018cc50       ?debug_info@?$__crt_win32_buffer@DU__crt_win32_buffer_no_resizing@@@@QEBAAEBV__crt_win32_buffer_empty_debug_info@@XZ 000000003018dc50 f i libucrtd:getmodulefilenamea.obj
 0001:0018cc60       ?set_to_nullptr@?$__crt_win32_buffer@DU__crt_win32_buffer_no_resizing@@@@QEAAXXZ 000000003018dc60 f i libucrtd:getmodulefilenamea.obj
 0001:0018ccb0       ?size@?$__crt_win32_buffer@DU__crt_win32_buffer_no_resizing@@@@QEAAX_K@Z 000000003018dcb0 f i libucrtd:getmodulefilenamea.obj
 0001:0018ccd0       ?size@?$__crt_win32_buffer@DU__crt_win32_buffer_no_resizing@@@@QEBA_KXZ 000000003018dcd0 f i libucrtd:getmodulefilenamea.obj
 0001:0018ccf0       __acrt_GetModuleFileNameA  000000003018dcf0 f   libucrtd:getmodulefilenamea.obj
 0001:0018cec0       ??$initialize_from_array@$$BY10BAA@E@?$dual_state_global@PEAE@__crt_state_management@@QEAAXAEAY10BAA@E@Z 000000003018dec0 f i libucrtd:mbctype.obj
 0001:0018cf40       ??$initialize_from_array@$$BY10BAB@E@?$dual_state_global@PEAE@__crt_state_management@@QEAAXAEAY10BAB@E@Z 000000003018df40 f i libucrtd:mbctype.obj
 0001:0018d2d0       ?dangerous_get_state_array@?$dual_state_global@PEAE@__crt_state_management@@QEAAPEAPEAEXZ 000000003018e2d0 f i libucrtd:mbctype.obj
 0001:0018d2e0       ?dangerous_get_state_array@?$dual_state_global@PEAU__crt_multibyte_data@@@__crt_state_management@@QEAAPEAPEAU__crt_multibyte_data@@XZ 000000003018e2e0 f i libucrtd:mbctype.obj
 0001:0018d400       ?initialize@?$dual_state_global@PEAU__crt_multibyte_data@@@__crt_state_management@@QEAAXQEAU__crt_multibyte_data@@@Z 000000003018e400 f i libucrtd:mbctype.obj
 0001:0018dee0       ?value@?$dual_state_global@PEAE@__crt_state_management@@QEAAAEAPEAEXZ 000000003018eee0 f i libucrtd:mbctype.obj
 0001:0018df10       __acrt_initialize_multibyte 000000003018ef10 f   libucrtd:mbctype.obj
 0001:0018e010       __acrt_update_thread_multibyte_data 000000003018f010 f   libucrtd:mbctype.obj
 0001:0018e050       __p__mbcasemap             000000003018f050 f   libucrtd:mbctype.obj
 0001:0018e070       __p__mbctype               000000003018f070 f   libucrtd:mbctype.obj
 0001:0018e090       _getmbcp                   000000003018f090 f   libucrtd:mbctype.obj
 0001:0018e130       _setmbcp                   000000003018f130 f   libucrtd:mbctype.obj
 0001:0018e180       _setmbcp_nolock            000000003018f180 f   libucrtd:mbctype.obj
 0001:0018e9bc       _ismbbalnum                000000003018f9bc f   libucrtd:ismbbyte.obj
 0001:0018e9d8       _ismbbalnum_l              000000003018f9d8 f   libucrtd:ismbbyte.obj
 0001:0018e9f8       _ismbbalpha                000000003018f9f8 f   libucrtd:ismbbyte.obj
 0001:0018ea14       _ismbbalpha_l              000000003018fa14 f   libucrtd:ismbbyte.obj
 0001:0018ea34       _ismbbblank                000000003018fa34 f   libucrtd:ismbbyte.obj
 0001:0018ea58       _ismbbblank_l              000000003018fa58 f   libucrtd:ismbbyte.obj
 0001:0018ea80       _ismbbgraph                000000003018fa80 f   libucrtd:ismbbyte.obj
 0001:0018ea9c       _ismbbgraph_l              000000003018fa9c f   libucrtd:ismbbyte.obj
 0001:0018eabc       _ismbbkalnum               000000003018fabc f   libucrtd:ismbbyte.obj
 0001:0018ead4       _ismbbkalnum_l             000000003018fad4 f   libucrtd:ismbbyte.obj
 0001:0018eaf0       _ismbbkana                 000000003018faf0 f   libucrtd:ismbbyte.obj
 0001:0018eaf8       _ismbbkana_l               000000003018faf8 f   libucrtd:ismbbyte.obj
 0001:0018eb78       _ismbbkprint               000000003018fb78 f   libucrtd:ismbbyte.obj
 0001:0018eb90       _ismbbkprint_l             000000003018fb90 f   libucrtd:ismbbyte.obj
 0001:0018ebac       _ismbbkpunct               000000003018fbac f   libucrtd:ismbbyte.obj
 0001:0018ebc4       _ismbbkpunct_l             000000003018fbc4 f   libucrtd:ismbbyte.obj
 0001:0018ebe0       _ismbblead                 000000003018fbe0 f   libucrtd:ismbbyte.obj
 0001:0018ebf8       _ismbblead_l               000000003018fbf8 f   libucrtd:ismbbyte.obj
 0001:0018ec14       _ismbbprint                000000003018fc14 f   libucrtd:ismbbyte.obj
 0001:0018ec30       _ismbbprint_l              000000003018fc30 f   libucrtd:ismbbyte.obj
 0001:0018ec50       _ismbbpunct                000000003018fc50 f   libucrtd:ismbbyte.obj
 0001:0018ec68       _ismbbpunct_l              000000003018fc68 f   libucrtd:ismbbyte.obj
 0001:0018ec84       _ismbbtrail                000000003018fc84 f   libucrtd:ismbbyte.obj
 0001:0018ec9c       _ismbbtrail_l              000000003018fc9c f   libucrtd:ismbbyte.obj
 0001:0018ecc0       __acrt_initialize_command_line 000000003018fcc0 f   libucrtd:argv_data.obj
 0001:0018ecf0       __acrt_uninitialize_command_line 000000003018fcf0 f   libucrtd:argv_data.obj
 0001:0018ed00       __p___argc                 000000003018fd00 f   libucrtd:argv_data.obj
 0001:0018ed10       __p___argv                 000000003018fd10 f   libucrtd:argv_data.obj
 0001:0018ed20       __p___wargv                000000003018fd20 f   libucrtd:argv_data.obj
 0001:0018ed30       __p__acmdln                000000003018fd30 f   libucrtd:argv_data.obj
 0001:0018ed40       __p__pgmptr                000000003018fd40 f   libucrtd:argv_data.obj
 0001:0018ed50       __p__wcmdln                000000003018fd50 f   libucrtd:argv_data.obj
 0001:0018ed60       __p__wpgmptr               000000003018fd60 f   libucrtd:argv_data.obj
 0001:0018ed70       _get_pgmptr                000000003018fd70 f   libucrtd:argv_data.obj
 0001:0018ef40       _get_wpgmptr               000000003018ff40 f   libucrtd:argv_data.obj
 0001:0018f730       wcscpy_s                   0000000030190730 f   libucrtd:wcscpy_s.obj
 0001:0018f830       __acrt_MultiByteToWideChar 0000000030190830 f   libucrtd:multibytetowidechar.obj
 0001:0018f970       __acrt_WideCharToMultiByte 0000000030190970 f   libucrtd:widechartomultibyte.obj
 0001:0018fb84       __dcrt_get_narrow_environment_from_os 0000000030190b84 f   libucrtd:get_environment_from_os.obj
 0001:0018fce0       __dcrt_get_wide_environment_from_os 0000000030190ce0 f   libucrtd:get_environment_from_os.obj
 0001:00190dc8       ??$get_or_create_environment_nolock@$$V@?$__crt_char_traits@D@@SAPEAPEADXZ 0000000030191dc8 f i libucrtd:setenv.obj
 0001:00190dd0       ??$get_or_create_environment_nolock@$$V@?$__crt_char_traits@_W@@SAPEAPEA_WXZ 0000000030191dd0 f i libucrtd:setenv.obj
 0001:00190dd8       ??$set_environment_variable@AEBQEADQEAD@?$__crt_char_traits@D@@SAHAEBQEAD$$QEBQEAD@Z 0000000030191dd8 f i libucrtd:setenv.obj
 0001:00190de8       ??$set_environment_variable@AEBQEA_WQEA_W@?$__crt_char_traits@_W@@SAHAEBQEA_W$$QEBQEA_W@Z 0000000030191de8 f i libucrtd:setenv.obj
 0001:00190df8       ??$tcschr@AEBQEADD@?$__crt_char_traits@D@@SAPEADAEBQEAD$$QEAD@Z 0000000030191df8 f i libucrtd:setenv.obj
 0001:00190e08       ??$tcschr@AEBQEA_WD@?$__crt_char_traits@_W@@SAPEA_WAEBQEA_W$$QEAD@Z 0000000030191e08 f i libucrtd:setenv.obj
 0001:00190e18       ??$tcscpy_s@AEAPEADAEB_KAEAPEAD@?$__crt_char_traits@D@@SAHAEAPEADAEB_K0@Z 0000000030191e18 f i libucrtd:setenv.obj
 0001:00190e2c       ??$tcscpy_s@AEAPEA_WAEB_KAEAPEA_W@?$__crt_char_traits@_W@@SAHAEAPEA_WAEB_K0@Z 0000000030191e2c f i libucrtd:setenv.obj
 0001:00190e40       ??$tcscpy_s@AEBQEADAEB_KAEBQEAD@?$__crt_char_traits@D@@SAHAEBQEADAEB_K0@Z 0000000030191e40 f i libucrtd:setenv.obj
 0001:00190e54       ??$tcscpy_s@AEBQEA_WAEB_KAEBQEA_W@?$__crt_char_traits@_W@@SAHAEBQEA_WAEB_K0@Z 0000000030191e54 f i libucrtd:setenv.obj
 0001:00190e68       ??$tcslen@AEBQEAD@?$__crt_char_traits@D@@SA_KAEBQEAD@Z 0000000030191e68 f i libucrtd:setenv.obj
 0001:00190e80       ??$tcslen@AEBQEA_W@?$__crt_char_traits@_W@@SA_KAEBQEA_W@Z 0000000030191e80 f i libucrtd:setenv.obj
 0001:00190e98       ??$tcsnicoll@AEBQEBDAEAPEADAEB_K@?$__crt_char_traits@D@@SAHAEBQEBDAEAPEADAEB_K@Z 0000000030191e98 f i libucrtd:setenv.obj
 0001:00190eac       ??$tcsnicoll@AEBQEB_WAEAPEA_WAEB_K@?$__crt_char_traits@_W@@SAHAEBQEB_WAEAPEA_WAEB_K@Z 0000000030191eac f i libucrtd:setenv.obj
 0001:00190ec0       ??$tcsnlen@PEADH@?$__crt_char_traits@D@@SA_K$$QEAPEAD$$QEAH@Z 0000000030191ec0 f i libucrtd:setenv.obj
 0001:00190ed0       ??$tcsnlen@PEA_WH@?$__crt_char_traits@_W@@SA_K$$QEAPEA_W$$QEAH@Z 0000000030191ed0 f i libucrtd:setenv.obj
 0001:00190f28       ?wcschr@@YAPEA_WPEA_W_W@Z  0000000030191f28 f i libucrtd:setenv.obj
 0001:00190f30       __dcrt_set_variable_in_narrow_environment_nolock 0000000030191f30 f   libucrtd:setenv.obj
 0001:00190f38       __dcrt_set_variable_in_wide_environment_nolock 0000000030191f38 f   libucrtd:setenv.obj
 0001:00190f60       ??$?B$$A6AHPEA_WK_J@Z@__crt_fast_encoded_nullptr_t@@QEBAP6AHPEA_WK_J@ZXZ 0000000030191f60 f i libucrtd:winapi_thunks.obj
 0001:00191050       ??$__crt_fast_decode_pointer@P6AHPEA_WK_J@Z@@YAP6AHPEA_WK_J@ZQ6AH0K1@Z@Z 0000000030192050 f i libucrtd:winapi_thunks.obj
 0001:001910a0       ??$__crt_fast_decode_pointer@PEAX@@YAPEAXQEAX@Z 00000000301920a0 f i libucrtd:winapi_thunks.obj
 0001:001910f0       ??$__crt_fast_encode_pointer@P6AHPEA_WK_J@Z@@YAP6AHPEA_WK_J@ZQ6AH0K1@Z@Z 00000000301920f0 f i libucrtd:winapi_thunks.obj
 0001:00192110       GetCurrentThreadEffectiveToken 0000000030193110 f i libucrtd:winapi_thunks.obj
 0001:00192120       __acrt_AppPolicyGetProcessTerminationMethodInternal 0000000030193120 f   libucrtd:winapi_thunks.obj
 0001:00192180       __acrt_AppPolicyGetShowDeveloperDiagnosticInternal 0000000030193180 f   libucrtd:winapi_thunks.obj
 0001:001921e0       __acrt_AppPolicyGetThreadInitializationTypeInternal 00000000301931e0 f   libucrtd:winapi_thunks.obj
 0001:00192240       __acrt_AppPolicyGetWindowingModelInternal 0000000030193240 f   libucrtd:winapi_thunks.obj
 0001:001922a0       __acrt_AreFileApisANSI     00000000301932a0 f   libucrtd:winapi_thunks.obj
 0001:001922f0       __acrt_CompareStringEx     00000000301932f0 f   libucrtd:winapi_thunks.obj
 0001:00192410       __acrt_EnumSystemLocalesEx 0000000030193410 f   libucrtd:winapi_thunks.obj
 0001:001924b0       __acrt_FlsAlloc            00000000301934b0 f   libucrtd:winapi_thunks.obj
 0001:00192510       __acrt_FlsFree             0000000030193510 f   libucrtd:winapi_thunks.obj
 0001:00192570       __acrt_FlsGetValue         0000000030193570 f   libucrtd:winapi_thunks.obj
 0001:001925d0       __acrt_FlsSetValue         00000000301935d0 f   libucrtd:winapi_thunks.obj
 0001:00192640       __acrt_GetDateFormatEx     0000000030193640 f   libucrtd:winapi_thunks.obj
 0001:00192730       __acrt_GetEnabledXStateFeatures 0000000030193730 f   libucrtd:winapi_thunks.obj
 0001:00192780       __acrt_GetLocaleInfoEx     0000000030193780 f   libucrtd:winapi_thunks.obj
 0001:00192820       __acrt_GetSystemTimePreciseAsFileTime 0000000030193820 f   libucrtd:winapi_thunks.obj
 0001:00192880       __acrt_GetTimeFormatEx     0000000030193880 f   libucrtd:winapi_thunks.obj
 0001:00192960       __acrt_GetUserDefaultLocaleName 0000000030193960 f   libucrtd:winapi_thunks.obj
 0001:001929e0       __acrt_GetXStateFeaturesMask 00000000301939e0 f   libucrtd:winapi_thunks.obj
 0001:00192a40       __acrt_InitializeCriticalSectionEx 0000000030193a40 f   libucrtd:winapi_thunks.obj
 0001:00192ac0       __acrt_IsValidLocaleName   0000000030193ac0 f   libucrtd:winapi_thunks.obj
 0001:00192b30       __acrt_LCIDToLocaleName    0000000030193b30 f   libucrtd:winapi_thunks.obj
 0001:00192bc0       __acrt_LCMapStringEx       0000000030193bc0 f   libucrtd:winapi_thunks.obj
 0001:00192ce0       __acrt_LocaleNameToLCID    0000000030193ce0 f   libucrtd:winapi_thunks.obj
 0001:00192d50       __acrt_LocateXStateFeature 0000000030193d50 f   libucrtd:winapi_thunks.obj
 0001:00192dc0       __acrt_MessageBoxA         0000000030193dc0 f   libucrtd:winapi_thunks.obj
 0001:00192e40       __acrt_MessageBoxW         0000000030193e40 f   libucrtd:winapi_thunks.obj
 0001:00192ec0       __acrt_RoInitialize        0000000030193ec0 f   libucrtd:winapi_thunks.obj
 0001:00192f10       __acrt_RoUninitialize      0000000030193f10 f   libucrtd:winapi_thunks.obj
 0001:00192f50       __acrt_RtlGenRandom        0000000030193f50 f   libucrtd:winapi_thunks.obj
 0001:00192fb0       __acrt_SetThreadStackGuarantee 0000000030193fb0 f   libucrtd:winapi_thunks.obj
 0001:00193000       __acrt_can_show_message_box 0000000030194000 f   libucrtd:winapi_thunks.obj
 0001:00193050       __acrt_can_use_vista_locale_apis 0000000030194050 f   libucrtd:winapi_thunks.obj
 0001:00193090       __acrt_can_use_xstate_apis 0000000030194090 f   libucrtd:winapi_thunks.obj
 0001:001930d0       __acrt_eagerly_load_locale_apis 00000000301940d0 f   libucrtd:winapi_thunks.obj
 0001:00193120       __acrt_get_parent_window   0000000030194120 f   libucrtd:winapi_thunks.obj
 0001:001931c0       __acrt_initialize_winapi_thunks 00000000301941c0 f   libucrtd:winapi_thunks.obj
 0001:00193260       __acrt_is_interactive      0000000030194260 f   libucrtd:winapi_thunks.obj
 0001:00193380       __acrt_uninitialize_winapi_thunks 0000000030194380 f   libucrtd:winapi_thunks.obj
 0001:00193450       __acrt_getheap             0000000030194450 f   libucrtd:heap_handle.obj
 0001:001934c0       __acrt_initialize_heap     00000000301944c0 f   libucrtd:heap_handle.obj
 0001:001934f0       __acrt_uninitialize_heap   00000000301944f0 f   libucrtd:heap_handle.obj
 0001:00193510       _get_heap_handle           0000000030194510 f   libucrtd:heap_handle.obj
 0001:00193580       __acrt_execute_initializers 0000000030194580 f   libucrtd:shared_initialization.obj
 0001:001936a0       __acrt_execute_uninitializers 00000000301946a0 f   libucrtd:shared_initialization.obj
 0001:00193740       ??$?B$$A6AH_K@Z@__crt_fast_encoded_nullptr_t@@QEBAP6AH_K@ZXZ 0000000030194740 f i libucrtd:new_handler.obj
 0001:00193760       ??$__crt_fast_decode_pointer@P6AH_K@Z@@YAP6AH_K@ZQ6AH0@Z@Z 0000000030194760 f i libucrtd:new_handler.obj
 0001:001937b0       ??$__crt_fast_encode_pointer@P6AH_K@Z@@YAP6AH_K@ZQ6AH0@Z@Z 00000000301947b0 f i libucrtd:new_handler.obj
 0001:00193800       ?_set_new_handler@@YAP6AH_K@ZH@Z 0000000030194800 f   libucrtd:new_handler.obj
 0001:00193890       ?initialize@?$dual_state_global@P6AH_K@Z@__crt_state_management@@QEAAXQ6AH_K@Z@Z 0000000030194890 f i libucrtd:new_handler.obj
 0001:001938f0       ?value@?$dual_state_global@P6AH_K@Z@__crt_state_management@@QEAAAEAP6AH_K@ZXZ 00000000301948f0 f i libucrtd:new_handler.obj
 0001:00193920       __acrt_initialize_new_handler 0000000030194920 f   libucrtd:new_handler.obj
 0001:00193950       _callnewh                  0000000030194950 f   libucrtd:new_handler.obj
 0001:001939b0       _query_new_handler         00000000301949b0 f   libucrtd:new_handler.obj
 0001:00193a00       _set_new_handler           0000000030194a00 f   libucrtd:new_handler.obj
 0001:00193a80       ??$?B$$A6AXH@Z@__crt_fast_encoded_nullptr_t@@QEBAP6AXH@ZXZ 0000000030194a80 f i libucrtd:signal.obj
 0001:00193b80       ??$__crt_fast_decode_pointer@P6AXH@Z@@YAP6AXH@ZQ6AXH@Z@Z 0000000030194b80 f i libucrtd:signal.obj
 0001:00193bd0       ??$__crt_fast_encode_pointer@P6AXH@Z@@YAP6AXH@ZQ6AXH@Z@Z 0000000030194bd0 f i libucrtd:signal.obj
 0001:00193ed0       ?initialize@?$dual_state_global@P6AXH@Z@__crt_state_management@@QEAAXQ6AXH@Z@Z 0000000030194ed0 f i libucrtd:signal.obj
 0001:001940a0       ?value@?$dual_state_global@P6AXH@Z@__crt_state_management@@QEAAAEAP6AXH@ZXZ 00000000301950a0 f i libucrtd:signal.obj
 0001:001940d0       __acrt_get_sigabrt_handler 00000000301950d0 f   libucrtd:signal.obj
 0001:00194110       __acrt_initialize_signal_handlers 0000000030195110 f   libucrtd:signal.obj
 0001:00194180       __fpecode                  0000000030195180 f   libucrtd:signal.obj
 0001:001941a0       __pxcptinfoptrs            00000000301951a0 f   libucrtd:signal.obj
 0001:001941c0       raise                      00000000301951c0 f   libucrtd:signal.obj
 0001:001947a0       signal                     00000000301957a0 f   libucrtd:signal.obj
 0001:00194b20       ??$__crt_fast_decode_pointer@P6AHPEAU_exception@@@Z@@YAP6AHPEAU_exception@@@ZQ6AH0@Z@Z 0000000030195b20 f i libucrtd:matherr.obj
 0001:00194b70       ??$__crt_fast_encode_pointer@P6AHPEAU_exception@@@Z@@YAP6AHPEAU_exception@@@ZQ6AH0@Z@Z 0000000030195b70 f i libucrtd:matherr.obj
 0001:00194bc0       ?initialize@?$dual_state_global@P6AHPEAU_exception@@@Z@__crt_state_management@@QEAAXQ6AHPEAU_exception@@@Z@Z 0000000030195bc0 f i libucrtd:matherr.obj
 0001:00194c20       ?value@?$dual_state_global@P6AHPEAU_exception@@@Z@__crt_state_management@@QEAAAEAP6AHPEAU_exception@@@ZXZ 0000000030195c20 f i libucrtd:matherr.obj
 0001:00194c50       __acrt_has_user_matherr    0000000030195c50 f   libucrtd:matherr.obj
 0001:00194ca0       __acrt_initialize_user_matherr 0000000030195ca0 f   libucrtd:matherr.obj
 0001:00194cd0       __acrt_invoke_user_matherr 0000000030195cd0 f   libucrtd:matherr.obj
 0001:00194d30       __setusermatherr           0000000030195d30 f   libucrtd:matherr.obj
 0001:00194d80       _free_base                 0000000030195d80 f   libucrtd:free_base.obj
 0001:00194df0       _realloc_base              0000000030195df0 f   libucrtd:realloc_base.obj
 0001:00194f60       _expand                    0000000030195f60 f   libucrtd:expand.obj
 0001:00194fa0       _expand_base               0000000030195fa0 f   libucrtd:expand.obj
 0001:00195190       ?value@?$dual_state_global@J@__crt_state_management@@QEAAAEAJXZ 0000000030196190 f i libucrtd:new_mode.obj
 0001:001951c0       _query_new_mode            00000000301961c0 f   libucrtd:new_mode.obj
 0001:001951f0       _set_new_mode              00000000301961f0 f   libucrtd:new_mode.obj
 0001:001952f0       _CrtDefaultAllocHook       00000000301962f0 f   libucrtd:debug_heap_hook.obj
 0001:00195550       __acrt_report_runtime_error 0000000030196550 f   libucrtd:report_runtime_error.obj
 0001:00195860       _query_app_type            0000000030196860 f   libucrtd:report_runtime_error.obj
 0001:00195870       _set_app_type              0000000030196870 f   libucrtd:report_runtime_error.obj
 0001:00195890       _CrtGetReportHook          0000000030196890 f   libucrtd:dbgrptt.obj
 0001:001958a0       _CrtSetReportFile          00000000301968a0 f   libucrtd:dbgrptt.obj
 0001:00195a50       _CrtSetReportHook          0000000030196a50 f   libucrtd:dbgrptt.obj
 0001:00195a90       _CrtSetReportMode          0000000030196a90 f   libucrtd:dbgrptt.obj
 0001:00195cb0       _VCrtDbgReportA            0000000030196cb0 f   libucrtd:dbgrptt.obj
 0001:00196900       _VCrtDbgReportW            0000000030197900 f   libucrtd:dbgrptt.obj
 0001:00197760       _snprintf_s                0000000030198760 f i libucrtd:dbgrptt.obj
 0001:001977e0       _vsnprintf_s               00000000301987e0 f i libucrtd:dbgrptt.obj
 0001:00197840       _vsnprintf_s_l             0000000030198840 f i libucrtd:dbgrptt.obj
 0001:00197c00       ??$message_box@$$TAEBQEBDAEBQEBDK@?$__crt_char_traits@D@@SAH$$QEA$$TAEBQEBD1$$QEAK@Z 0000000030198c00 f i libucrtd:crtmbox.obj
 0001:00197c60       ??$message_box@$$TAEBQEB_WAEBQEB_WK@?$__crt_char_traits@_W@@SAH$$QEA$$TAEBQEB_W1$$QEAK@Z 0000000030198c60 f i libucrtd:crtmbox.obj
 0001:00197cc0       ??$message_box@PEAUHWND__@@AEBQEBDAEBQEBDAEBI@?$__crt_char_traits@D@@SAH$$QEAPEAUHWND__@@AEBQEBD1AEBI@Z 0000000030198cc0 f i libucrtd:crtmbox.obj
 0001:00197d20       ??$message_box@PEAUHWND__@@AEBQEB_WAEBQEB_WAEBI@?$__crt_char_traits@_W@@SAH$$QEAPEAUHWND__@@AEBQEB_W1AEBI@Z 0000000030198d20 f i libucrtd:crtmbox.obj
 0001:00197d80       ??$output_debug_string@AEBQEBD@?$__crt_char_traits@D@@SAXAEBQEBD@Z 0000000030198d80 f i libucrtd:crtmbox.obj
 0001:00197db0       ??$output_debug_string@AEBQEB_W@?$__crt_char_traits@_W@@SAXAEBQEB_W@Z 0000000030198db0 f i libucrtd:crtmbox.obj
 0001:00197de0       __acrt_show_narrow_message_box 0000000030198de0 f   libucrtd:crtmbox.obj
 0001:00197e20       __acrt_show_wide_message_box 0000000030198e20 f   libucrtd:crtmbox.obj
 0001:00197ef0       ?__mbrtowc_utf8@__crt_mbstring@@YA_KPEA_WPEBD_KPEAU_Mbstatet@@@Z 0000000030198ef0 f   libucrtd:mbrtowc.obj
 0001:00197f80       ?__mbsrtowcs_utf8@__crt_mbstring@@YA_KPEA_WPEAPEBD_KPEAU_Mbstatet@@@Z 0000000030198f80 f   libucrtd:mbrtowc.obj
 0001:00198f10       btowc                      0000000030199f10 f   libucrtd:mbrtowc.obj
 0001:00198fd0       mbrlen                     0000000030199fd0 f   libucrtd:mbrtowc.obj
 0001:00199060       mbrtowc                    000000003019a060 f   libucrtd:mbrtowc.obj
 0001:00199160       mbsrtowcs                  000000003019a160 f   libucrtd:mbrtowc.obj
 0001:001991b0       mbsrtowcs_s                000000003019a1b0 f   libucrtd:mbrtowc.obj
 0001:001997f0       ??$?RG@__crt_internal_free_policy@@QEBAXQEBG@Z 000000003019a7f0 f i libucrtd:initctype.obj
 0001:00199820       ??$?RJ@__crt_internal_free_policy@@QEBAXQEBJ@Z 000000003019a820 f i libucrtd:initctype.obj
 0001:00199850       ??0?$__crt_unique_heap_ptr@GU__crt_internal_free_policy@@@@QEAA@QEAG@Z 000000003019a850 f i libucrtd:initctype.obj
 0001:00199880       ??0?$__crt_unique_heap_ptr@JU__crt_internal_free_policy@@@@QEAA@QEAJ@Z 000000003019a880 f i libucrtd:initctype.obj
 0001:001998b0       ??1?$__crt_unique_heap_ptr@GU__crt_internal_free_policy@@@@QEAA@XZ 000000003019a8b0 f i libucrtd:initctype.obj
 0001:001998d0       ??1?$__crt_unique_heap_ptr@JU__crt_internal_free_policy@@@@QEAA@XZ 000000003019a8d0 f i libucrtd:initctype.obj
 0001:001998f0       ?detach@?$__crt_unique_heap_ptr@GU__crt_internal_free_policy@@@@QEAAPEAGXZ 000000003019a8f0 f i libucrtd:initctype.obj
 0001:00199930       ?detach@?$__crt_unique_heap_ptr@JU__crt_internal_free_policy@@@@QEAAPEAJXZ 000000003019a930 f i libucrtd:initctype.obj
 0001:00199970       ?release@?$__crt_unique_heap_ptr@GU__crt_internal_free_policy@@@@QEAAXXZ 000000003019a970 f i libucrtd:initctype.obj
 0001:001999b0       ?release@?$__crt_unique_heap_ptr@JU__crt_internal_free_policy@@@@QEAAXXZ 000000003019a9b0 f i libucrtd:initctype.obj
 0001:001999f0       ___lc_codepage_func        000000003019a9f0 f   libucrtd:initctype.obj
 0001:00199a40       ___lc_collate_cp_func      000000003019aa40 f   libucrtd:initctype.obj
 0001:00199a90       ___lc_locale_name_func     000000003019aa90 f   libucrtd:initctype.obj
 0001:00199ae0       ___mb_cur_max_func         000000003019aae0 f   libucrtd:initctype.obj
 0001:00199b30       ___mb_cur_max_l_func       000000003019ab30 f   libucrtd:initctype.obj
 0001:00199b80       __acrt_locale_initialize_ctype 000000003019ab80 f   libucrtd:initctype.obj
 0001:0019a8e0       ?__c32rtomb_utf8@__crt_mbstring@@YA_KPEAD_UPEAU_Mbstatet@@@Z 000000003019b8e0 f   libucrtd:c32rtomb.obj
 0001:0019ac00       ?reset_and_return@__crt_mbstring@@YA_K_KPEAU_Mbstatet@@@Z 000000003019bc00 f i libucrtd:c32rtomb.obj
 0001:0019ac50       ?return_illegal_sequence@__crt_mbstring@@YA_KPEAU_Mbstatet@@@Z 000000003019bc50 f i libucrtd:c32rtomb.obj
 0001:0019aca0       c32rtomb                   000000003019bca0 f   libucrtd:c32rtomb.obj
 0001:0019ace0       __acrt_add_locale_ref      000000003019bce0 f   libucrtd:locale_refcounting.obj
 0001:0019ae90       __acrt_free_locale         000000003019be90 f   libucrtd:locale_refcounting.obj
 0001:0019b2f0       __acrt_locale_add_lc_time_reference 000000003019c2f0 f   libucrtd:locale_refcounting.obj
 0001:0019b340       __acrt_locale_free_lc_time_if_unreferenced 000000003019c340 f   libucrtd:locale_refcounting.obj
 0001:0019b3b0       __acrt_locale_release_lc_time_reference 000000003019c3b0 f   libucrtd:locale_refcounting.obj
 0001:0019b400       __acrt_release_locale_ref  000000003019c400 f   libucrtd:locale_refcounting.obj
 0001:0019b5c0       __acrt_update_thread_locale_data 000000003019c5c0 f   libucrtd:locale_refcounting.obj
 0001:0019b690       _updatetlocinfoEx_nolock   000000003019c690 f   libucrtd:locale_refcounting.obj
 0001:0019b760       __acrt_fp_strflt_to_string 000000003019c760 f   libucrtd:_fptostr.obj
 0001:0019c490       ??0big_integer@__crt_strtox@@QEAA@AEBU01@@Z 000000003019d490 f i libucrtd:cfout.obj
 0001:0019c510       ??0big_integer@__crt_strtox@@QEAA@XZ 000000003019d510 f i libucrtd:cfout.obj
 0001:0019c610       ??4big_integer@__crt_strtox@@QEAAAEAU01@AEBU01@@Z 000000003019d610 f i libucrtd:cfout.obj
 0001:0019c690       ??8__crt_strtox@@YA_NAEBUbig_integer@0@0@Z 000000003019d690 f i libucrtd:cfout.obj
 0001:0019c710       ??9__crt_strtox@@YA_NAEBUbig_integer@0@0@Z 000000003019d710 f i libucrtd:cfout.obj
 0001:0019c760       ?add_carry@__crt_strtox@@YAIAEAIII@Z 000000003019d760 f i libucrtd:cfout.obj
 0001:0019c7c0       ?add_multiply_carry@__crt_strtox@@YAIAEAIIII@Z 000000003019d7c0 f i libucrtd:cfout.obj
 0001:0019c830       ?bit_scan_reverse@__crt_strtox@@YAII@Z 000000003019d830 f i libucrtd:cfout.obj
 0001:0019c870       ?count_sequential_high_zeroes@__crt_strtox@@YAII@Z 000000003019d870 f i libucrtd:cfout.obj
 0001:0019c8c0       ?divide@__crt_strtox@@YA_KAEAUbig_integer@1@AEBU21@@Z 000000003019d8c0 f i libucrtd:cfout.obj
 0001:0019d500       ?is_zero@__crt_strtox@@YA_NAEBUbig_integer@1@@Z 000000003019e500 f i libucrtd:cfout.obj
 0001:0019d540       ?make_big_integer@__crt_strtox@@YA?AUbig_integer@1@_K@Z 000000003019e540 f i libucrtd:cfout.obj
 0001:0019d640       ?make_big_integer_power_of_two@__crt_strtox@@YA?AUbig_integer@1@I@Z 000000003019e640 f i libucrtd:cfout.obj
 0001:0019d750       ?multiply@__crt_strtox@@YA_NAEAUbig_integer@1@AEBU21@@Z 000000003019e750 f i libucrtd:cfout.obj
 0001:0019dba0       ?multiply@__crt_strtox@@YA_NAEAUbig_integer@1@I@Z 000000003019eba0 f i libucrtd:cfout.obj
 0001:0019dd10       ?multiply_64_32@__crt_strtox@@YA_K_KI@Z 000000003019ed10 f i libucrtd:cfout.obj
 0001:0019dd30       ?multiply_by_power_of_ten@__crt_strtox@@YA_NAEAUbig_integer@1@I@Z 000000003019ed30 f i libucrtd:cfout.obj
 0001:0019df50       ?multiply_core@__crt_strtox@@YAIQEAIII@Z 000000003019ef50 f i libucrtd:cfout.obj
 0001:0019dff0       ?shift_left@__crt_strtox@@YA_NAEAUbig_integer@1@I@Z 000000003019eff0 f i libucrtd:cfout.obj
 0001:0019e3f0       __acrt_fltout              000000003019f3f0 f   libucrtd:cfout.obj
 0001:0019f5e0       ?has_big_buffer@__crt_stdio_stream@@QEBA_NXZ 00000000301a05e0 f i libucrtd:_flsbuf.obj
 0001:0019f750       __acrt_stdio_flush_and_write_narrow_nolock 00000000301a0750 f   libucrtd:_flsbuf.obj
 0001:0019f790       __acrt_stdio_flush_and_write_wide_nolock 00000000301a0790 f   libucrtd:_flsbuf.obj
 0001:0019f7d0       ??0__crt_stdio_stream@@QEAA@QEAU__crt_stdio_stream_data@@@Z 00000000301a07d0 f i libucrtd:closeall.obj
 0001:0019f800       ?is_in_use@__crt_stdio_stream@@QEBA_NXZ 00000000301a0800 f i libucrtd:closeall.obj
 0001:0019f850       _fcloseall                 00000000301a0850 f   libucrtd:closeall.obj
 0001:001a0140       ?__acrt_stdio_reset_buffer@@YAXV__crt_stdio_stream@@@Z 00000000301a1140 f i libucrtd:fflush.obj
 0001:001a02b0       ?has_all_of@__crt_stdio_stream@@QEBA_NJ@Z 00000000301a12b0 f i libucrtd:fflush.obj
 0001:001a03d0       __acrt_stdio_flush_nolock  00000000301a13d0 f   libucrtd:fflush.obj
 0001:001a0520       _fflush_nolock             00000000301a1520 f   libucrtd:fflush.obj
 0001:001a05d0       _flushall                  00000000301a15d0 f   libucrtd:fflush.obj
 0001:001a05f0       fflush                     00000000301a15f0 f   libucrtd:fflush.obj
 0001:001a06a0       ?has_crt_buffer@__crt_stdio_stream@@QEBA_NXZ 00000000301a16a0 f i libucrtd:_freebuf.obj
 0001:001a06d0       __acrt_stdio_free_buffer_nolock 00000000301a16d0 f   libucrtd:_freebuf.obj
 0001:001a07f0       _isatty                    00000000301a17f0 f   libucrtd:isatty.obj
 0001:001a0940       ??$?RUlconv@@@__crt_internal_free_policy@@QEBAXQEBUlconv@@@Z 00000000301a1940 f i libucrtd:initmon.obj
 0001:001a0970       ??0?$__crt_unique_heap_ptr@Ulconv@@U__crt_internal_free_policy@@@@QEAA@QEAUlconv@@@Z 00000000301a1970 f i libucrtd:initmon.obj
 0001:001a09a0       ??1?$__crt_unique_heap_ptr@Ulconv@@U__crt_internal_free_policy@@@@QEAA@XZ 00000000301a19a0 f i libucrtd:initmon.obj
 0001:001a09c0       ?detach@?$__crt_unique_heap_ptr@Ulconv@@U__crt_internal_free_policy@@@@QEAAPEAUlconv@@XZ 00000000301a19c0 f i libucrtd:initmon.obj
 0001:001a0a00       ?release@?$__crt_unique_heap_ptr@Ulconv@@U__crt_internal_free_policy@@@@QEAAXXZ 00000000301a1a00 f i libucrtd:initmon.obj
 0001:001a0a40       __acrt_locale_free_monetary 00000000301a1a40 f   libucrtd:initmon.obj
 0001:001a0ce0       __acrt_locale_initialize_monetary 00000000301a1ce0 f   libucrtd:initmon.obj
 0001:001a18f0       __acrt_locale_free_numeric 00000000301a28f0 f   libucrtd:initnum.obj
 0001:001a1a00       __acrt_locale_initialize_numeric 00000000301a2a00 f   libucrtd:initnum.obj
 0001:001a2180       ??$?RU__crt_lc_time_data@@@__crt_internal_free_policy@@QEBAXQEBU__crt_lc_time_data@@@Z 00000000301a3180 f i libucrtd:inittime.obj
 0001:001a22d0       ??0?$__crt_unique_heap_ptr@U__crt_lc_time_data@@U__crt_internal_free_policy@@@@QEAA@QEAU__crt_lc_time_data@@@Z 00000000301a32d0 f i libucrtd:inittime.obj
 0001:001a2300       ??1?$__crt_unique_heap_ptr@U__crt_lc_time_data@@U__crt_internal_free_policy@@@@QEAA@XZ 00000000301a3300 f i libucrtd:inittime.obj
 0001:001a2320       ??B?$__crt_unique_heap_ptr@U__crt_lc_time_data@@U__crt_internal_free_policy@@@@QEBA_NXZ 00000000301a3320 f i libucrtd:inittime.obj
 0001:001a2340       ?detach@?$__crt_unique_heap_ptr@U__crt_lc_time_data@@U__crt_internal_free_policy@@@@QEAAPEAU__crt_lc_time_data@@XZ 00000000301a3340 f i libucrtd:inittime.obj
 0001:001a23f0       ?get@?$__crt_unique_heap_ptr@U__crt_lc_time_data@@U__crt_internal_free_policy@@@@QEBAPEAU__crt_lc_time_data@@XZ 00000000301a33f0 f i libucrtd:inittime.obj
 0001:001a2c00       ?is_valid@?$__crt_unique_heap_ptr@U__crt_lc_time_data@@U__crt_internal_free_policy@@@@QEBA_NXZ 00000000301a3c00 f i libucrtd:inittime.obj
 0001:001a2c40       ?release@?$__crt_unique_heap_ptr@U__crt_lc_time_data@@U__crt_internal_free_policy@@@@QEAAXXZ 00000000301a3c40 f i libucrtd:inittime.obj
 0001:001a2c80       __acrt_locale_free_time    00000000301a3c80 f   libucrtd:inittime.obj
 0001:001a2e50       __acrt_locale_initialize_time 00000000301a3e50 f   libucrtd:inittime.obj
 0001:001a2f10       __pctype_func              00000000301a3f10 f   libucrtd:ctype.obj
 0001:001a2f60       __pwctype_func             00000000301a3f60 f   libucrtd:ctype.obj
 0001:001a3790       wcscat_s                   00000000301a4790 f   libucrtd:wcscat_s.obj
 0001:001a4140       wcsncat_s                  00000000301a5140 f   libucrtd:wcsncat_s.obj
 0001:001a49d0       wcsncpy_s                  00000000301a59d0 f   libucrtd:wcsncpy_s.obj
 0001:001a4a20       wcscmp                     00000000301a5a20 f   libucrtd:wcscmp.obj
 0001:001a4af0       wcscspn                    00000000301a5af0 f   libucrtd:wcscspn.obj
 0001:001a4bb0       wcspbrk                    00000000301a5bb0 f   libucrtd:wcspbrk.obj
 0001:001a4c50       __acrt_GetStringTypeA      00000000301a5c50 f   libucrtd:getstringtypea.obj
 0001:001a5f40       __acrt_get_qualified_locale 00000000301a6f40 f   libucrtd:get_qualified_locale.obj
 0001:001a7460       __acrt_get_qualified_locale_downlevel 00000000301a8460 f   libucrtd:getqloc_downlevel.obj
 0001:001a7890       localeconv                 00000000301a8890 f   libucrtd:localeconv.obj
 0001:001a78e0       ??$?RU__crt_lowio_handle_data@@@__crt_internal_free_policy@@QEBAXQEBU__crt_lowio_handle_data@@@Z 00000000301a88e0 f i libucrtd:osfinfo.obj
 0001:001a7910       ??0?$__crt_unique_heap_ptr@U__crt_lowio_handle_data@@U__crt_internal_free_policy@@@@QEAA@QEAU__crt_lowio_handle_data@@@Z 00000000301a8910 f i libucrtd:osfinfo.obj
 0001:001a7940       ??1?$__crt_unique_heap_ptr@U__crt_lowio_handle_data@@U__crt_internal_free_policy@@@@QEAA@XZ 00000000301a8940 f i libucrtd:osfinfo.obj
 0001:001a7960       ??B?$__crt_unique_heap_ptr@U__crt_lowio_handle_data@@U__crt_internal_free_policy@@@@QEBA_NXZ 00000000301a8960 f i libucrtd:osfinfo.obj
 0001:001a7980       ?detach@?$__crt_unique_heap_ptr@U__crt_lowio_handle_data@@U__crt_internal_free_policy@@@@QEAAPEAU__crt_lowio_handle_data@@XZ 00000000301a8980 f i libucrtd:osfinfo.obj
 0001:001a79c0       ?get@?$__crt_unique_heap_ptr@U__crt_lowio_handle_data@@U__crt_internal_free_policy@@@@QEBAPEAU__crt_lowio_handle_data@@XZ 00000000301a89c0 f i libucrtd:osfinfo.obj
 0001:001a79e0       ?is_valid@?$__crt_unique_heap_ptr@U__crt_lowio_handle_data@@U__crt_internal_free_policy@@@@QEBA_NXZ 00000000301a89e0 f i libucrtd:osfinfo.obj
 0001:001a7a20       ?release@?$__crt_unique_heap_ptr@U__crt_lowio_handle_data@@U__crt_internal_free_policy@@@@QEAAXXZ 00000000301a8a20 f i libucrtd:osfinfo.obj
 0001:001a7a60       __acrt_lowio_create_handle_array 00000000301a8a60 f   libucrtd:osfinfo.obj
 0001:001a7c90       __acrt_lowio_destroy_handle_array 00000000301a8c90 f   libucrtd:osfinfo.obj
 0001:001a7d30       __acrt_lowio_ensure_fh_exists 00000000301a8d30 f   libucrtd:osfinfo.obj
 0001:001a7ee0       __acrt_lowio_lock_fh       00000000301a8ee0 f   libucrtd:osfinfo.obj
 0001:001a7f30       __acrt_lowio_set_os_handle 00000000301a8f30 f   libucrtd:osfinfo.obj
 0001:001a8090       __acrt_lowio_unlock_fh     00000000301a9090 f   libucrtd:osfinfo.obj
 0001:001a80e0       _alloc_osfhnd              00000000301a90e0 f   libucrtd:osfinfo.obj
 0001:001a8370       _free_osfhnd               00000000301a9370 f   libucrtd:osfinfo.obj
 0001:001a84f0       _get_osfhandle             00000000301a94f0 f   libucrtd:osfinfo.obj
 0001:001a8770       _open_osfhandle            00000000301a9770 f   libucrtd:osfinfo.obj
 0001:001a8a10       __acrt_GetStringTypeW      00000000301a9a10 f   libucrtd:getstringtypew.obj
 0001:001a8a60       __strncnt                  00000000301a9a60 f   libucrtd:strncnt.obj
 0001:001a8ae0       _errcode                   00000000301a9ae0 f   libucrtd:fpexcept.obj
 0001:001a8b80       _except1                   00000000301a9b80 f   libucrtd:fpexcept.obj
 0001:001a8d10       _except2                   00000000301a9d10 f   libucrtd:fpexcept.obj
 0001:001a8f40       _handle_exc                00000000301a9f40 f   libucrtd:fpexcept.obj
 0001:001a94c0       _handle_qnan2              00000000301aa4c0 f   libucrtd:fpexcept.obj
 0001:001a9500       _raise_exc                 00000000301aa500 f   libucrtd:fpexcept.obj
 0001:001a9570       _raise_exc_ex              00000000301aa570 f   libucrtd:fpexcept.obj
 0001:001a9d80       _raise_excf                00000000301aad80 f   libucrtd:fpexcept.obj
 0001:001a9df0       _set_errno_from_matherr    00000000301aadf0 f   libucrtd:fpexcept.obj
 0001:001a9e50       _umatherr                  00000000301aae50 f   libucrtd:fpexcept.obj
 0001:001a9f60       _get_fpsr                  00000000301aaf60 f   libucrtd:fpsr.obj
 0001:001a9f70       _set_fpsr                  00000000301aaf70 f   libucrtd:fpsr.obj
 0001:001a9f7a       _fclrf                     00000000301aaf7a f   libucrtd:fpsr.obj
 0001:001a9f8e       _frnd                      00000000301aaf8e f   libucrtd:fpsr.obj
 0001:001aa1a0       qsort                      00000000301ab1a0 f   libucrtd:qsort.obj
 0001:001ab290       strncpy_s                  00000000301ac290 f   libucrtd:strncpy_s.obj
 0001:001ab460       strpbrk                    00000000301ac460 f   libucrtd:strpbrk.obj
 0001:001abf8c       _mbsdec                    00000000301acf8c f   libucrtd:mbsdec.obj
 0001:001abf98       _mbsdec_l                  00000000301acf98 f   libucrtd:mbsdec.obj
 0001:001ac110       _wcsnicoll                 00000000301ad110 f   libucrtd:wcsnicol.obj
 0001:001ac400       _wcsnicoll_l               00000000301ad400 f   libucrtd:wcsnicol.obj
 0001:001ac810       _strnicoll                 00000000301ad810 f   libucrtd:strnicol.obj
 0001:001ac880       _strnicoll_l               00000000301ad880 f   libucrtd:strnicol.obj
 0001:001acfc0       __acrt_SetEnvironmentVariableA 00000000301adfc0 f   libucrtd:setenvironmentvariablea.obj
 0001:001ad2a0       __acrt_DownlevelLCIDToLocaleName 00000000301ae2a0 f   libucrtd:lcidtoname_downlevel.obj
 0001:001ad3e0       __acrt_DownlevelLocaleNameToLCID 00000000301ae3e0 f   libucrtd:lcidtoname_downlevel.obj
 0001:001ad450       _malloc_base               00000000301ae450 f   libucrtd:malloc_base.obj
 0001:001ad520       _set_error_mode            00000000301ae520 f   libucrtd:set_error_mode.obj
 0001:001af490       _i64toa                    00000000301b0490 f   libucrtd:xtoa.obj
 0001:001af510       _i64toa_s                  00000000301b0510 f   libucrtd:xtoa.obj
 0001:001af590       _i64tow                    00000000301b0590 f   libucrtd:xtoa.obj
 0001:001af610       _i64tow_s                  00000000301b0610 f   libucrtd:xtoa.obj
 0001:001af690       _itoa                      00000000301b0690 f   libucrtd:xtoa.obj
 0001:001af710       _itoa_s                    00000000301b0710 f   libucrtd:xtoa.obj
 0001:001af790       _itow                      00000000301b0790 f   libucrtd:xtoa.obj
 0001:001af810       _itow_s                    00000000301b0810 f   libucrtd:xtoa.obj
 0001:001af890       _ltoa                      00000000301b0890 f   libucrtd:xtoa.obj
 0001:001af910       _ltoa_s                    00000000301b0910 f   libucrtd:xtoa.obj
 0001:001af990       _ltow                      00000000301b0990 f   libucrtd:xtoa.obj
 0001:001afa10       _ltow_s                    00000000301b0a10 f   libucrtd:xtoa.obj
 0001:001afa90       _ui64toa                   00000000301b0a90 f   libucrtd:xtoa.obj
 0001:001afae0       _ui64toa_s                 00000000301b0ae0 f   libucrtd:xtoa.obj
 0001:001afb30       _ui64tow                   00000000301b0b30 f   libucrtd:xtoa.obj
 0001:001afb80       _ui64tow_s                 00000000301b0b80 f   libucrtd:xtoa.obj
 0001:001afbd0       _ultoa                     00000000301b0bd0 f   libucrtd:xtoa.obj
 0001:001afc20       _ultoa_s                   00000000301b0c20 f   libucrtd:xtoa.obj
 0001:001afc70       _ultow                     00000000301b0c70 f   libucrtd:xtoa.obj
 0001:001afcc0       _ultow_s                   00000000301b0cc0 f   libucrtd:xtoa.obj
 0001:001b0470       _mbstowcs_l                00000000301b1470 f   libucrtd:mbstowcs.obj
 0001:001b04c0       _mbstowcs_s_l              00000000301b14c0 f   libucrtd:mbstowcs.obj
 0001:001b0c00       mbstowcs                   00000000301b1c00 f   libucrtd:mbstowcs.obj
 0001:001b0c70       mbstowcs_s                 00000000301b1c70 f   libucrtd:mbstowcs.obj
 0001:001b1850       _wcstombs_l                00000000301b2850 f   libucrtd:wcstombs.obj
 0001:001b18a0       _wcstombs_s_l              00000000301b28a0 f   libucrtd:wcstombs.obj
 0001:001b1f20       wcstombs                   00000000301b2f20 f   libucrtd:wcstombs.obj
 0001:001b1f60       wcstombs_s                 00000000301b2f60 f   libucrtd:wcstombs.obj
 0001:001b27c0       strcat_s                   00000000301b37c0 f   libucrtd:strcat_s.obj
 0001:001b2800       __acrt_OutputDebugStringA  00000000301b3800 f   libucrtd:outputdebugstringa.obj
 0001:001b28f0       ?__mbrtoc32_utf8@__crt_mbstring@@YA_KPEA_UPEBD_KPEAU_Mbstatet@@@Z 00000000301b38f0 f   libucrtd:mbrtoc32.obj
 0001:001b2d90       mbrtoc32                   00000000301b3d90 f   libucrtd:mbrtoc32.obj
 0001:001b3070       __acrt_GetLocaleInfoA      00000000301b4070 f   libucrtd:getlocaleinfoa.obj
 0001:001b35e0       log10                      00000000301b45e0 f   libucrtd:log10.obj
 0001:001b3d00       ceil                       00000000301b4d00 f   libucrtd:ceil.obj
 0001:001b3f40       fegetenv                   00000000301b4f40 f   libucrtd:fegetenv.obj
 0001:001b3f80       fesetenv                   00000000301b4f80 f   libucrtd:fesetenv.obj
 0001:001b4010       feholdexcept               00000000301b5010 f   libucrtd:feholdexcept.obj
 0001:001b6100       _utf8_no_of_trailbytes     00000000301b7100 f i libucrtd:write.obj
 0001:001b6120       _write                     00000000301b7120 f   libucrtd:write.obj
 0001:001b6460       _write_nolock              00000000301b7460 f   libucrtd:write.obj
 0001:001b7680       _lseek                     00000000301b8680 f   libucrtd:lseek.obj
 0001:001b76c0       _lseek_nolock              00000000301b86c0 f   libucrtd:lseek.obj
 0001:001b7700       _lseeki64                  00000000301b8700 f   libucrtd:lseek.obj
 0001:001b7740       _lseeki64_nolock           00000000301b8740 f   libucrtd:lseek.obj
 0001:001b7780       __acrt_stdio_allocate_buffer_nolock 00000000301b8780 f   libucrtd:_getbuf.obj
 0001:001b7950       _fclose_nolock             00000000301b8950 f   libucrtd:fclose.obj
 0001:001b7b40       fclose                     00000000301b8b40 f   libucrtd:fclose.obj
 0001:001b7f70       _commit                    00000000301b8f70 f   libucrtd:commit.obj
 0001:001b81b0       __ascii_wcsicmp            00000000301b91b0 f   libucrtd:wcsicmp.obj
 0001:001b8270       _towlower_fast_internal    00000000301b9270 f i libucrtd:wcsicmp.obj
 0001:001b82d0       _towlower_internal         00000000301b92d0 f i libucrtd:wcsicmp.obj
 0001:001b8320       _wcsicmp                   00000000301b9320 f   libucrtd:wcsicmp.obj
 0001:001b8520       _wcsicmp_l                 00000000301b9520 f   libucrtd:wcsicmp.obj
 0001:001b8860       __ascii_wcsnicmp           00000000301b9860 f   libucrtd:wcsnicmp.obj
 0001:001b8970       _wcsnicmp                  00000000301b9970 f   libucrtd:wcsnicmp.obj
 0001:001b8b80       _wcsnicmp_l                00000000301b9b80 f   libucrtd:wcsnicmp.obj
 0001:001b8f10       _add_exp                   00000000301b9f10 f   libucrtd:util.obj
 0001:001b8f60       _decomp                    00000000301b9f60 f   libucrtd:util.obj
 0001:001b9100       _get_exp                   00000000301ba100 f   libucrtd:util.obj
 0001:001b9140       _set_bexp                  00000000301ba140 f   libucrtd:util.obj
 0001:001b9190       _set_exp                   00000000301ba190 f   libucrtd:util.obj
 0001:001b91f0       _sptype                    00000000301ba1f0 f   libucrtd:util.obj
 0001:001b9290       __acrt_CompareStringW      00000000301ba290 f   libucrtd:comparestringw.obj
 0001:001b9410       __ascii_strnicmp           00000000301ba410 f   libucrtd:strnicmp.obj
 0001:001b9510       _strnicmp                  00000000301ba510 f   libucrtd:strnicmp.obj
 0001:001b97f0       _strnicmp_l                00000000301ba7f0 f   libucrtd:strnicmp.obj
 0001:001ba440       __acrt_CompareStringA      00000000301bb440 f   libucrtd:comparestringa.obj
 0001:001ba500       ?__wcsrtombs_utf8@__crt_mbstring@@YA_KPEADPEAPEB_W_KPEAU_Mbstatet@@@Z 00000000301bb500 f   libucrtd:wcrtomb.obj
 0001:001bb320       wcrtomb                    00000000301bc320 f   libucrtd:wcrtomb.obj
 0001:001bb3a0       wcrtomb_s                  00000000301bc3a0 f   libucrtd:wcrtomb.obj
 0001:001bb5a0       wcsrtombs                  00000000301bc5a0 f   libucrtd:wcrtomb.obj
 0001:001bb5f0       wcsrtombs_s                00000000301bc5f0 f   libucrtd:wcrtomb.obj
 0001:001bbc30       wctob                      00000000301bcc30 f   libucrtd:wcrtomb.obj
 0001:001bbd10       _log10_special             00000000301bcd10 f   libucrtd:log_special.obj
 0001:001bbd70       _log10f_special            00000000301bcd70 f   libucrtd:log_special.obj
 0001:001bbdd0       _log_special               00000000301bcdd0 f   libucrtd:log_special.obj
 0001:001bbfa0       _logf_special              00000000301bcfa0 f   libucrtd:log_special.obj
 0001:001bc1a0       ??$__acrt_fenv_shift_bits@W4__acrt_fenv_abstract_control@@@@YA?AW4__acrt_fenv_abstract_control@@W40@0I@Z 00000000301bd1a0 f i libucrtd:_fenvutils.obj
 0001:001bc1e0       ??$__acrt_fenv_shift_bits@W4__acrt_fenv_abstract_status@@@@YA?AW4__acrt_fenv_abstract_status@@W40@0I@Z 00000000301bd1e0 f i libucrtd:_fenvutils.obj
 0001:001bc220       ??$__acrt_fenv_translate_bit@W4__acrt_fenv_abstract_control@@W4__acrt_fenv_machine_sse_control@@@@YA?AW4__acrt_fenv_abstract_control@@W4__acrt_fenv_machine_sse_control@@0W40@1@Z 00000000301bd220 f i libucrtd:_fenvutils.obj
 0001:001bc290       ??$__acrt_fenv_translate_bit@W4__acrt_fenv_abstract_status@@W4__acrt_fenv_machine_sse_status@@@@YA?AW4__acrt_fenv_abstract_status@@W4__acrt_fenv_machine_sse_status@@0W40@1@Z 00000000301bd290 f i libucrtd:_fenvutils.obj
 0001:001bc2f0       ??$__acrt_fenv_translate_bit@W4__acrt_fenv_machine_sse_control@@W4__acrt_fenv_abstract_control@@@@YA?AW4__acrt_fenv_machine_sse_control@@W4__acrt_fenv_abstract_control@@0W40@1@Z 00000000301bd2f0 f i libucrtd:_fenvutils.obj
 0001:001bc360       ??$__acrt_fenv_translate_bit@W4__acrt_fenv_machine_sse_status@@W4__acrt_fenv_abstract_status@@@@YA?AW4__acrt_fenv_machine_sse_status@@W4__acrt_fenv_abstract_status@@0W40@1@Z 00000000301bd360 f i libucrtd:_fenvutils.obj
 0001:001bc3c0       ??$__acrt_fenv_unshift_bits@W4__acrt_fenv_abstract_control@@@@YA?AW4__acrt_fenv_abstract_control@@W40@0I@Z 00000000301bd3c0 f i libucrtd:_fenvutils.obj
 0001:001bc400       ??$__acrt_fenv_unshift_bits@W4__acrt_fenv_abstract_status@@@@YA?AW4__acrt_fenv_abstract_status@@W40@0I@Z 00000000301bd400 f i libucrtd:_fenvutils.obj
 0001:001bca20       ??I@YA?AW4__acrt_fenv_abstract_control@@W40@0@Z 00000000301bda20 f i libucrtd:_fenvutils.obj
 0001:001bca40       ??I@YA?AW4__acrt_fenv_abstract_status@@W40@0@Z 00000000301bda40 f i libucrtd:_fenvutils.obj
 0001:001bca60       ??I@YA?AW4__acrt_fenv_machine_sse_control@@W40@0@Z 00000000301bda60 f i libucrtd:_fenvutils.obj
 0001:001bca80       ??I@YA?AW4__acrt_fenv_machine_sse_status@@W40@0@Z 00000000301bda80 f i libucrtd:_fenvutils.obj
 0001:001bcaa0       ??U@YA?AW4__acrt_fenv_abstract_control@@W40@0@Z 00000000301bdaa0 f i libucrtd:_fenvutils.obj
 0001:001bcac0       ??U@YA?AW4__acrt_fenv_abstract_status@@W40@0@Z 00000000301bdac0 f i libucrtd:_fenvutils.obj
 0001:001bcae0       ??U@YA?AW4__acrt_fenv_machine_sse_control@@W40@0@Z 00000000301bdae0 f i libucrtd:_fenvutils.obj
 0001:001bcb00       ??_5@YAAEAW4__acrt_fenv_abstract_control@@AEAW40@W40@@Z 00000000301bdb00 f i libucrtd:_fenvutils.obj
 0001:001bcb30       ??_5@YAAEAW4__acrt_fenv_abstract_status@@AEAW40@W40@@Z 00000000301bdb30 f i libucrtd:_fenvutils.obj
 0001:001bcb60       ??_5@YAAEAW4__acrt_fenv_machine_sse_control@@AEAW40@W40@@Z 00000000301bdb60 f i libucrtd:_fenvutils.obj
 0001:001bcba0       ??_5@YAAEAW4__acrt_fenv_machine_sse_status@@AEAW40@W40@@Z 00000000301bdba0 f i libucrtd:_fenvutils.obj
 0001:001bcbd0       ?__acrt_fenv_shift_abstract_sse_control@@YA?AW4__acrt_fenv_abstract_control@@W41@@Z 00000000301bdbd0 f i libucrtd:_fenvutils.obj
 0001:001bcc30       ?__acrt_fenv_shift_abstract_sse_status@@YA?AW4__acrt_fenv_abstract_status@@W41@@Z 00000000301bdc30 f i libucrtd:_fenvutils.obj
 0001:001bcc60       ?__acrt_fenv_unshift_abstract_sse_control@@YA?AW4__acrt_fenv_abstract_control@@W41@@Z 00000000301bdc60 f i libucrtd:_fenvutils.obj
 0001:001bccc0       ?__acrt_fenv_unshift_abstract_sse_status@@YA?AW4__acrt_fenv_abstract_status@@W41@@Z 00000000301bdcc0 f i libucrtd:_fenvutils.obj
 0001:001bd050       __acrt_fenv_expand_round_control 00000000301be050 f   libucrtd:_fenvutils.obj
 0001:001bd080       __acrt_fenv_get_common_round_control 00000000301be080 f   libucrtd:_fenvutils.obj
 0001:001bd0b0       __acrt_fenv_get_control    00000000301be0b0 f   libucrtd:_fenvutils.obj
 0001:001bd0f0       __acrt_fenv_get_fp_status_word_from_exception_mask 00000000301be0f0 f   libucrtd:_fenvutils.obj
 0001:001bd120       __acrt_fenv_get_status     00000000301be120 f   libucrtd:_fenvutils.obj
 0001:001bd160       __acrt_fenv_set_control    00000000301be160 f   libucrtd:_fenvutils.obj
 0001:001bd190       __acrt_fenv_set_status     00000000301be190 f   libucrtd:_fenvutils.obj
 0001:001bd430       _clearfp                   00000000301be430 f   libucrtd:ieee.obj
 0001:001bd460       _control87                 00000000301be460 f   libucrtd:ieee.obj
 0001:001bd490       _controlfp                 00000000301be490 f   libucrtd:ieee.obj
 0001:001bd4c0       _fpreset                   00000000301be4c0 f   libucrtd:ieee.obj
 0001:001bd680       _set_controlfp             00000000301be680 f   libucrtd:ieee.obj
 0001:001bd6f0       _statusfp                  00000000301be6f0 f   libucrtd:ieee.obj
 0001:001bd93c       _putwch                    00000000301be93c f   libucrtd:putwch.obj
 0001:001bd988       _putwch_nolock             00000000301be988 f   libucrtd:putwch.obj
 0001:001beb60       _read                      00000000301bfb60 f   libucrtd:read.obj
 0001:001bef80       _read_nolock               00000000301bff80 f   libucrtd:read.obj
 0001:001c0440       _close                     00000000301c1440 f   libucrtd:close.obj
 0001:001c06a0       _close_nolock              00000000301c16a0 f   libucrtd:close.obj
 0001:001c0720       ??$?RU__crt_stdio_stream_data@@@__crt_internal_free_policy@@QEBAXQEBU__crt_stdio_stream_data@@@Z 00000000301c1720 f i libucrtd:stream.obj
 0001:001c0750       ??0?$__crt_unique_heap_ptr@U__crt_stdio_stream_data@@U__crt_internal_free_policy@@@@QEAA@QEAU__crt_stdio_stream_data@@@Z 00000000301c1750 f i libucrtd:stream.obj
 0001:001c0780       ??0__crt_stdio_stream@@QEAA@XZ 00000000301c1780 f i libucrtd:stream.obj
 0001:001c07a0       ??1?$__crt_unique_heap_ptr@U__crt_stdio_stream_data@@U__crt_internal_free_policy@@@@QEAA@XZ 00000000301c17a0 f i libucrtd:stream.obj
 0001:001c07c0       ?__acrt_stdio_allocate_stream@@YA?AV__crt_stdio_stream@@XZ 00000000301c17c0 f   libucrtd:stream.obj
 0001:001c08b0       ?__acrt_stdio_free_stream@@YAXV__crt_stdio_stream@@@Z 00000000301c18b0 f   libucrtd:stream.obj
 0001:001c0970       ?deallocate@__crt_stdio_stream@@QEAAXXZ 00000000301c1970 f i libucrtd:stream.obj
 0001:001c0990       ?detach@?$__crt_unique_heap_ptr@U__crt_stdio_stream_data@@U__crt_internal_free_policy@@@@QEAAPEAU__crt_stdio_stream_data@@XZ 00000000301c1990 f i libucrtd:stream.obj
 0001:001c0be0       ?lock@__crt_stdio_stream@@QEBAXXZ 00000000301c1be0 f i libucrtd:stream.obj
 0001:001c0c10       ?release@?$__crt_unique_heap_ptr@U__crt_stdio_stream_data@@U__crt_internal_free_policy@@@@QEAAXXZ 00000000301c1c10 f i libucrtd:stream.obj
 0001:001c0c50       ?try_allocate@__crt_stdio_stream@@QEAA_NXZ 00000000301c1c50 f i libucrtd:stream.obj
 0001:001c0cd0       ?unlock@__crt_stdio_stream@@QEBAXXZ 00000000301c1cd0 f i libucrtd:stream.obj
 0001:001c0d00       _towlower_l                00000000301c1d00 f   libucrtd:towlower.obj
 0001:001c0e80       towlower                   00000000301c1e80 f   libucrtd:towlower.obj
 0001:001c0ea0       ?__c16rtomb_utf8@__crt_mbstring@@YA_KPEAD_SPEAU_Mbstatet@@@Z 00000000301c1ea0 f   libucrtd:c16rtomb.obj
 0001:001c1140       c16rtomb                   00000000301c2140 f   libucrtd:c16rtomb.obj
 0001:001c12e4       __dcrt_lowio_ensure_console_output_initialized 00000000301c22e4 f   libucrtd:initcon.obj
 0001:001c134c       __dcrt_terminate_console_output 00000000301c234c f   libucrtd:initcon.obj
 0001:001c1370       __dcrt_write_console       00000000301c2370 f   libucrtd:initcon.obj
 0001:001c1460       __acrt_LCMapStringW        00000000301c2460 f   libucrtd:lcmapstringw.obj
 0001:001c1548       RtlCaptureContext          00000000301c2548 f   kernel32:KERNEL32.dll
 0001:001c154e       RtlLookupFunctionEntry     00000000301c254e f   kernel32:KERNEL32.dll
 0001:001c1554       RtlVirtualUnwind           00000000301c2554 f   kernel32:KERNEL32.dll
 0001:001c155a       UnhandledExceptionFilter   00000000301c255a f   kernel32:KERNEL32.dll
 0001:001c1560       SetUnhandledExceptionFilter 00000000301c2560 f   kernel32:KERNEL32.dll
 0001:001c1566       GetCurrentProcess          00000000301c2566 f   kernel32:KERNEL32.dll
 0001:001c156c       TerminateProcess           00000000301c256c f   kernel32:KERNEL32.dll
 0001:001c1572       IsProcessorFeaturePresent  00000000301c2572 f   kernel32:KERNEL32.dll
 0001:001c1578       QueryPerformanceCounter    00000000301c2578 f   kernel32:KERNEL32.dll
 0001:001c157e       GetCurrentProcessId        00000000301c257e f   kernel32:KERNEL32.dll
 0001:001c1584       GetCurrentThreadId         00000000301c2584 f   kernel32:KERNEL32.dll
 0001:001c158a       GetSystemTimeAsFileTime    00000000301c258a f   kernel32:KERNEL32.dll
 0001:001c1590       InitializeSListHead        00000000301c2590 f   kernel32:KERNEL32.dll
 0001:001c1596       IsDebuggerPresent          00000000301c2596 f   kernel32:KERNEL32.dll
 0001:001c159c       GetStartupInfoW            00000000301c259c f   kernel32:KERNEL32.dll
 0001:001c15a2       GetModuleHandleW           00000000301c25a2 f   kernel32:KERNEL32.dll
 0001:001c15a8       RtlUnwindEx                00000000301c25a8 f   kernel32:KERNEL32.dll
 0001:001c15ae       InterlockedPushEntrySList  00000000301c25ae f   kernel32:KERNEL32.dll
 0001:001c15b4       InterlockedFlushSList      00000000301c25b4 f   kernel32:KERNEL32.dll
 0001:001c15ba       GetLastError               00000000301c25ba f   kernel32:KERNEL32.dll
 0001:001c15c0       SetLastError               00000000301c25c0 f   kernel32:KERNEL32.dll
 0001:001c15c6       EnterCriticalSection       00000000301c25c6 f   kernel32:KERNEL32.dll
 0001:001c15cc       LeaveCriticalSection       00000000301c25cc f   kernel32:KERNEL32.dll
 0001:001c15d2       DeleteCriticalSection      00000000301c25d2 f   kernel32:KERNEL32.dll
 0001:001c15d8       InitializeCriticalSectionAndSpinCount 00000000301c25d8 f   kernel32:KERNEL32.dll
 0001:001c15de       TlsAlloc                   00000000301c25de f   kernel32:KERNEL32.dll
 0001:001c15e4       TlsGetValue                00000000301c25e4 f   kernel32:KERNEL32.dll
 0001:001c15ea       TlsSetValue                00000000301c25ea f   kernel32:KERNEL32.dll
 0001:001c15f0       TlsFree                    00000000301c25f0 f   kernel32:KERNEL32.dll
 0001:001c15f6       FreeLibrary                00000000301c25f6 f   kernel32:KERNEL32.dll
 0001:001c15fc       GetProcAddress             00000000301c25fc f   kernel32:KERNEL32.dll
 0001:001c1602       LoadLibraryExW             00000000301c2602 f   kernel32:KERNEL32.dll
 0001:001c1608       EncodePointer              00000000301c2608 f   kernel32:KERNEL32.dll
 0001:001c160e       RaiseException             00000000301c260e f   kernel32:KERNEL32.dll
 0001:001c1614       RtlPcToFileHeader          00000000301c2614 f   kernel32:KERNEL32.dll
 0001:001c161a       ExitProcess                00000000301c261a f   kernel32:KERNEL32.dll
 0001:001c1620       GetModuleHandleExW         00000000301c2620 f   kernel32:KERNEL32.dll
 0001:001c1626       GetModuleFileNameW         00000000301c2626 f   kernel32:KERNEL32.dll
 0001:001c162c       HeapAlloc                  00000000301c262c f   kernel32:KERNEL32.dll
 0001:001c1632       HeapSize                   00000000301c2632 f   kernel32:KERNEL32.dll
 0001:001c1638       HeapValidate               00000000301c2638 f   kernel32:KERNEL32.dll
 0001:001c163e       GetSystemInfo              00000000301c263e f   kernel32:KERNEL32.dll
 0001:001c1644       GetCurrentThread           00000000301c2644 f   kernel32:KERNEL32.dll
 0001:001c164a       GetStdHandle               00000000301c264a f   kernel32:KERNEL32.dll
 0001:001c1650       GetFileType                00000000301c2650 f   kernel32:KERNEL32.dll
 0001:001c1656       FindClose                  00000000301c2656 f   kernel32:KERNEL32.dll
 0001:001c165c       FindFirstFileExW           00000000301c265c f   kernel32:KERNEL32.dll
 0001:001c1662       FindNextFileW              00000000301c2662 f   kernel32:KERNEL32.dll
 0001:001c1668       IsValidCodePage            00000000301c2668 f   kernel32:KERNEL32.dll
 0001:001c166e       GetACP                     00000000301c266e f   kernel32:KERNEL32.dll
 0001:001c1674       GetOEMCP                   00000000301c2674 f   kernel32:KERNEL32.dll
 0001:001c167a       GetCPInfo                  00000000301c267a f   kernel32:KERNEL32.dll
 0001:001c1680       GetCommandLineA            00000000301c2680 f   kernel32:KERNEL32.dll
 0001:001c1686       GetCommandLineW            00000000301c2686 f   kernel32:KERNEL32.dll
 0001:001c168c       MultiByteToWideChar        00000000301c268c f   kernel32:KERNEL32.dll
 0001:001c1692       WideCharToMultiByte        00000000301c2692 f   kernel32:KERNEL32.dll
 0001:001c1698       GetEnvironmentStringsW     00000000301c2698 f   kernel32:KERNEL32.dll
 0001:001c169e       FreeEnvironmentStringsW    00000000301c269e f   kernel32:KERNEL32.dll
 0001:001c16a4       SetEnvironmentVariableW    00000000301c26a4 f   kernel32:KERNEL32.dll
 0001:001c16aa       GetDateFormatW             00000000301c26aa f   kernel32:KERNEL32.dll
 0001:001c16b0       GetTimeFormatW             00000000301c26b0 f   kernel32:KERNEL32.dll
 0001:001c16b6       CompareStringW             00000000301c26b6 f   kernel32:KERNEL32.dll
 0001:001c16bc       LCMapStringW               00000000301c26bc f   kernel32:KERNEL32.dll
 0001:001c16c2       GetLocaleInfoW             00000000301c26c2 f   kernel32:KERNEL32.dll
 0001:001c16c8       IsValidLocale              00000000301c26c8 f   kernel32:KERNEL32.dll
 0001:001c16ce       GetUserDefaultLCID         00000000301c26ce f   kernel32:KERNEL32.dll
 0001:001c16d4       EnumSystemLocalesW         00000000301c26d4 f   kernel32:KERNEL32.dll
 0001:001c16da       GetProcessHeap             00000000301c26da f   kernel32:KERNEL32.dll
 0001:001c16e0       SetConsoleCtrlHandler      00000000301c26e0 f   kernel32:KERNEL32.dll
 0001:001c16e6       HeapFree                   00000000301c26e6 f   kernel32:KERNEL32.dll
 0001:001c16ec       HeapReAlloc                00000000301c26ec f   kernel32:KERNEL32.dll
 0001:001c16f2       HeapQueryInformation       00000000301c26f2 f   kernel32:KERNEL32.dll
 0001:001c16f8       WriteFile                  00000000301c26f8 f   kernel32:KERNEL32.dll
 0001:001c16fe       OutputDebugStringW         00000000301c26fe f   kernel32:KERNEL32.dll
 0001:001c1704       WriteConsoleW              00000000301c2704 f   kernel32:KERNEL32.dll
 0001:001c170a       GetFileSizeEx              00000000301c270a f   kernel32:KERNEL32.dll
 0001:001c1710       SetFilePointerEx           00000000301c2710 f   kernel32:KERNEL32.dll
 0001:001c1716       GetStringTypeW             00000000301c2716 f   kernel32:KERNEL32.dll
 0001:001c171c       SetStdHandle               00000000301c271c f   kernel32:KERNEL32.dll
 0001:001c1722       GetConsoleCP               00000000301c2722 f   kernel32:KERNEL32.dll
 0001:001c1728       GetConsoleMode             00000000301c2728 f   kernel32:KERNEL32.dll
 0001:001c172e       FlushFileBuffers           00000000301c272e f   kernel32:KERNEL32.dll
 0001:001c1734       ReadFile                   00000000301c2734 f   kernel32:KERNEL32.dll
 0001:001c173a       ReadConsoleW               00000000301c273a f   kernel32:KERNEL32.dll
 0001:001c1740       CloseHandle                00000000301c2740 f   kernel32:KERNEL32.dll
 0001:001c1746       CreateFileW                00000000301c2746 f   kernel32:KERNEL32.dll
 0001:001c1750       _FindPESection             00000000301c2750 f   LIBCMTD:pesect.obj
 0001:001c1820       _IsNonwritableInCurrentImage 00000000301c2820 f   LIBCMTD:pesect.obj
 0001:001c18e0       _ValidateImageBase         00000000301c28e0 f   LIBCMTD:pesect.obj
 0001:001c1980       ??1type_info@@UEAA@XZ      00000000301c2980 f   LIBCMTD:std_type_info_static.obj
 0001:001c19a0       ??_Etype_info@@UEAAPEAXI@Z 00000000301c29a0 f i LIBCMTD:std_type_info_static.obj
 0001:001c19a0       ??_Gtype_info@@UEAAPEAXI@Z 00000000301c29a0 f i LIBCMTD:std_type_info_static.obj
 0001:001c19f0       ??3@YAXPEAX_K@Z            00000000301c29f0 f   LIBCMTD:delete_scalar_size.obj
 0001:001c1a20       __GSHandlerCheck_SEH       00000000301c2a20 f   LIBCMTD:gshandlerseh.obj
 0001:001c1b10       __GSHandlerCheck_EH        00000000301c2b10 f   LIBCMTD:gshandlereh.obj
 0001:001c1be0       ??3@YAXPEAX@Z              00000000301c2be0 f   LIBCMTD:delete_scalar.obj
 0001:001c1c10       strrchr                    00000000301c2c10 f   libvcruntimed:strrchr.obj
 0001:001c2140       _local_unwind              00000000301c3140 f   libvcruntimed:jmpuwind.obj
 0001:001c2190       memcmp                     00000000301c3190 f   libvcruntimed:memcmp.obj
 0001:001c2290       wcschr                     00000000301c3290 f   libvcruntimed:wcschr.obj
 0001:001c2435       RtlUnwind                  00000000301c3435 f   kernel32:KERNEL32.dll
 0001:001c7210       _guard_dispatch_icall_nop  00000000301c8210 f   LIBCMTD:guard_dispatch.obj
 0001:001c7230       _guard_xfg_dispatch_icall_nop 00000000301c8230 f   LIBCMTD:guard_xfg_dispatch.obj
 0002:00000000       __xc_a                     00000000301cc000     LIBCMTD:initializers.obj
 0002:00000110       __xc_z                     00000000301cc110     LIBCMTD:initializers.obj
 0002:00000220       __xi_a                     00000000301cc220     LIBCMTD:initializers.obj
 0002:00000330       __acrt_stdio_initializer   00000000301cc330     libucrtd:stdio_initializer.obj
 0002:00000340       __acrt_tran_fma3_initializer 00000000301cc340     libucrtd:fma3_initializer.obj
 0002:00000350       __acrt_multibyte_initializer 00000000301cc350     libucrtd:multibyte_initializer.obj
 0002:00000460       __xi_z                     00000000301cc460     LIBCMTD:initializers.obj
 0002:00000570       __xp_a                     00000000301cc570     LIBCMTD:initializers.obj
 0002:00000680       __acrt_locale_terminator   00000000301cc680     libucrtd:locale_initializer.obj
 0002:00000690       __dcrt_console_output_terminator 00000000301cc690     libucrtd:console_output_initializer.obj
 0002:000007a0       __acrt_stdio_terminator    00000000301cc7a0     libucrtd:stdio_initializer.obj
 0002:000008b0       __xp_z                     00000000301cc8b0     LIBCMTD:initializers.obj
 0002:000009c0       __xt_a                     00000000301cc9c0     LIBCMTD:initializers.obj
 0002:00000ad0       __xt_z                     00000000301ccad0     LIBCMTD:initializers.obj
 0002:00002184       __real@00000000            00000000301ce184     bg_animation.obj
 0002:00002188       __real@3ff199999999999a    00000000301ce188     bg_animation.obj
 0002:00002194       __real@bf800000            00000000301ce194     bg_animation.obj
 0002:00002198       __real@3f800000            00000000301ce198     bg_lib.obj
 0002:000021a0       __real@3fb999999999999a    00000000301ce1a0     bg_lib.obj
 0002:000021ac       __real@41200000            00000000301ce1ac     bg_lib.obj
 0002:000074b0       __real@0000000000000000    00000000301d34b0     bg_misc.obj
 0002:000074bc       __real@3e99999a            00000000301d34bc     bg_misc.obj
 0002:000074c0       __real@3f333333            00000000301d34c0     bg_misc.obj
 0002:000074c8       __real@3f50624dd2f1a9fc    00000000301d34c8     bg_misc.obj
 0002:000074d8       __real@3fe0000000000000    00000000301d34d8     bg_misc.obj
 0002:000074e8       __real@3fe999999999999a    00000000301d34e8     bg_misc.obj
 0002:000074f8       __real@3ff0000000000000    00000000301d34f8     bg_misc.obj
 0002:00007504       __real@40000000            00000000301d3504     bg_misc.obj
 0002:00007508       __real@40490fdb            00000000301d3508     bg_misc.obj
 0002:00007510       __real@4054000000000000    00000000301d3510     bg_misc.obj
 0002:00007520       __real@405e000000000000    00000000301d3520     bg_misc.obj
 0002:00007530       __real@4064000000000000    00000000301d3530     bg_misc.obj
 0002:00007540       __real@406e000000000000    00000000301d3540     bg_misc.obj
 0002:00007550       __real@4079000000000000    00000000301d3550     bg_misc.obj
 0002:0000755c       __real@42100000            00000000301d355c     bg_misc.obj
 0002:00007560       __real@42300000            00000000301d3560     bg_misc.obj
 0002:00007564       __real@43800000            00000000301d3564     bg_misc.obj
 0002:00007568       __real@44480000            00000000301d3568     bg_misc.obj
 0002:0000756c       __real@c2100000            00000000301d356c     bg_misc.obj
 0002:00007570       __real@c2480000            00000000301d3570     bg_misc.obj
 0002:00007580       __xmm@80000000800000008000000080000000 00000000301d3580     bg_misc.obj
 0002:00007758       __real@3ecccccd            00000000301d3758     bg_pmove.obj
 0002:0000775c       __real@3f000000            00000000301d375c     bg_pmove.obj
 0002:00007760       __real@3f051eb8            00000000301d3760     bg_pmove.obj
 0002:00007764       __real@3f19999a            00000000301d3764     bg_pmove.obj
 0002:00007768       __real@3f1a36e2eb1c432d    00000000301d3768     bg_pmove.obj
 0002:00007774       __real@3f666666            00000000301d3774     bg_pmove.obj
 0002:00007778       __real@3f76800000000000    00000000301d3778     bg_pmove.obj
 0002:00007784       __real@3f8020c5            00000000301d3784     bg_pmove.obj
 0002:00007788       __real@3f847ae140000000    00000000301d3788     bg_pmove.obj
 0002:00007798       __real@3fd0000000000000    00000000301d3798     bg_pmove.obj
 0002:000077a8       __real@3fe6666666666666    00000000301d37a8     bg_pmove.obj
 0002:000077b8       __real@3feccccccccccccd    00000000301d37b8     bg_pmove.obj
 0002:000077c8       __real@3ff4cccccccccccd    00000000301d37c8     bg_pmove.obj
 0002:000077d8       __real@3ff8000000000000    00000000301d37d8     bg_pmove.obj
 0002:000077e8       __real@4004000000000000    00000000301d37e8     bg_pmove.obj
 0002:000077f8       __real@4008000000000000    00000000301d37f8     bg_pmove.obj
 0002:00007804       __real@40400000            00000000301d3804     bg_pmove.obj
 0002:00007808       __real@4043600000000000    00000000301d3808     bg_pmove.obj
 0002:00007818       __real@4050000000000000    00000000301d3818     bg_pmove.obj
 0002:00007828       __real@405fc00000000000    00000000301d3828     bg_pmove.obj
 0002:00007834       __real@40800000            00000000301d3834     bg_pmove.obj
 0002:00007838       __real@408f400000000000    00000000301d3838     bg_pmove.obj
 0002:00007844       __real@40a00000            00000000301d3844     bg_pmove.obj
 0002:00007848       __real@40e00000            00000000301d3848     bg_pmove.obj
 0002:0000784c       __real@41000000            00000000301d384c     bg_pmove.obj
 0002:00007850       __real@41400000            00000000301d3850     bg_pmove.obj
 0002:00007854       __real@41800000            00000000301d3854     bg_pmove.obj
 0002:00007858       __real@41900000            00000000301d3858     bg_pmove.obj
 0002:0000785c       __real@41a00000            00000000301d385c     bg_pmove.obj
 0002:00007860       __real@41e00000            00000000301d3860     bg_pmove.obj
 0002:00007864       __real@41f00000            00000000301d3864     bg_pmove.obj
 0002:00007868       __real@42400000            00000000301d3868     bg_pmove.obj
 0002:0000786c       __real@42680000            00000000301d386c     bg_pmove.obj
 0002:00007870       __real@42800000            00000000301d3870     bg_pmove.obj
 0002:00007874       __real@42860000            00000000301d3874     bg_pmove.obj
 0002:00007878       __real@429a0000            00000000301d3878     bg_pmove.obj
 0002:0000787c       __real@42f00000            00000000301d387c     bg_pmove.obj
 0002:00007880       __real@43000000            00000000301d3880     bg_pmove.obj
 0002:00007884       __real@43480000            00000000301d3884     bg_pmove.obj
 0002:00007888       __real@437f0000            00000000301d3888     bg_pmove.obj
 0002:0000788c       __real@43870000            00000000301d388c     bg_pmove.obj
 0002:00007890       __real@438c0000            00000000301d3890     bg_pmove.obj
 0002:00007894       __real@43af0000            00000000301d3894     bg_pmove.obj
 0002:00007898       __real@43fa0000            00000000301d3898     bg_pmove.obj
 0002:0000789c       __real@449c4000            00000000301d389c     bg_pmove.obj
 0002:000078a0       __real@451c4000            00000000301d38a0     bg_pmove.obj
 0002:000078a8       __real@bfd0000000000000    00000000301d38a8     bg_pmove.obj
 0002:000078b8       __real@bfeccccccccccccd    00000000301d38b8     bg_pmove.obj
 0002:000078c8       __real@bff0000000000000    00000000301d38c8     bg_pmove.obj
 0002:000078d8       __real@c050000000000000    00000000301d38d8     bg_pmove.obj
 0002:000078e8       __real@c069000000000000    00000000301d38e8     bg_pmove.obj
 0002:000078f4       __real@c0c00000            00000000301d38f4     bg_pmove.obj
 0002:000078f8       __real@c1400000            00000000301d38f8     bg_pmove.obj
 0002:000078fc       __real@c1e00000            00000000301d38fc     bg_pmove.obj
 0002:00007900       __real@c2700000            00000000301d3900     bg_pmove.obj
 0002:00007904       __real@c3480000            00000000301d3904     bg_pmove.obj
 0002:00007908       __real@c35c0000            00000000301d3908     bg_pmove.obj
 0002:00007940       __real@3fefae147ae147ae    00000000301d3940     bg_slidemove.obj
 0002:0000794c       __real@41300000            00000000301d394c     bg_slidemove.obj
 0002:00007950       __real@41700000            00000000301d3950     bg_slidemove.obj
 0002:00007954       __real@3c8efa35            00000000301d3954     q_math.obj
 0002:00007958       __real@3fc00000            00000000301d3958     q_math.obj
 0002:00007960       __real@4000000000000000    00000000301d3960     q_math.obj
 0002:00007970       __real@400921fb60000000    00000000301d3970     q_math.obj
 0002:00007980       __real@4066800000000000    00000000301d3980     q_math.obj
 0002:00007990       __real@4066c16c16c16c17    00000000301d3990     q_math.obj
 0002:000079a0       __real@4076800000000000    00000000301d39a0     q_math.obj
 0002:000079ac       __real@42b40000            00000000301d39ac     q_math.obj
 0002:000079b0       __real@43340000            00000000301d39b0     q_math.obj
 0002:000079b4       __real@43b40000            00000000301d39b4     q_math.obj
 0002:000079b8       __real@47800000            00000000301d39b8     q_math.obj
 0002:000079bc       __real@47c34f80            00000000301d39bc     q_math.obj
 0002:000079c0       __real@c2b40000            00000000301d39c0     q_math.obj
 0002:000079c4       __real@c3340000            00000000301d39c4     q_math.obj
 0002:000079c8       __real@c7c34f80            00000000301d39c8     q_math.obj
 0002:000079d0       __xmm@80000000000000008000000000000000 00000000301d39d0     q_math.obj
 0002:0000955c       __real@3d567750            00000000301d555c     ui_shared.obj
 0002:00009560       __real@3f0ccccd            00000000301d5560     ui_shared.obj
 0002:00009564       __real@3f4ccccd            00000000301d5564     ui_shared.obj
 0002:00009568       __real@3fd126e978d4fdf4    00000000301d5568     ui_shared.obj
 0002:00009578       __real@4010000000000000    00000000301d5578     ui_shared.obj
 0002:00009588       __real@4018000000000000    00000000301d5588     ui_shared.obj
 0002:00009598       __real@4020000000000000    00000000301d5598     ui_shared.obj
 0002:000095a8       __real@402e000000000000    00000000301d55a8     ui_shared.obj
 0002:000095b8       __real@4030000000000000    00000000301d55b8     ui_shared.obj
 0002:000095c8       __real@4040000000000000    00000000301d55c8     ui_shared.obj
 0002:000095d8       __real@4058000000000000    00000000301d55d8     ui_shared.obj
 0002:000095e4       __real@40c00000            00000000301d55e4     ui_shared.obj
 0002:000095e8       __real@41c80000            00000000301d55e8     ui_shared.obj
 0002:000095ec       __real@42c00000            00000000301d55ec     ui_shared.obj
 0002:000095f0       __real@42c80000            00000000301d55f0     ui_shared.obj
 0002:000095f4       __real@42cc0000            00000000301d55f4     ui_shared.obj
 0002:000095f8       __real@43f00000            00000000301d55f8     ui_shared.obj
 0002:000095fc       __real@44200000            00000000301d55fc     ui_shared.obj
 0002:00009600       __real@447a0000            00000000301d5600     ui_shared.obj
 0002:00009604       __real@48c00000            00000000301d5604     ui_shared.obj
 0002:00009608       __real@49800000            00000000301d5608     ui_shared.obj
 0002:00009610       __real@bfe0000000000000    00000000301d5610     ui_shared.obj
 0002:00009e20       __real@3a83126f            00000000301d5e20     cg_draw.obj
 0002:00009e24       __real@3dafec57            00000000301d5e24     cg_draw.obj
 0002:00009e28       __real@3e000000            00000000301d5e28     cg_draw.obj
 0002:00009e2c       __real@3e4ccccd            00000000301d5e2c     cg_draw.obj
 0002:00009e30       __real@3ea8f5c3            00000000301d5e30     cg_draw.obj
 0002:00009e34       __real@3f42c3ca            00000000301d5e34     cg_draw.obj
 0002:00009e38       __real@3fe8000000000000    00000000301d5e38     cg_draw.obj
 0002:00009e48       __real@4014000000000000    00000000301d5e48     cg_draw.obj
 0002:00009e58       __real@4024000000000000    00000000301d5e58     cg_draw.obj
 0002:00009e68       __real@4032000000000000    00000000301d5e68     cg_draw.obj
 0002:00009e78       __real@403e000000000000    00000000301d5e78     cg_draw.obj
 0002:00009e88       __real@404e000000000000    00000000301d5e88     cg_draw.obj
 0002:00009e98       __real@406fe00000000000    00000000301d5e98     cg_draw.obj
 0002:00009ea8       __real@4082c00000000000    00000000301d5ea8     cg_draw.obj
 0002:00009eb8       __real@409f400000000000    00000000301d5eb8     cg_draw.obj
 0002:00009ec4       __real@41500000            00000000301d5ec4     cg_draw.obj
 0002:00009ec8       __real@41c00000            00000000301d5ec8     cg_draw.obj
 0002:00009ecc       __real@41c90fdb            00000000301d5ecc     cg_draw.obj
 0002:00009ed0       __real@41e80000            00000000301d5ed0     cg_draw.obj
 0002:00009ed4       __real@42000000            00000000301d5ed4     cg_draw.obj
 0002:00009ed8       __real@4216cbe4            00000000301d5ed8     cg_draw.obj
 0002:00009edc       __real@42200000            00000000301d5edc     cg_draw.obj
 0002:00009ee0       __real@423c7edd            00000000301d5ee0     cg_draw.obj
 0002:00009ee4       __real@425c0000            00000000301d5ee4     cg_draw.obj
 0002:00009ee8       __real@42600000            00000000301d5ee8     cg_draw.obj
 0002:00009eec       __real@42700000            00000000301d5eec     cg_draw.obj
 0002:00009ef0       __real@42a00000            00000000301d5ef0     cg_draw.obj
 0002:00009ef4       __real@42a80000            00000000301d5ef4     cg_draw.obj
 0002:00009ef8       __real@42ae0000            00000000301d5ef8     cg_draw.obj
 0002:00009efc       __real@42e40000            00000000301d5efc     cg_draw.obj
 0002:00009f00       __real@42fe0000            00000000301d5f00     cg_draw.obj
 0002:00009f04       __real@430c0000            00000000301d5f04     cg_draw.obj
 0002:00009f08       __real@43120000            00000000301d5f08     cg_draw.obj
 0002:00009f0c       __real@43160000            00000000301d5f0c     cg_draw.obj
 0002:00009f10       __real@43170000            00000000301d5f10     cg_draw.obj
 0002:00009f14       __real@43190000            00000000301d5f14     cg_draw.obj
 0002:00009f18       __real@43200000            00000000301d5f18     cg_draw.obj
 0002:00009f1c       __real@432d0000            00000000301d5f1c     cg_draw.obj
 0002:00009f20       __real@43310000            00000000301d5f20     cg_draw.obj
 0002:00009f24       __real@43320000            00000000301d5f24     cg_draw.obj
 0002:00009f28       __real@433c0000            00000000301d5f28     cg_draw.obj
 0002:00009f2c       __real@43550000            00000000301d5f2c     cg_draw.obj
 0002:00009f30       __real@435c0000            00000000301d5f30     cg_draw.obj
 0002:00009f34       __real@43620000            00000000301d5f34     cg_draw.obj
 0002:00009f38       __real@436a0000            00000000301d5f38     cg_draw.obj
 0002:00009f3c       __real@436f0000            00000000301d5f3c     cg_draw.obj
 0002:00009f40       __real@43700000            00000000301d5f40     cg_draw.obj
 0002:00009f44       __real@43710000            00000000301d5f44     cg_draw.obj
 0002:00009f48       __real@43720000            00000000301d5f48     cg_draw.obj
 0002:00009f4c       __real@43890000            00000000301d5f4c     cg_draw.obj
 0002:00009f50       __real@43960000            00000000301d5f50     cg_draw.obj
 0002:00009f54       __real@43988000            00000000301d5f54     cg_draw.obj
 0002:00009f58       __real@439b0000            00000000301d5f58     cg_draw.obj
 0002:00009f5c       __real@439d0000            00000000301d5f5c     cg_draw.obj
 0002:00009f60       __real@439f8000            00000000301d5f60     cg_draw.obj
 0002:00009f64       __real@43a00000            00000000301d5f64     cg_draw.obj
 0002:00009f68       __real@43a38000            00000000301d5f68     cg_draw.obj
 0002:00009f6c       __real@43ae0000            00000000301d5f6c     cg_draw.obj
 0002:00009f70       __real@43b50000            00000000301d5f70     cg_draw.obj
 0002:00009f74       __real@43b70000            00000000301d5f74     cg_draw.obj
 0002:00009f78       __real@43be0000            00000000301d5f78     cg_draw.obj
 0002:00009f7c       __real@43c80000            00000000301d5f7c     cg_draw.obj
 0002:00009f80       __real@43cb0000            00000000301d5f80     cg_draw.obj
 0002:00009f84       __real@43cb8000            00000000301d5f84     cg_draw.obj
 0002:00009f88       __real@43d80000            00000000301d5f88     cg_draw.obj
 0002:00009f8c       __real@43e20000            00000000301d5f8c     cg_draw.obj
 0002:00009f90       __real@43f50000            00000000301d5f90     cg_draw.obj
 0002:00009f94       __real@440c0000            00000000301d5f94     cg_draw.obj
 0002:00009f98       __real@44140000            00000000301d5f98     cg_draw.obj
 0002:00009f9c       __real@44168000            00000000301d5f9c     cg_draw.obj
 0002:00009fa0       __real@44178000            00000000301d5fa0     cg_draw.obj
 0002:00009fa4       __real@44228000            00000000301d5fa4     cg_draw.obj
 0002:00009fa8       __real@44610000            00000000301d5fa8     cg_draw.obj
 0002:00009fac       __real@45800000            00000000301d5fac     cg_draw.obj
 0002:00009fb0       __real@46fffe00            00000000301d5fb0     cg_draw.obj
 0002:00009fb4       __real@c1200000            00000000301d5fb4     cg_draw.obj
 0002:00009fb8       __real@3d800000            00000000301d5fb8     cg_drawtools.obj
 0002:00009fbc       __real@3dd80000            00000000301d5fbc     cg_drawtools.obj
 0002:00009fc0       __real@3e100000            00000000301d5fc0     cg_drawtools.obj
 0002:00009fc4       __real@3e800000            00000000301d5fc4     cg_drawtools.obj
 0002:00009fc8       __real@3f400000            00000000301d5fc8     cg_drawtools.obj
 0002:00009fd0       __real@3fb0000000000000    00000000301d5fd0     cg_drawtools.obj
 0002:00009fe0       __real@3fd5c28f5c28f5c2    00000000301d5fe0     cg_drawtools.obj
 0002:00009ff0       __real@3fe51eb851eb851f    00000000301d5ff0     cg_drawtools.obj
 0002:0000a000       __real@4040800000000000    00000000301d6000     cg_drawtools.obj
 0002:0000a010       __real@4069000000000000    00000000301d6010     cg_drawtools.obj
 0002:0000a01c       __real@41d80000            00000000301d601c     cg_drawtools.obj
 0002:0000a288       __real@3dcccccd            00000000301d6288     cg_effects.obj
 0002:0000a290       __real@3fa999999999999a    00000000301d6290     cg_effects.obj
 0002:0000a2a0       __real@3fc999999999999a    00000000301d62a0     cg_effects.obj
 0002:0000a2b0       __real@3fd3333333333333    00000000301d62b0     cg_effects.obj
 0002:0000a2c0       __real@3fd999999999999a    00000000301d62c0     cg_effects.obj
 0002:0000a2d0       __real@3fe3333333333333    00000000301d62d0     cg_effects.obj
 0002:0000a2e0       __real@3ff3333333333333    00000000301d62e0     cg_effects.obj
 0002:0000a2f0       __real@4034000000000000    00000000301d62f0     cg_effects.obj
 0002:0000a300       __real@4049000000000000    00000000301d6300     cg_effects.obj
 0002:0000a310       __real@4052c00000000000    00000000301d6310     cg_effects.obj
 0002:0000a320       __real@406f400000000000    00000000301d6320     cg_effects.obj
 0002:0000a330       __real@40b3880000000000    00000000301d6330     cg_effects.obj
 0002:0000a33c       __real@41600000            00000000301d633c     cg_effects.obj
 0002:0000a340       __real@420c0000            00000000301d6340     cg_effects.obj
 0002:0000a344       __real@42960000            00000000301d6344     cg_effects.obj
 0002:0000a348       __real@437a0000            00000000301d6348     cg_effects.obj
 0002:0000a34c       __real@44000000            00000000301d634c     cg_effects.obj
 0002:0000a350       __real@44fa0000            00000000301d6350     cg_effects.obj
 0002:0000a354       __real@459c4000            00000000301d6354     cg_effects.obj
 0002:0000a358       __real@477fff00            00000000301d6358     cg_effects.obj
 0002:0000a35c       __real@bf000000            00000000301d635c     cg_effects.obj
 0002:0000a360       __real@c2800000            00000000301d6360     cg_effects.obj
 0002:0000a988       __real@3b808081            00000000301d6988     cg_ents.obj
 0002:0000a98c       __real@3d6978d5            00000000301d698c     cg_ents.obj
 0002:0000a990       __real@3e6b851f            00000000301d6990     cg_ents.obj
 0002:0000a998       __real@3ee4f8b588e368f1    00000000301d6998     cg_ents.obj
 0002:0000a9a4       __real@3f59999a            00000000301d69a4     cg_ents.obj
 0002:0000a9a8       __real@3f747ae147ae147b    00000000301d69a8     cg_ents.obj
 0002:0000a9b8       __real@3f847ae147ae147b    00000000301d69b8     cg_ents.obj
 0002:0000a9c8       __real@4053200000000000    00000000301d69c8     cg_ents.obj
 0002:0000a9d8       __real@4070000000000000    00000000301d69d8     cg_ents.obj
 0002:0000a9e8       __real@40a0000000000000    00000000301d69e8     cg_ents.obj
 0002:0000a9f8       __real@40affe0000000000    00000000301d69f8     cg_ents.obj
 0002:0000aa04       __real@4226aaab            00000000301d6a04     cg_ents.obj
 0002:0000aa08       __real@42480000            00000000301d6a08     cg_ents.obj
 0002:0000aa0c       __real@44800000            00000000301d6a0c     cg_ents.obj
 0002:0000aa10       __real@bf70a3d7            00000000301d6a10     cg_ents.obj
 0002:0000aa18       __real@bfe3333333333333    00000000301d6a18     cg_ents.obj
 0002:0000bc80       __real@3cf5c28f            00000000301d7c80     cg_event.obj
 0002:0000bc84       __real@3d23d70a            00000000301d7c84     cg_event.obj
 0002:0000bc88       __real@3d4ccccd            00000000301d7c88     cg_event.obj
